0:Math_pow
1:abort
2:enlargeMemory
3:getTotalMemory
4:abortOnCannotGrowMemory
5:invoke_iiiiiii
6:invoke_jii
7:invoke_iiiiiiii
8:invoke_iiiji
9:invoke_iiiii
10:invoke_fiffi
11:invoke_viffi
12:invoke_viiiiii
13:invoke_ji
14:invoke_viiiji
15:invoke_iiiiii
16:invoke_vijii
17:invoke_viiii
18:invoke_jijii
19:invoke_viiiii
20:invoke_iiidi
21:invoke_vii
22:invoke_viidi
23:invoke_diii
24:invoke_viji
25:invoke_viiiiiiii
26:invoke_viiiiiii
27:invoke_viiiiiiiii
28:invoke_iii
29:invoke_viii
30:invoke_v
31:invoke_vi
32:invoke_iiiiiiiiiii
33:invoke_ii
34:invoke_fifffi
35:invoke_iiifi
36:invoke_iiii
37:invoke_i
38:_emscripten_glGetTexParameterfv
39:_glClearStencil
40:___syscall220
41:_emscripten_glBlendFuncSeparate
42:_glTexParameteriv
43:_glUniformMatrix4fv
44:_glVertexAttrib4f
45:_emscripten_glDepthFunc
46:_emscripten_webgl_create_context
47:_pthread_key_delete
48:_glDisableVertexAttribArray
49:_emscripten_memcpy_big
50:_pthread_attr_init
51:_emscripten_glUniform1f
52:___syscall221
53:_glInvalidateFramebuffer
54:_emscripten_glVertexAttrib2f
55:_emscripten_glUniform1i
56:_emscripten_glGetIntegerv
57:_emscripten_glIsProgram
58:_glGenSamplers
59:_emscripten_webgl_make_context_current
60:_glEndTransformFeedback
61:_glFramebufferRenderbuffer
62:___cxa_rethrow
63:_emscripten_glTexParameteriv
64:___syscall140
65:___syscall145
66:___syscall146
67:_glUniform1uiv
68:_emscripten_glAttachShader
69:_JS_WebRequest_GetStatusLine
70:_pthread_cond_timedwait
71:_emscripten_glTexParameterfv
72:_pthread_attr_destroy
73:_emscripten_glUniformMatrix2fv
74:_emscripten_glDrawArraysInstanced
75:_glVertexAttribIPointer
76:_glDepthMask
77:_emscripten_glVertexAttrib2fv
78:_glViewport
79:_emscripten_glFlush
80:_glBufferData
81:___syscall91
82:_pthread_once
83:_glDrawArraysInstanced
84:_JS_Sound_SetListenerOrientation
85:_emscripten_glGetAttribLocation
86:_glBeginQuery
87:_glAttachShader
88:_emscripten_glTexCoordPointer
89:_emscripten_set_blur_callback
90:_emscripten_glLoadMatrixf
91:_emscripten_glStencilFuncSeparate
92:_emscripten_glVertexAttrib3f
93:_emscripten_webgl_enable_extension
94:_glCullFace
95:_emscripten_get_gamepad_status
96:_glCompressedTexImage2D
97:_emscripten_glUniform1iv
98:_glClearColor
99:_glFinish
100:_emscripten_glUniform3iv
101:_emscripten_glGetBufferParameteriv
102:_emscripten_glVertexAttrib4fv
103:_glGetTexParameteriv
104:_pthread_getspecific
105:_glDrawArrays
106:_glGetError
107:_emscripten_glDepthRange
108:_glActiveTexture
109:_emscripten_asm_const_iii
110:_emscripten_glCopyTexImage2D
111:_emscripten_glFramebufferTexture2D
112:_glEnableVertexAttribArray
113:_emscripten_glStencilFunc
114:_glBindVertexArray
115:___syscall183
116:_glDeleteBuffers
117:_localtime
118:_glGetUniformBlockIndex
119:_glGetActiveUniformBlockName
120:_glRenderbufferStorageMultisample
121:_glCompressedTexSubImage2D
122:_emscripten_glRenderbufferStorage
123:_emscripten_set_keydown_callback
124:_emscripten_glVertexPointer
125:_JS_SystemInfo_GetHeight
126:_emscripten_glBufferSubData
127:_emscripten_glGetUniformfv
128:_glFramebufferTextureLayer
129:_glDeleteQueries
130:_emscripten_glStencilOp
131:_emscripten_glBlendEquation
132:_glTexImage3D
133:_emscripten_glVertexAttrib1fv
134:_emscripten_glDeleteBuffers
135:_glLinkProgram
136:_emscripten_glGetProgramInfoLog
137:_emscripten_glUniform4fv
138:___cxa_throw
139:_JS_SystemInfo_GetCurrentCanvasWidth
140:_glUniform1iv
141:_emscripten_glUniform2fv
142:_emscripten_glBindBuffer
143:_emscripten_glGetFloatv
144:_pthread_mutex_init
145:_glBlendEquationSeparate
146:_glTexSubImage2D
147:_glUseProgram
148:_glUniformMatrix3fv
149:_emscripten_glCullFace
150:_glBindTransformFeedback
151:_emscripten_glStencilMaskSeparate
152:_emscripten_glUniform3fv
153:_glBindBuffer
154:_emscripten_request_fullscreen
155:_JS_Sound_Play
156:_emscripten_glDisableVertexAttribArray
157:_glPolygonOffset
158:_emscripten_webgl_get_current_context
159:_emscripten_set_touchstart_callback
160:_JS_Sound_SetListenerPosition
161:_emscripten_glGetBooleanv
162:_glProgramBinary
163:_emscripten_glVertexAttribDivisor
164:_JS_Eval_SetTimeout
165:_glDrawElementsInstanced
166:_emscripten_glDeleteObjectARB
167:_emscripten_glUniform4f
168:_emscripten_glGetShaderPrecisionFormat
169:_JS_SystemInfo_GetLanguage
170:_emscripten_glIsEnabled
171:_JS_SystemInfo_HasFullscreen
172:_emscripten_glStencilOpSeparate
173:_JS_Sound_Set3D
174:_pthread_cleanup_pop
175:_glGenerateMipmap
176:_JS_Sound_SetPosition
177:___syscall122
178:___cxa_free_exception
179:_JS_SystemInfo_HasCursorLock
180:_emscripten_glClear
181:_glDrawElements
182:_JS_WebRequest_Send
183:_emscripten_glValidateProgram
184:_emscripten_glUniform4iv
185:___setErrNo
186:_glStencilOpSeparate
187:_JS_WebRequest_Abort
188:___resumeException
189:_mktime
190:_emscripten_glGetError
191:_emscripten_glBufferData
192:_emscripten_glStencilMask
193:_glGenTextures
194:_glGetIntegerv
195:_glUniform3iv
196:_emscripten_glClearStencil
197:_JS_Sound_Stop
198:_emscripten_set_mouseup_callback
199:_emscripten_glFinish
200:_emscripten_glClearDepth
201:_emscripten_glUniform1fv
202:_glBindFramebuffer
203:_glValidateProgram
204:_glGenFramebuffers
205:_emscripten_glUniform4i
206:_glUniform1fv
207:_glDeleteFramebuffers
208:_JS_FileSystem_Sync
209:_glCheckFramebufferStatus
210:_emscripten_glBlendFunc
211:_emscripten_glCreateShader
212:_glGetProgramBinary
213:___syscall192
214:_glProgramParameteri
215:_glBindTexture
216:_strftime
217:_emscripten_glGetVertexAttribiv
218:_glReadPixels
219:_glGetActiveAttrib
220:_emscripten_glUniformMatrix3fv
221:_glUniform2iv
222:___syscall33
223:_pthread_key_create
224:_emscripten_glDeleteFramebuffers
225:___syscall39
226:___syscall38
227:_getpwuid
228:_glFrontFace
229:_emscripten_glGetObjectParameterivARB
230:_glGetUniformiv
231:_JS_SystemInfo_HasWebGL
232:_emscripten_glGetUniformiv
233:_glGetActiveUniformBlockiv
234:_glGetProgramiv
235:___syscall168
236:_glScissor
237:_emscripten_glClearColor
238:_glGetFramebufferAttachmentParameteriv
239:___cxa_find_matching_catch_4
240:_emscripten_set_mousemove_callback
241:_glBlitFramebuffer
242:___cxa_find_matching_catch_2
243:___cxa_find_matching_catch_3
244:_emscripten_glDeleteTextures
245:_emscripten_exit_fullscreen
246:_glGetShaderiv
247:_llvm_eh_typeid_for
248:_glBindBufferBase
249:_glUniform4fv
250:_glTexSubImage3D
251:_glBindAttribLocation
252:_emscripten_glColorMask
253:_emscripten_webgl_destroy_context
254:_emscripten_glBindTexture
255:_glDeleteSamplers
256:_glUniform4iv
257:_emscripten_set_main_loop
258:_glUniformBlockBinding
259:_emscripten_glIsShader
260:_emscripten_glCompressedTexImage2D
261:_glDisable
262:_emscripten_glGetInfoLogARB
263:_emscripten_longjmp
264:_atexit
265:_glFenceSync
266:_glStencilFuncSeparate
267:_JS_Sound_ReleaseInstance
268:_emscripten_glGenRenderbuffers
269:_JS_SystemInfo_GetCurrentCanvasHeight
270:_JS_WebRequest_GetResponseHeaders
271:_emscripten_glReleaseShaderCompiler
272:__ZN4FMOD13DSPConnection6setMixEf
273:_flock
274:_glUniform2fv
275:_emscripten_glFrontFace
276:_glDeleteProgram
277:_glBlendEquation
278:_emscripten_glUseProgram
279:_glCreateProgram
280:_emscripten_set_touchmove_callback
281:_glGetAttribLocation
282:_glCreateShader
283:_emscripten_glReadPixels
284:_sysconf
285:_utime
286:_glEndQuery
287:_pthread_mutexattr_settype
288:_glTexStorage2D
289:_glGenBuffers
290:_glShaderSource
291:_emscripten_glScissor
292:_glUniform3uiv
293:_pthread_cleanup_push
294:_llvm_trap
295:_JS_Sound_SetVolume
296:_JS_Cursor_SetShow
297:_glPixelStorei
298:_emscripten_glIsBuffer
299:_emscripten_glVertexAttrib1f
300:_emscripten_set_keyup_callback
301:_emscripten_glCompressedTexSubImage2D
302:_glSamplerParameteri
303:_glBindSampler
304:_JS_WebRequest_Release
305:_emscripten_get_main_loop_timing
306:_glGetVertexAttribiv
307:_JS_Log_Dump
308:_emscripten_glGetAttachedShaders
309:_emscripten_glGenTextures
310:_glBindRenderbuffer
311:_pthread_cond_init
312:_gmtime
313:_emscripten_glGetTexParameteriv
314:_glDeleteTextures
315:_emscripten_set_mousedown_callback
316:_emscripten_glClientActiveTexture
317:_emscripten_glCheckFramebufferStatus
318:_emscripten_glUniform3f
319:_emscripten_glUniform3i
320:_glDrawBuffers
321:_emscripten_glDeleteShader
322:_glEnable
323:_glUnmapBuffer
324:_glGetString
325:_emscripten_glGetUniformLocation
326:_emscripten_glEnableVertexAttribArray
327:_emscripten_get_now
328:_emscripten_glGenFramebuffers
329:_gettimeofday
330:_emscripten_glEnableClientState
331:_JS_Sound_Init
332:_emscripten_glDrawElements
333:_emscripten_get_num_gamepads
334:_glClearDepthf
335:_glIsEnabled
336:_emscripten_glDisable
337:___cxa_end_catch
338:_emscripten_glDeleteRenderbuffers
339:_emscripten_glDrawElementsInstanced
340:_emscripten_glVertexAttrib4f
341:_JS_Sound_Create_Channel
342:_emscripten_glPixelStorei
343:_glCopyBufferSubData
344:_emscripten_webgl_init_context_attributes
345:_emscripten_glFramebufferRenderbuffer
346:_glReadBuffer
347:_emscripten_glRotatef
348:_emscripten_glGetShaderiv
349:_JS_Eval_ClearTimeout
350:___cxa_pure_virtual
351:_emscripten_glUniformMatrix4fv
352:_emscripten_glGetPointerv
353:_pthread_cond_wait
354:_clock
355:_emscripten_glIsRenderbuffer
356:_emscripten_request_pointerlock
357:___syscall40
358:_difftime
359:___syscall42
360:_emscripten_set_touchcancel_callback
361:_glDeleteRenderbuffers
362:_glGetShaderPrecisionFormat
363:_JS_SystemInfo_GetMemory
364:_JS_Sound_SetLoop
365:_JS_WebRequest_SetResponseHandler
366:_emscripten_set_focus_callback
367:_pthread_mutexattr_destroy
368:_emscripten_glGetVertexAttribfv
369:_emscripten_glVertexAttrib3fv
370:_glGetUniformLocation
371:_emscripten_glCompileShader
372:_glClear
373:_glBeginTransformFeedback
374:_emscripten_glLinkProgram
375:_JS_WebRequest_Create
376:_emscripten_get_pointerlock_status
377:_emscripten_glDrawRangeElements
378:___unlock
379:_pthread_create
380:_glGetActiveUniformsiv
381:_pthread_setspecific
382:_glColorMask
383:_emscripten_glGenBuffers
384:_glCopyTexSubImage2D
385:_emscripten_glCreateProgram
386:_JS_WebRequest_SetProgressHandler
387:_glTexParameteri
388:_pthread_cond_destroy
389:_emscripten_glDetachShader
390:_glTexParameterf
391:_setenv
392:_glGenQueries
393:_emscripten_glGetRenderbufferParameteriv
394:_emscripten_set_fullscreenchange_callback
395:_emscripten_glVertexAttribPointer
396:_glTexStorage3D
397:_glIsVertexArray
398:_JS_SystemInfo_GetBrowserName
399:_emscripten_glDrawArrays
400:_emscripten_glPolygonOffset
401:_longjmp
402:_emscripten_glBlendColor
403:_glGetShaderInfoLog
404:_emscripten_set_main_loop_timing
405:___cxa_begin_catch
406:_emscripten_glGetProgramiv
407:_glDeleteSync
408:_emscripten_glGetShaderSource
409:_emscripten_glTexImage2D
410:_glRenderbufferStorage
411:_JS_Sound_GetLength
412:_emscripten_glBlendEquationSeparate
413:_emscripten_glGetString
414:_emscripten_glIsFramebuffer
415:_glUniform2uiv
416:_unsetenv
417:_emscripten_glBindProgramARB
418:_JS_Sound_SetLoopPoints
419:_pthread_detach
420:_emscripten_set_devicemotion_callback
421:___syscall85
422:_emscripten_glUniform2i
423:_emscripten_glUniform2f
424:_glGenTransformFeedbacks
425:_JS_SystemInfo_GetWidth
426:_glGetProgramInfoLog
427:_emscripten_glTexParameterf
428:_emscripten_glTexParameteri
429:_JS_Sound_Load
430:_JS_Sound_Load_PCM
431:_emscripten_glGenVertexArrays
432:_glDeleteVertexArrays
433:_glGetStringi
434:_emscripten_glBindAttribLocation
435:_glDepthFunc
436:___cxa_allocate_exception
437:_emscripten_set_canvas_size
438:_emscripten_glClearDepthf
439:_JS_SystemInfo_GetDocumentURL
440:_emscripten_glMatrixMode
441:_glBlendFuncSeparate
442:___syscall10
443:_emscripten_glNormalPointer
444:_emscripten_glHint
445:_emscripten_glEnable
446:___syscall3
447:___lock
448:_emscripten_glBindFramebuffer
449:___syscall6
450:___syscall5
451:___syscall4
452:_emscripten_glBindRenderbuffer
453:_time
454:_emscripten_glGetFramebufferAttachmentParameteriv
455:_exit
456:_emscripten_glGetActiveAttrib
457:___syscall268
458:_emscripten_set_keypress_callback
459:_JS_SystemInfo_GetOS
460:_glMapBufferRange
461:_JS_SystemInfo_GetBrowserVersionString
462:_glGetIntegeri_v
463:_glFramebufferTexture2D
464:_JS_Cursor_SetImage
465:_emscripten_glShaderBinary
466:_emscripten_glGetShaderInfoLog
467:_glUniform3fv
468:_emscripten_glGetVertexAttribPointerv
469:_glClientWaitSync
470:_JS_FileSystem_SetSyncInterval
471:_emscripten_set_deviceorientation_callback
472:___syscall193
473:_emscripten_glGetActiveUniform
474:___syscall197
475:___syscall196
476:___syscall195
477:___syscall194
478:___syscall199
479:_emscripten_glDeleteProgram
480:_glUniform1i
481:_glFlushMappedBufferRange
482:_emscripten_glTexSubImage2D
483:_pthread_mutex_destroy
484:_emscripten_glColorPointer
485:_glVertexAttribPointer
486:_glTransformFeedbackVaryings
487:_glGetShaderSource
488:_emscripten_glViewport
489:_emscripten_glDepthMask
490:_emscripten_glDrawBuffers
491:_emscripten_glLineWidth
492:_glCompileShader
493:_emscripten_exit_pointerlock
494:_JS_WebRequest_SetRequestHeader
495:_abort
496:_JS_Sound_GetLoadState
497:_glTexImage2D
498:_glUniform4uiv
499:_glFlush
500:_emscripten_glLoadIdentity
501:_glDeleteShader
502:_emscripten_glShaderSource
503:_glGenVertexArrays
504:_emscripten_get_fullscreen_status
505:_emscripten_set_touchend_callback
506:_pthread_cond_signal
507:_glGenRenderbuffers
508:_emscripten_glSampleCoverage
509:_emscripten_glFrustum
510:_emscripten_glDepthRangef
511:_JS_Sound_SetPitch
512:_emscripten_glGenerateMipmap
513:_glCopyTexImage2D
514:_emscripten_glIsTexture
515:_glCompressedTexSubImage3D
516:_emscripten_glBindVertexArray
517:_emscripten_glActiveTexture
518:_emscripten_set_wheel_callback
519:_emscripten_glDeleteVertexArrays
520:___syscall54
521:_glDeleteTransformFeedbacks
522:_emscripten_glUniform2iv
523:_pthread_mutexattr_init
524:_glBufferSubData
525:_getenv
526:_SDL_GL_SwapBuffers
527:_emscripten_glCopyTexSubImage2D
528:_glGetInternalformativ
529:_glGetActiveUniform
530:_glStencilMask
531:f64-to-int
532:legalimport$invoke_jii
533:legalimport$invoke_iiiji
534:legalimport$invoke_ji
535:legalimport$invoke_viiiji
536:legalimport$invoke_vijii
537:legalimport$invoke_jijii
538:legalimport$invoke_viji
539:legalimport$_glClientWaitSync
540:stackAlloc
541:stackSave
542:stackRestore
543:establishStackSpace
544:setThrew
545:setTempRet0
546:getTempRet0
547:__ZN6Object17MainThreadCleanupEv
548:__ZN6Object39ShouldIgnoreInGarbageDependencyTrackingEv
549:__ZN6Object12SetHideFlagsENS_9HideFlagsE
550:__ZN6Object23VirtualRedirectTransferER18StreamedBinaryReadILb1EE
551:__ZNK9Behaviour10HasEnabledEv
552:__ZNK9Behaviour10GetEnabledEv
553:__ZNSt3__213__tree_removeIPNS_16__tree_node_baseIPvEEEEvT_S5_
554:__ZNK15dense_hashtableINSt3__24pairIKiP6ObjectEEi21InstanceIDHashFunctorN14dense_hash_mapIiS4_S6_NS0_8equal_toIiEE13stl_allocatorIS5_L18MemLabelIdentifier65ELi16EEE9SelectKeyES9_SC_E13find_positionERS2_
555:__ZN15EditorExtensionD2Ev
556:__ZN15EditorExtensionD0Ev
557:__ZNK15EditorExtension26GetTypeInfoVirtualInternalEv
558:__ZNK6Object7GetNameEv
559:__ZN8Vector3f8TransferI14SafeBinaryReadEEvRT_
560:__ZN4PPtrI9TransformE8TransferI14SafeBinaryReadEEvRT_
561:__ZN4PPtrI9TransformE8TransferI18StreamedBinaryReadILb0EEEEvRT_
562:__ZN4PPtrI9TransformE8TransferI19StreamedBinaryWriteILb0EEEEvRT_
563:__ZNK11NamedObject7GetNameEv
564:__ZN4AABB8TransferI14SafeBinaryReadEEvRT_
565:__ZN11Quaternionf8TransferI14SafeBinaryReadEEvRT_
566:__ZN14SafeBinaryRead8TransferIhEEvRT_PKc17TransferMetaFlags
567:__ZN14SafeBinaryRead21TransferSTLStyleArrayI13dynamic_arrayI8Vector3fLj4EEEEvRT_17TransferMetaFlags
568:__ZN14SafeBinaryRead21TransferSTLStyleArrayI13dynamic_arrayIiLj4EEEEvRT_17TransferMetaFlags
569:__ZN14SafeBinaryRead21TransferSTLStyleArrayI13dynamic_arrayIhLj1EEEEvRT_17TransferMetaFlags
570:__ZN7Hash1288TransferI14SafeBinaryReadEEvRT_
571:__ZN24GenerateTypeTreeTransfer8TransferI8Vector3fEEvRT_PKc17TransferMetaFlags
572:__ZN11Quaternionf8TransferI24GenerateTypeTreeTransferEEvRT_
573:__ZN7Hash1288TransferI24GenerateTypeTreeTransferEEvRT_
574:__ZN18StreamedBinaryReadILb0EE21TransferSTLStyleArrayI13dynamic_arrayIhLj1EEEEvRT_17TransferMetaFlags
575:__ZN7Hash1288TransferI18StreamedBinaryReadILb0EEEEvRT_
576:__ZN4AABB8TransferI18StreamedBinaryReadILb0EEEEvRT_
577:__ZN18StreamedBinaryReadILb0EE8TransferI11QuaternionfEEvRT_PKc17TransferMetaFlags
578:__ZN18StreamedBinaryReadILb0EE21TransferSTLStyleArrayI13dynamic_arrayI8Vector3fLj4EEEEvRT_17TransferMetaFlags
579:__ZN18StreamedBinaryReadILb0EE21TransferSTLStyleArrayI13dynamic_arrayIiLj4EEEEvRT_17TransferMetaFlags
580:__ZN4AABB8TransferI19StreamedBinaryWriteILb0EEEEvRT_
581:__ZN19StreamedBinaryWriteILb0EE8TransferI11QuaternionfEEvRT_PKc17TransferMetaFlags
582:__ZN7Hash1288TransferI19StreamedBinaryWriteILb0EEEEvRT_
583:__ZN4core20StringStorageDefaultIcE6assignEPKcj
584:i32s-div
585:__ZN14SafeBinaryRead21TransferSTLStyleArrayINSt3__26vectorIN4core12basic_stringIcNS3_20StringStorageDefaultIcEEEENS1_9allocatorIS7_EEEEEEvRT_17TransferMetaFlags
586:__ZNSt3__26vectorIN4core12basic_stringIcNS1_20StringStorageDefaultIcEEEENS_9allocatorIS5_EEE8__appendEj
587:__Z14resize_trimmedINSt3__26vectorIN4core12basic_stringIcNS2_20StringStorageDefaultIcEEEENS0_9allocatorIS6_EEEEEvRT_j
588:__ZN14SafeBinaryRead21TransferSTLStyleArrayIN4core12basic_stringIcNS1_20StringStorageDefaultIcEEEEEEvRT_17TransferMetaFlags
589:__ZN4core20StringStorageDefaultIcE10reallocateEj
590:__ZN14SafeBinaryRead8TransferIcEEvRT_PKc17TransferMetaFlags
591:__ZNSt3__26vectorIN4core12basic_stringIcNS1_20StringStorageDefaultIcEEEENS_9allocatorIS5_EEE7reserveEj
592:__ZNSt3__26vectorIN4core12basic_stringIcNS1_20StringStorageDefaultIcEEEENS_9allocatorIS5_EEE6assignINS_11__wrap_iterIPS5_EEEENS_9enable_ifIXaasr21__is_forward_iteratorIT_EE5valuesr16is_constructibleIS5_NS_15iterator_traitsISE_E9referenceEEE5valueEvE4typeESE_SE_
593:__ZN18StreamedBinaryReadILb0EE21TransferSTLStyleArrayIN4core12basic_stringIcNS2_20StringStorageDefaultIcEEEEEEvRT_17TransferMetaFlags
594:__ZN19StreamedBinaryWriteILb0EE21TransferSTLStyleArrayIN4core12basic_stringIcNS2_20StringStorageDefaultIcEEEEEEvRT_17TransferMetaFlags
595:__ZNK16LevelGameManager7GetNameEv
596:__ZN13dynamic_arrayIhLj1EE18resize_initializedEjRKh12ResizePolicy
597:__ZN13dynamic_arrayIiLj4EE18resize_initializedEjRKi12ResizePolicy
598:__ZN13dynamic_arrayI8Vector3fLj4EE9push_backERKS0_
599:__ZNSt3__26vectorIN4core12basic_stringIcNS1_20StringStorageDefaultIcEEEENS_9allocatorIS5_EEE21__push_back_slow_pathIKS5_EEvRT_
600:__ZNK14AsyncOperation7ReleaseEv
601:__ZNSt3__227__tree_balance_after_insertIPNS_16__tree_node_baseIPvEEEEvT_S5_
602:__ZN4coreplERKNS_12basic_stringIcNS_20StringStorageDefaultIcEEEEPKc
603:__ZN13dynamic_arrayIPN11UnityEngine9Animation23CachedComponentBindingsELj4EE18resize_initializedEjRKS3_12ResizePolicy
604:__ZN14SafeBinaryRead21TransferSTLStyleArrayI13dynamic_arrayI4PPtrI6ObjectELj4EEEEvRT_17TransferMetaFlags
605:__ZN17AnimationCurveTplIfE8TransferI14SafeBinaryReadEEvRT_
606:__ZN14SafeBinaryRead21TransferSTLStyleArrayI13dynamic_arrayI11KeyframeTplIfELj4EEEEvRT_17TransferMetaFlags
607:__Z32TransferEnumWithNameForceIntSizeI14SafeBinaryRead16InternalWrapModeEvRT_RT0_PKc17TransferMetaFlags
608:__ZN15SerializeTraitsI13dynamic_arrayI11KeyframeTplIfELj4EEE19ResizeSTLStyleArrayERS3_i18MemLabelIdentifier
609:__ZN15SerializeTraitsI11KeyframeTplIfEE8TransferI14SafeBinaryReadEEvRS1_RT_
610:__ZN15PackedIntVector8TransferI14SafeBinaryReadEEvRT_
611:__ZN17PackedFloatVector8TransferI14SafeBinaryReadEEvRT_
612:__ZN17AnimationCurveTplIfE8TransferI24GenerateTypeTreeTransferEEvRT_
613:__ZN11KeyframeTplIfE8TransferI24GenerateTypeTreeTransferEEvRT_
614:__ZN24GenerateTypeTreeTransfer8TransferI15PackedIntVectorEEvRT_PKc17TransferMetaFlags
615:__ZN17PackedFloatVector8TransferI24GenerateTypeTreeTransferEEvRT_
616:__ZN18StreamedBinaryReadILb0EE21TransferSTLStyleArrayI13dynamic_arrayI4PPtrI6ObjectELj4EEEEvRT_17TransferMetaFlags
617:__ZN17AnimationCurveTplIfE8TransferI18StreamedBinaryReadILb0EEEEvRT_
618:__ZN17PackedFloatVector8TransferI18StreamedBinaryReadILb0EEEEvRT_
619:__ZN17AnimationCurveTplIfE8TransferI19StreamedBinaryWriteILb0EEEEvRT_
620:__ZN11KeyframeTplIfE8TransferI19StreamedBinaryWriteILb0EEEEvRT_
621:__ZN15PackedIntVector8TransferI19StreamedBinaryWriteILb0EEEEvRT_
622:__ZN17PackedFloatVector8TransferI19StreamedBinaryWriteILb0EEEEvRT_
623:__ZN14SafeBinaryRead21TransferSTLStyleArrayI13dynamic_arrayIjLj4EEEEvRT_17TransferMetaFlags
624:__ZN8Vector2f8TransferI14SafeBinaryReadEEvRT_
625:__GLOBAL__sub_I_runtime_animation_lump_cpp
626:__GLOBAL__sub_I_runtime_animation2_lump_cpp
627:__GLOBAL__sub_I_runtime_animation3_lump_cpp
628:__ZN11UnityEngine9Animation38InitializeGenericAnimationBindingCacheEPv
629:__ZN11UnityEngine9Animation35CleanupGenericAnimationBindingCacheEPv
630:__ZN11UnityEngine9Animation28GenericAnimationBindingCacheD2Ev
631:__ZN11UnityEngine9Animation28GenericAnimationBindingCache15DidReloadDomainEv
632:__ZN7mecanim13crc32_table_tILj79764919EE10init_tableEv
633:__ZN11UnityEngine9Animation28GenericAnimationBindingCacheC2Ev
634:__ZN7mecanim9reflectorILj8EE7reflectEh
635:__ZN13RuntimeStaticI15AnimationBinderLb0EE16StaticInitializeEPv
636:__ZN13RuntimeStaticI15AnimationBinderLb0EE13StaticDestroyEPv
637:__ZN15AnimationBinderD2Ev
638:__ZNSt3__26__treeINS_12__value_typeIPKN5Unity4TypeEPK8TypeTreeEENS_19__map_value_compareIS5_S9_NS_4lessIS5_EELb1EEENS_9allocatorIS9_EEE7destroyEPNS_11__tree_nodeIS9_PvEE
639:__ZN4coreplEPKcRKNS_12basic_stringIcNS_20StringStorageDefaultIcEEEE
640:__ZNSt3__26vectorIN4core12basic_stringIcNS1_20StringStorageDefaultIcEEEENS_9allocatorIS5_EEEC2ERKS8_
641:__ZN4coreplERKNS_12basic_stringIcNS_20StringStorageDefaultIcEEEES5_
642:__Z23CalculateGlobalPosition23TransformAccessReadOnly
643:__Z23CalculateGlobalRotation23TransformAccessReadOnly
644:__Z17CalculateGlobalSM23TransformAccessReadOnlyRKN4math7_float4E
645:__Z20SetGlobalMatrixLossy15TransformAccessRKN4math7_float3ERKNS0_7_float4ERKNS0_8float3x3E
646:__Z35InverseTransformPositionAndRotationRK23TransformAccessReadOnlyRKN4math7_float3ERKNS2_7_float4E
647:__Z10SetLocalTR15TransformAccessRKN4math7_float3ERKNS0_7_float4E
648:__Z24CalculateGlobalRSInverse23TransformAccessReadOnly
649:__Z17CalculateGlobalRS23TransformAccessReadOnly
650:__ZNSt3__26vectorIN4core12basic_stringIcNS1_20StringStorageDefaultIcEEEE13stl_allocatorIS5_L18MemLabelIdentifier1ELi16EEE21__push_back_slow_pathIKS5_EEvRT_
651:__ZNSt3__26vectorIiNS_9allocatorIiEEE6insertENS_11__wrap_iterIPKiEERS5_
652:__ZN4FMOD3DSP9setBypassEb
653:__Z15GetAudioManagerv
654:__ZN4FMOD6System15createDSPByTypeE13FMOD_DSP_TYPEPPNS_3DSPE
655:__ZN10ObjectPoolIN4FMOD3DSPENS0_4DSPIEE7GetFreeEi
656:__ZN4FMOD3DSP12setParameterEif
657:__ZN4FMOD3DSP7releaseEv
658:__ZN10SampleClipD2Ev
659:__ZN10SampleClipD0Ev
660:__ZN10SampleClip17MainThreadCleanupEv
661:__ZNK10SampleClip26GetTypeInfoVirtualInternalEv
662:__ZN10SampleClip23VirtualRedirectTransferER19StreamedBinaryWriteILb0EE
663:__ZN10SampleClip23VirtualRedirectTransferER18StreamedBinaryReadILb0EE
664:__ZN10SampleClip23VirtualRedirectTransferER17RemapPPtrTransfer
665:__ZN10SampleClip23VirtualRedirectTransferER24GenerateTypeTreeTransfer
666:__ZN10SampleClip23VirtualRedirectTransferER14SafeBinaryRead
667:__ZNK10SampleClip12GetLoadStateEv
668:__ZNK14SoundHandleAPI12GetLoadStateEv
669:__ZN11SoundHandleD2Ev
670:__ZN12AudioManager15GetSoundManagerEv
671:__ZN9AudioClipD2Ev
672:__ZN9AudioClipD0Ev
673:__ZN9AudioClip17MainThreadCleanupEv
674:__ZN9AudioClip13AwakeFromLoadE17AwakeFromLoadMode
675:__ZN9AudioClip21AwakeFromLoadThreadedEv
676:__ZNK9AudioClip26GetTypeInfoVirtualInternalEv
677:__ZN9AudioClip23VirtualRedirectTransferER19StreamedBinaryWriteILb0EE
678:__ZN9AudioClip23VirtualRedirectTransferER18StreamedBinaryReadILb0EE
679:__ZN9AudioClip23VirtualRedirectTransferER17RemapPPtrTransfer
680:__ZN9AudioClip23VirtualRedirectTransferER24GenerateTypeTreeTransfer
681:__ZN9AudioClip23VirtualRedirectTransferER14SafeBinaryRead
682:__ZN9AudioClip8TransferI14SafeBinaryReadEEvRT_
683:__ZN9AudioClip8TransferI24GenerateTypeTreeTransferEEvRT_
684:__ZN9AudioClip8TransferI18StreamedBinaryReadILb0EEEEvRT_
685:__ZN9AudioClip8TransferI19StreamedBinaryWriteILb0EEEEvRT_
686:__ZNK10SampleClip17CalculateFMODModeEv
687:__Z13LoadFMODSoundPPN11SoundHandle8InstanceEPKcjP10SampleClipjjP22FMOD_CREATESOUNDEXINFO
688:__ZN11SoundHandle8InstanceC2Ev
689:__ZN4FMOD6System11createSoundEPKcjP22FMOD_CREATESOUNDEXINFOPPNS_5SoundE
690:__ZL16FMOD_ErrorString11FMOD_RESULT_468
691:__ZN11SoundHandle8InstanceD2Ev
692:__ZN20SoundChannelInstance4StopEv
693:__ZN4FMOD5Sound7releaseEv
694:__ZN4FMOD6SoundI7releaseEv
695:__ZN4FMOD8ChannelI11EndCallbackEv
696:__ZN11AudioSource25UnbindFromChannelInstanceERK7WeakPtrI20SoundChannelInstanceE
697:__ZN4FMOD7Channel4stopEv
698:__ZN12AudioManager16UnScheduleSourceEP11AudioSource
699:i32u-div
700:__ZN4FMOD7SystemI11createSoundEPKcjP22FMOD_CREATESOUNDEXINFOPPNS_5SoundE
701:__ZN10ObjectPoolIN4FMOD5SoundENS0_6SoundIEE7GetFreeEi
702:__ZN7WeakPtrIN11SoundHandle8InstanceEE10SharedDataD0Ev
703:__ZNK7WeakPtrIN11SoundHandle8InstanceEE10SharedData9GetRawPtrEv
704:__ZN9AudioClip9LoadSoundEv
705:__Z15GetSoundManagerv
706:__ZN12SoundManager18IntegrateFMODSoundEPN11SoundHandle8InstanceERK16StreamedResourcejiN17SoundHandleShared9LoadStateE
707:__ZN11SoundHandleaSERKS_
708:__ZN4FMOD5Sound11setUserDataEPv
709:__ZNK10SampleClip20GetCompressionFormatEv
710:__ZN4FMOD5Sound13setLoopPointsEjjjj
711:__ZN11SoundHandle7ReleaseEv
712:__ZN12SoundManager10UnloadClipEP10SampleClip
713:__ZN9AudioClip11CreateSoundEv
714:__ZN12AudioManager22CreateFMODSoundFromWWWEP10IWWWStream15FMOD_SOUND_TYPE17FMOD_SOUND_FORMATjjbbP10SampleClip
715:__ZN12SoundManager22GetHandleFromFMODSoundEPN11SoundHandle8InstanceEjP10SampleClip
716:__ZN12AudioManager24CreateFMODSoundFromMovieEP9AudioClip
717:__ZN9AudioClip21ScriptPCMReadCallbackEP10FMOD_SOUNDPvj
718:__ZN9AudioClip28ScriptPCMSetPositionCallbackEP10FMOD_SOUNDijj
719:__ZN12SoundManager19CreateSoundInternalEPKcjP22FMOD_CREATESOUNDEXINFOR11SoundHandlejP10SampleClip
720:__ZN10SampleClip13LoadBaseSoundEv
721:__ZN11SoundHandleC2ERKS_
722:__ZN12SoundManager9GetHandleERK16StreamedResourceijjP10SampleClipb
723:__ZN4FMOD5Sound11getUserDataEPPv
724:__Z31GetParentSampleClipFromInstancePN11SoundHandle8InstanceE
725:__ZN24AudioScriptBufferManager15GetPCMReadArrayEjR17ScriptingArrayPtr
726:__ZN24AudioScriptBufferManagerC2Ev
727:__ZN24AudioScriptBufferManager4InitEv
728:__ZN4FMOD6System16getDSPBufferSizeEPjPi
729:__ZN4FMOD6System17getSoftwareFormatEPiP17FMOD_SOUND_FORMATS1_S1_P18FMOD_DSP_RESAMPLERS1_
730:__ZN9AudioClip12moviepcmreadEP10FMOD_SOUNDPvj
731:__ZN9AudioClip18GetQueuedAudioDataEPPvj
732:__ZN9AudioClip7WWWOpenEPKciPjPPvS4_
733:__ZN9AudioClip8WWWCloseEPvS0_
734:__ZN9AudioClip7WWWReadEPvS0_jPjS0_
735:__ZN9AudioClip7WWWSeekEPvjS0_
736:__ZN11SoundHandleC2Ev
737:__ZNK10SampleClip11GetResourceEv
738:__ZN11SoundHandle8Instance7DisposeEv
739:__ZN17AudioCustomFilterD2Ev
740:__ZN17AudioCustomFilterD0Ev
741:__ZN17AudioCustomFilter7CleanupEv
742:__ZN11AudioSource4StopEb
743:__ZN4FMOD3DSP6removeEv
744:__ZN4FMOD3DSP11getUserDataEPPv
745:__ZN11AudioSource16CleanAudioSourceEb
746:__ZNK11AudioSource19GetFilterComponentsERNSt3__26vectorIPN4FMOD3DSPENS0_9allocatorIS4_EEEEb
747:__ZN12AudioManager17RemoveAudioSourceEP11AudioSource
748:__ZNSt3__26vectorIPN4FMOD3DSPENS_9allocatorIS3_EEE21__push_back_slow_pathIKS3_EEvRT_
749:__ZN13AudioListenerD2Ev
750:__ZN13AudioListenerD0Ev
751:__ZN13AudioListener13AwakeFromLoadE17AwakeFromLoadMode
752:__ZNK13AudioListener26GetTypeInfoVirtualInternalEv
753:__ZN13AudioListener23VirtualRedirectTransferER19StreamedBinaryWriteILb0EE
754:__ZN13AudioListener23VirtualRedirectTransferER18StreamedBinaryReadILb0EE
755:__ZN13AudioListener23VirtualRedirectTransferER17RemapPPtrTransfer
756:__ZN13AudioListener23VirtualRedirectTransferER24GenerateTypeTreeTransfer
757:__ZN13AudioListener23VirtualRedirectTransferER14SafeBinaryRead
758:__ZN13AudioListener6UpdateEv
759:__ZN13AudioListener11FixedUpdateEv
760:__ZN13AudioListener12AddToManagerEv
761:__ZN13AudioListener17RemoveFromManagerEv
762:__ZN13AudioListener12ApplyFiltersEv
763:__ZN13AudioListener8DoUpdateEv
764:__ZN4FMOD6System23set3DListenerAttributesEiPK11FMOD_VECTORS3_S3_S3_
765:__ZN11AudioFilter6GetDSPEv
766:__ZN4FMOD12ChannelGroup6addDSPEPNS_3DSPEPPNS_13DSPConnectionE
767:__ZN17AnimationCurveTplIfE6AssignEPK11KeyframeTplIfES4_
768:__ZN12AudioManagerD2Ev
769:__ZN12AudioManagerD0Ev
770:__ZN12AudioManager17MainThreadCleanupEv
771:__ZN12AudioManager13AwakeFromLoadE17AwakeFromLoadMode
772:__ZN12AudioManager16CheckConsistencyEv
773:__ZN12AudioManager5ResetEv
774:__ZNK12AudioManager26GetTypeInfoVirtualInternalEv
775:__ZN12AudioManager23VirtualRedirectTransferER19StreamedBinaryWriteILb0EE
776:__ZN12AudioManager23VirtualRedirectTransferER18StreamedBinaryReadILb0EE
777:__ZN12AudioManager23VirtualRedirectTransferER17RemapPPtrTransfer
778:__ZN12AudioManager23VirtualRedirectTransferER24GenerateTypeTreeTransfer
779:__ZN12AudioManager23VirtualRedirectTransferER14SafeBinaryRead
780:__ZN12AudioManager8TransferI14SafeBinaryReadEEvRT_
781:__ZN12AudioManager8TransferI24GenerateTypeTreeTransferEEvRT_
782:__ZN12AudioManager8TransferI18StreamedBinaryReadILb0EEEEvRT_
783:__ZN12AudioManager8TransferI19StreamedBinaryWriteILb0EEEEvRT_
784:__ZN12AudioManager8InitFMODEv
785:__ZN12AudioManager29ShutdownReinitializeAndReloadEv
786:__ZN11AudioSource31UpdateEffectVirtualizationStateEb
787:__ZN4FMOD12ChannelGroup9setVolumeEf
788:__ZN4FMOD6System13set3DSettingsEfff
789:__ZNK11AudioSource21AreAllChannelsVirtualEv
790:__ZN4FMOD3DSP9setActiveEb
791:__ZN20SoundChannelInstance9isVirtualEPb
792:__ZN4FMOD7Channel9isVirtualEPb
793:__ZN12AudioManager9CloseFMODEv
794:__ZN15AudioReverbZone4InitEv
795:__ZN12AudioManager39HandlePendingAudioConfigurationCallbackEv
796:__Z24GetAudioScriptingClassesv
797:__Z27GetAudioScriptingClassesPtrv
798:__ZL31InitializeAudioScriptingClassesv
799:__ZL28CleanupAudioScriptingClassesv
800:__ZN4FMOD6System12createReverbEPPNS_6ReverbE
801:__ZN4FMOD6Reverb9setActiveEb
802:__ZN12AudioManager21FixMasterGroupRoutingEv
803:__ZN15AudioReverbZone13SetFMODValuesEv
804:__ZN4FMOD6System6updateEv
805:__ZN4FMOD6Reverb15set3DAttributesEPK11FMOD_VECTORff
806:__ZN4FMOD6Reverb13setPropertiesEPK22FMOD_REVERB_PROPERTIES
807:__ZN4FMOD12ChannelGroup10getDSPHeadEPPNS_3DSPE
808:__ZN4FMOD3DSP9getOutputEiPPS0_PPNS_13DSPConnectionE
809:__ZN4FMOD3DSP8getInputEiPPS0_PPNS_13DSPConnectionE
810:__ZN4FMOD3DSP12getNumInputsEPi
811:__ZN4FMOD3DSP7getInfoEPcPjPiS3_S3_
812:__ZN4FMOD3DSP13disconnectAllEbb
813:__ZN4FMOD3DSP8addInputEPS0_PPNS_13DSPConnectionE
814:__ZN4FMOD3DSP9getBypassEPb
815:__ZN11AudioSource7CleanupEv
816:__ZN11AudioFilter7CleanupEv
817:__ZN15AudioReverbZone7CleanupEv
818:__ZN5audio5mixer23DestroyAudioMixerMemoryEPNS0_16AudioMixerMemoryERKNS0_18AudioMixerConstantEPN4FMOD6SystemERN7mecanim6memory9AllocatorE
819:__ZN4FMOD12ChannelGroup7releaseEv
820:__ZN4FMOD6System5closeEv
821:__ZN12SoundManagerD2Ev
822:__ZN12SoundManager20OnExitPlayModeStaticEv
823:__ZN12SoundManager6UpdateEv
824:__ZN4FMOD7Channel11setPositionEjj
825:__ZN11SoundHandle8Instance15UpdateLoadStateEv
826:__ZN4FMOD6System9playSoundE17FMOD_CHANNELINDEXPNS_5SoundEbPPNS_7ChannelE
827:__ZN20SoundChannelInstance14SetFMODChannelEPN4FMOD7ChannelE
828:__ZN20SoundChannelInstance15ParameterBuffer5ApplyEPN4FMOD7ChannelE
829:__ZN20SoundChannelInstance12UpdateVolumeEv
830:__ZN20SoundChannelInstance11UpdatePitchEv
831:__ZN20SoundChannelInstance16UpdatePauseStateEv
832:__ZN4FMOD7Channel9setPausedEb
833:__ZN4FMOD7Channel12setFrequencyEf
834:__ZN4FMOD7Channel9setVolumeEf
835:__ZN4FMOD8ChannelI9setVolumeEf
836:__ZN4FMOD7Channel7setMuteEb
837:__ZN4FMOD7Channel11setCallbackEPF11FMOD_RESULTP12FMOD_CHANNEL25FMOD_CHANNEL_CALLBACKTYPEPvS5_E
838:__ZN4FMOD7Channel7setModeEj
839:__ZN4FMOD7Channel15setChannelGroupEPNS_12ChannelGroupE
840:__ZN4FMOD7Channel11setPriorityEi
841:__ZN4FMOD7Channel19setReverbPropertiesEPK29FMOD_REVERB_CHANNELPROPERTIES
842:__ZN4FMOD7Channel8setDelayE14FMOD_DELAYTYPEjj
843:__ZN4FMOD7Channel6setPanEf
844:__ZN4FMOD7Channel15set3DAttributesEPK11FMOD_VECTORS3_
845:__ZN4FMOD7Channel20set3DConeOrientationEP11FMOD_VECTOR
846:__ZN4FMOD7Channel17set3DConeSettingsEfff
847:__ZN4FMOD7Channel17set3DDopplerLevelEf
848:__ZN4FMOD7Channel19set3DMinMaxDistanceEff
849:__ZN4FMOD7Channel13set3DPanLevelEf
850:__ZN4FMOD7Channel11set3DSpreadEf
851:__ZN4FMOD8ChannelI15set3DAttributesEPK11FMOD_VECTORS3_
852:__ZN4FMOD8ChannelI18UpdateDopplerPitchEv
853:__ZN4FMOD8ChannelI8setDelayE14FMOD_DELAYTYPEjj
854:__ZN4FMOD7Channel11setUserDataEPv
855:__ZN20SoundChannelInstance19FMODChannelCallbackEP12FMOD_CHANNEL25FMOD_CHANNEL_CALLBACKTYPEPvS3_
856:__ZN4FMOD7Channel12getFrequencyEPf
857:__ZN4FMOD7Channel11getUserDataEPPv
858:__ZN10SampleClip14ReleaseIfEqualE11SoundHandle
859:__ZN4FMOD7SystemI9playSoundE17FMOD_CHANNELINDEXPNS_5SoundEbPPNS_7ChannelE
860:i32s-rem
861:__ZN10ObjectPoolIN4FMOD7ChannelENS0_8ChannelIEE7GetFreeEi
862:__ZN4FMOD22FakeModChannelCallbackEPv
863:__ZN4FMOD5Sound12getOpenStateEP14FMOD_OPENSTATEPjPbS4_
864:__ZN4FMOD5Sound15getNumSubSoundsEPi
865:__ZN4FMOD5Sound11getSubSoundEiPPS0_
866:__ZN4FMOD8ChannelI11setPositionEjj
867:__ZN10SampleClip15UnloadAudioDataEv
868:__ZN9AudioClip6ReloadEv
869:__ZN12SoundManager20RegisterModifiedClipEP10SampleClip
870:__ZN4FMOD6Reverb7releaseEv
871:_FMOD_Memory_Initialize
872:_FMOD_System_Create
873:__ZN12AudioManager18ValidateFMODResultE11FMOD_RESULTPKc
874:__Z14FMOD_FILE_OpenPKciPjPPvS3_
875:__Z15FMOD_FILE_ClosePvS_
876:__Z14FMOD_FILE_ReadPvS_jPjS_
877:__Z14FMOD_FILE_SeekPvjS_
878:__ZN4FMOD6System13setFileSystemEPF11FMOD_RESULTPKciPjPPvS6_EPFS1_S5_S5_EPFS1_S5_S5_jS4_S5_EPFS1_S5_jS5_EPFS1_P18FMOD_ASYNCREADINFOS5_ESA_i
879:__ZN4FMOD6System10getVersionEPj
880:__ZN4FMOD6System19setStreamBufferSizeEjj
881:__ZN12AudioManager14systemCallbackEP11FMOD_SYSTEM24FMOD_SYSTEM_CALLBACKTYPEPvS3_
882:__ZN4FMOD6System11setCallbackEPF11FMOD_RESULTP11FMOD_SYSTEM24FMOD_SYSTEM_CALLBACKTYPEPvS5_E
883:__ZN11AudioSource15rolloffCallbackEP12FMOD_CHANNELf
884:__ZN4FMOD6System20set3DRolloffCallbackEPFfP12FMOD_CHANNELfE
885:__ZN12AudioManager10InitNormalEv
886:__ZN4FMOD6System7releaseEv
887:__ZN4FMOD6System21getMasterChannelGroupEPPNS_12ChannelGroupE
888:__ZN4FMOD6System11getDSPClockEPjS1_
889:__Z29AudioMasterDSPProcessCallbackP21UnityAudioEffectStatePfS1_jii
890:__ZN29AudioEffectInternalDefinitionC2EP26UnityAudioEffectDefinitionb
891:__ZN29AudioEffectInternalDefinition9CreateDSPEPN4FMOD6SystemEPvPfPP25UnityAudioSpatializerData
892:__ZN4FMOD6System18createChannelGroupEPKcPPNS_12ChannelGroupE
893:__ZN4FMOD12ChannelGroup8addGroupEPS0_
894:__ZN12SoundManagerC2Ev
895:__ZN10ObjectPoolIN4FMOD12ChannelGroupENS0_13ChannelGroupIEE7GetFreeEi
896:__ZN4FMOD6System9createDSPEP20FMOD_DSP_DESCRIPTIONPPNS_3DSPE
897:__ZN30AudioEffectInternalDescriptionC2EP26UnityAudioEffectDefinition
898:__ZL39UnityAudioEffect_InternalCreateCallbackP14FMOD_DSP_STATE
899:__ZL40UnityAudioEffect_InternalReleaseCallbackP14FMOD_DSP_STATE
900:__ZL38UnityAudioEffect_InternalResetCallbackP14FMOD_DSP_STATE
901:__ZL37UnityAudioEffect_InternalReadCallbackP14FMOD_DSP_STATEPfS1_jii
902:__ZL44UnityAudioEffect_InternalSetPositionCallbackP14FMOD_DSP_STATEj
903:__ZL50UnityAudioEffect_InternalSetFloatParameterCallbackP14FMOD_DSP_STATEif
904:__ZL50UnityAudioEffect_InternalGetFloatParameterCallbackP14FMOD_DSP_STATEiPfPc
905:__ZN4FMOD3DSP11setUserDataEPv
906:__ZN4FMOD6System13getNumDriversEPi
907:__ZN4FMOD6System9setOutputE15FMOD_OUTPUTTYPE
908:__ZN4FMOD6System9getDriverEPi
909:__ZN4FMOD6System13getDriverCapsEiPjPiP16FMOD_SPEAKERMODE
910:__ZN4FMOD6System14setSpeakerModeE16FMOD_SPEAKERMODE
911:__ZN4FMOD6System16setDSPBufferSizeEji
912:__ZN4FMOD6System17setSoftwareFormatEi17FMOD_SOUND_FORMATii18FMOD_DSP_RESAMPLER
913:__ZN4FMOD6System19setSoftwareChannelsEi
914:__ZN4FMOD6System4initEijPv
915:__ZN10ObjectPoolIN4FMOD7ChannelENS0_8ChannelIEE7SetSizeEi
916:__ZNK11AudioSource28CalculateDistanceAttenuationEv
917:__ZNK12AudioManager16GetAudioListenerEv
918:__ZN12AudioManager21SetActiveOutputDriverEP9FMOD_GUID
919:__ZN12SoundManager26OnCreateSoundPopAllocationEv
920:__ZN12SoundManager27OnCreateSoundPushAllocationEPv
921:__ZN4FMOD6System9setDriverEi
922:__ZN4FMOD6System13getDriverInfoEiPciP9FMOD_GUID
923:__ZN4FMOD7SystemIC2Ei
924:__ZN10ObjectPoolIN4FMOD12ChannelGroupENS0_13ChannelGroupIEE7SetSizeEi
925:__ZN10ObjectPoolIN4FMOD5SoundENS0_6SoundIEE7SetSizeEi
926:__ZN10ObjectPoolIN4FMOD3DSPENS0_4DSPIEE7SetSizeEi
927:__ZN29AudioEffectInternalDefinitionD2Ev
928:__ZN10AudioMixer18EnsureValidRuntimeEv
929:__ZN5audio5mixer22CreateAudioMixerMemoryERKNS0_18AudioMixerConstantEPN4FMOD6SystemERN7mecanim6memory9AllocatorEib
930:__ZN10AudioMixer14UpdateMuteSoloEv
931:__ZN5audio5mixer12UpdateBypassERNS0_18AudioMixerConstantERNS0_16AudioMixerMemoryE
932:__ZN5audio5mixer21SetResultingMuteStateERKNS0_18AudioMixerConstantERKNS0_16AudioMixerMemoryEib
933:__ZN10AudioMixer24ReassignAllChannelGroupsEv
934:__ZN10AudioMixer11SetupGroupsEv
935:__ZN5audio5mixer16FindChannelGroupERKNS0_18AudioMixerConstantERKNS0_16AudioMixerMemoryERK9UnityGUID
936:__ZN5audio5mixer17AssignOutputGroupERKNS0_18AudioMixerConstantERKNS0_16AudioMixerMemoryEPN4FMOD12ChannelGroupE
937:__ZN12AudioManager25RebindAudioSourcesToMixerEP10AudioMixer
938:__ZN11AudioSource19ConfigureFMODGroupsEv
939:__ZN10AudioMixer19GetFMODChannelGroupERK9UnityGUID
940:__ZN4FMOD12ChannelGroup14getParentGroupEPPS0_
941:__ZN11AudioSource12ApplyFiltersEv
942:__ZN4FMOD12ChannelGroup7setMuteEb
943:__Z32AudioMeasurement_GetTimeConstantff
944:__Z25GetAudioEffectDefinitionsPi
945:__Z29AudioMixerSendProcessCallbackP21UnityAudioEffectStatePfS1_jii
946:__Z32AudioMixerReceiveProcessCallbackP21UnityAudioEffectStatePfS1_jii
947:__Z31AudioMixerDuckingCreateCallbackP21UnityAudioEffectState
948:__Z32AudioMixerDuckingDestroyCallbackP21UnityAudioEffectState
949:__Z37AudioMixerDuckingSetParameterCallbackP21UnityAudioEffectStateif
950:__Z39AudioMixerDuckingGetFloatBufferCallbackP21UnityAudioEffectStatePKcPfi
951:__Z32AudioMixerDuckingProcessCallbackP21UnityAudioEffectStatePfS1_jii
952:__Z30AudioMixerFaderProcessCallbackP21UnityAudioEffectStatePfS1_jii
953:__ZN5audio5mixer22UpdateAudioMixerMemoryERKNS0_18AudioMixerConstantERNS0_16AudioMixerMemoryEfPN4FMOD6SystemEf
954:__ZN4FMOD12ChannelGroup19setAudibilityFactorEf
955:__ZN4FMOD12ChannelGroup8setPitchEf
956:__ZN5audio5mixerL19IsAnyChannelPlayingEPN4FMOD12ChannelGroupE
957:__ZN5audio5mixer12SetSuspendedERNS0_16AudioMixerMemoryEb
958:__ZN4FMOD3DSP9getActiveEPb
959:__ZN4FMOD3DSP15getSystemObjectEPPNS_6SystemE
960:__ZN4FMOD12ChannelGroup14getNumChannelsEPi
961:__ZN4FMOD12ChannelGroup10getChannelEiPPNS_7ChannelE
962:__ZN4FMOD7Channel9isPlayingEPb
963:__ZN4FMOD12ChannelGroup12getNumGroupsEPi
964:__ZN4FMOD12ChannelGroup8getGroupEiPPS0_
965:__ZN15SerializeTraitsI9UnityGUIDE8TransferI14SafeBinaryReadEEvRS0_RT_
966:__ZN9UnityGUID8TransferI24GenerateTypeTreeTransferEEvRT_
967:__GLOBAL__sub_I_runtime_video_lump_cpp
968:__ZL37StaticInitializeAudioSourceFilterRootPv
969:__ZL34StaticDestroyAudioSourceFilterRootPv
970:__ZL37StaticInitializeAudioCustomFilterRootPv
971:__ZL34StaticDestroyAudioCustomFilterRootPv
972:__ZN9UnityGUID8TransferI18StreamedBinaryReadILb0EEEEvRT_
973:__ZN11AudioSource16UpdateParametersE12SoundChannel
974:__ZN20SoundChannelInstance9isPlayingEPb
975:__ZN20SoundChannelInstance15set3DAttributesEPK11FMOD_VECTORS2_
976:__ZNK18AudioLowPassFilter26GetCustomLowpassLevelCurveEv
977:__ZN18AudioLowPassFilter26SetCutoffFrequencyInternalEf
978:__ZN11AudioSource21Update3DPanParametersE12SoundChannelf
979:__ZN11AudioSource19UpdateReverbZoneMixE12SoundChannelf
980:__ZN11AudioSource13UpdateDopplerE12SoundChannelfR8Vector3fS2_
981:__ZN11AudioSource17UpdateSpatializerE12SoundChannelf
982:__ZN11AudioSource9SetVolumeEf
983:__ZN11AudioSource28SetSpatializePostEffectsGainEf
984:__ZN20SoundChannelInstance19getReverbPropertiesEP29FMOD_REVERB_CHANNELPROPERTIES
985:__ZN20SoundChannelInstance19setReverbPropertiesEP29FMOD_REVERB_CHANNELPROPERTIES
986:__ZN4FMOD7Channel19getReverbPropertiesEP29FMOD_REVERB_CHANNELPROPERTIES
987:__ZN20SoundChannelInstance13set3DPanLevelEf
988:__ZN20SoundChannelInstance11set3DSpreadEf
989:__ZN20SoundChannelInstance6setPanEf
990:__ZN11AudioSource16UpdateParametersEv
991:__ZN11AudioSource16UpdatePauseStateEv
992:__ZN20SoundChannelInstance8setDelayE14FMOD_DELAYTYPEjj
993:__ZN12AudioManager17ShouldSourcePauseEb
994:__ZNK12AudioManager14GetRealDSPTimeEv
995:__ZN11AudioSource32CorrectScheduledTimeAfterUnpauseEy
996:__ZN20SoundChannelInstance8getDelayE14FMOD_DELAYTYPEPjS1_
997:__ZN7Texture7SetNameEPKc
998:__ZNK7Texture20GetUnscaledTextureIDEv
999:__ZNK7Texture11GetGPUWidthEv
1000:__ZNK7Texture12GetGPUHeightEv
1001:__ZNK7Texture16GetNpotTexelSizeEv
1002:__ZNK7Texture9HasMipMapEv
1003:__ZNK7Texture14GetMipmapCountEv
1004:__ZNK7Texture21GetShadowSamplingModeEv
1005:__ZN7Texture34UpdateFileTextureUploadInstructionEP28FileTextureUploadInstructionj
1006:__Z13RegisterClassI14AudioBehaviourEvv
1007:__ZN13ProduceHelperI14AudioBehaviourLb1EE7ProduceE18MemLabelIdentifier18ObjectCreationMode
1008:__ZN10SampleClipC2E18MemLabelIdentifier18ObjectCreationMode
1009:__ZN10SampleClip15InitializeClassEv
1010:__Z13RegisterClassI10SampleClipEvv
1011:__ZN13ProduceHelperI10SampleClipLb0EE7ProduceE18MemLabelIdentifier18ObjectCreationMode
1012:__ZN9AudioClipC2E18MemLabelIdentifier18ObjectCreationMode
1013:__ZN9AudioClip16EnableLegacyModeEv
1014:__ZN9AudioClip10InitStreamEP10IWWWStreamPKcP13MoviePlaybackbb15FMOD_SOUND_TYPE
1015:__Z7ToLowerIN4core12basic_stringIcNS0_20StringStorageDefaultIcEEEEET_RKS5_
1016:__ZN9AudioClip22GetFormatFromExtensionERKN4core12basic_stringIcNS0_20StringStorageDefaultIcEEEE
1017:__ZN9AudioClip16SetMoviePlaybackEP13MoviePlayback
1018:__ZN9AudioClip27IsFormatSupportedByPlatformERKN4core12basic_stringIcNS0_20StringStorageDefaultIcEEEE
1019:__Z13RegisterClassI9AudioClipEvv
1020:__ZN13ProduceHelperI9AudioClipLb0EE7ProduceE18MemLabelIdentifier18ObjectCreationMode
1021:__ZN17AudioCustomFilterC2EP13MonoBehaviour
1022:__ZN17AudioCustomFilter4InitEv
1023:__ZN17AudioCustomFilter14GetOrCreateDSPEv
1024:__ZN17AudioCustomFilter6GetDSPEv
1025:__ZN13AudioListener15InitializeClassEv
1026:__ZZN13AudioListener15InitializeClassEvEN31FunctorImpl_178kDidAddComponent4CallEPviR11MessageData
1027:__Z13RegisterClassI13AudioListenerEvv
1028:__ZN13ProduceHelperI13AudioListenerLb0EE7ProduceE18MemLabelIdentifier18ObjectCreationMode
1029:__ZN12AudioManagerC2E18MemLabelIdentifier18ObjectCreationMode
1030:__ZN12AudioManager15DidReloadDomainEv
1031:__ZN24AudioScriptBufferManager15DidReloadDomainEv
1032:__ZNK12AudioManager13GetNumDevicesEv
1033:__ZN12AudioManager26SetDefaultMicrophoneDriverEP9FMOD_GUID
1034:__ZN12AudioManager19SetApplicationPauseEb
1035:__ZN12AudioManager16SetListenerPauseEb
1036:__ZN12AudioManager23ProcessScheduledSourcesEv
1037:__ZN12AudioManager6UpdateEv
1038:__ZN10AudioMixer6UpdateEf
1039:__ZN12AudioManager11FixedUpdateEv
1040:__Z13RegisterClassI12AudioManagerEvv
1041:__ZN13ProduceHelperI12AudioManagerLb0EE7ProduceE18MemLabelIdentifier18ObjectCreationMode
1042:__ZZL31InitializeAudioManagerCallbacksvEN33FixedUpdateAudioFixedUpdatestruct7ForwardEv
1043:__ZZL31InitializeAudioManagerCallbacksvEN31PostLateUpdateUpdateAudiostruct7ForwardEv
1044:__ZZL31InitializeAudioManagerCallbacksvEN39PostLateUpdateUpdateVideoTexturesstruct7ForwardEv
1045:__ZN11AudioModule16SetListenerPauseEb
1046:__ZN11AudioModule19SetApplicationPauseEb
1047:__ZN11AudioModule11FixedUpdateEv
1048:__ZN11AudioModule6UpdateEv
1049:__ZN11AudioModule17StopVideoTexturesEv
1050:__ZN11AudioModule19UpdateVideoTexturesEv
1051:__ZN11AudioModule18PauseVideoTexturesEv
1052:__ZN11AudioModule20SuspendVideoTexturesEv
1053:__ZN11AudioModule19ResumeVideoTexturesEv
1054:__ZN11AudioModule22CreateAudioClipFromWWWEP10IWWWStreamPKcbbi
1055:__ZN11AudioModule27IsFormatSupportedByPlatformEPKc
1056:__ZN11AudioModule30GetOrCreateDSPFromCustomFilterEP17AudioCustomFilter
1057:__ZN11AudioModule23CreateAudioCustomFilterEP13MonoBehaviour
1058:__ZN11AudioModule23DeleteAudioCustomFilterEP17AudioCustomFilter
1059:__ZN11AudioModule27GetDSPFromAudioCustomFilterEP17AudioCustomFilter
1060:__ZN11AudioModule14SetBypassOnDSPEPN4FMOD3DSPEb
1061:__ZN11AudioModule25AudioManagerAwakeFromLoadE17AwakeFromLoadMode
1062:__ZN11AudioModule21SetActiveOutputDriverEPv
1063:__ZN11AudioModule26SetDefaultMicrophoneDriverEPv
1064:__ZN11AudioModule13GetNumDevicesEv
1065:__ZN11AudioModule15IsAudioDisabledEv
1066:__ZN16BaseVideoTexture19ResumeVideoTexturesEv
1067:__ZN16BaseVideoTexture20SuspendVideoTexturesEv
1068:__ZN16BaseVideoTexture18PauseVideoTexturesEv
1069:__ZN16BaseVideoTexture19UpdateVideoTexturesEv
1070:__ZN16BaseVideoTexture17StopVideoTexturesEv
1071:__Z20RegisterModule_Audiov
1072:__ZL22InitializeModule_Audiov
1073:__ZL19CleanupModule_Audiov
1074:___cxx_global_var_init13
1075:__GLOBAL__sub_I_SwCollision_cpp
1076:__GLOBAL__sub_I_SwInterCollision_cpp
1077:__GLOBAL__sub_I_SwSelfCollision_cpp
1078:__GLOBAL__sub_I_SwSolverKernel_cpp
1079:__GLOBAL__sub_I_runtime_cloth_lump_cpp
1080:__ZN5physx14PxLightCpuTaskD2Ev
1081:__ZN5physx14PxLightCpuTask12addReferenceEv
1082:__ZN5physx14PxLightCpuTask15removeReferenceEv
1083:__ZNK5physx14PxLightCpuTask12getReferenceEv
1084:__ZN5physx14PxLightCpuTask7releaseEv
1085:___cxx_global_var_init
1086:___cxx_global_var_init1
1087:___cxx_global_var_init2
1088:___cxx_global_var_init3
1089:___cxx_global_var_init4
1090:___cxx_global_var_init5
1091:___cxx_global_var_init6
1092:___cxx_global_var_init7
1093:___cxx_global_var_init8
1094:___cxx_global_var_init9
1095:___cxx_global_var_init10
1096:___cxx_global_var_init11
1097:___cxx_global_var_init12
1098:__Z6simd4fffff
1099:__ZN13Simd4fFactoryIN6detail9FourTupleEEC2Effff
1100:__Z6simd4fRKf
1101:__ZN13Simd4fFactoryIN6detail9FourTupleEEC2ERKS_IRKfE
1102:__ZN13Simd4fFactoryIRKfEC2ES1_
1103:__Z6simd4iiiii
1104:__Z6simd4fIN6detail9FourTupleEE13Simd4fFactoryIT_ERK13Simd4iFactoryIS3_E
1105:__ZN13Simd4iFactoryIN6detail9FourTupleEEC2Eiiii
1106:__ZNK13Simd4fFactoryIRKfEcv8Scalar4fEv
1107:__ZN11UnityEngine15CloudWebService17CloudJobScheduler10InitializeEv
1108:__ZN11UnityEngine15CloudWebService17CloudJobScheduler5CloseEv
1109:__ZN11UnityEngine15CloudWebService17CloudJobScheduler11ScheduleJobEPFvPvES2_
1110:__ZN11UnityEngine15CloudWebService17CloudJobSchedulerD2Ev
1111:__ZN11UnityEngine15CloudWebService17CloudJobSchedulerD0Ev
1112:__ZN23CloudWebServicesManagerD2Ev
1113:__ZN23CloudWebServicesManagerD0Ev
1114:__ZNK23CloudWebServicesManager26GetTypeInfoVirtualInternalEv
1115:__ZN23CloudWebServicesManager23VirtualRedirectTransferER24GenerateTypeTreeTransfer
1116:__ZN23CloudWebServicesManager23VirtualRedirectTransferER14SafeBinaryRead
1117:__ZN23CloudWebServicesManager15ThreadedCleanupEv
1118:__ZNSt3__26__treeINS_12__value_typeIN19CloudServiceHandler11ServiceTypeEPS2_EENS_19__map_value_compareIS3_S5_NS_4lessIS3_EELb1EEE13stl_allocatorIS5_L18MemLabelIdentifier85ELi16EEE7destroyEPNS_11__tree_nodeIS5_PvEE
1119:__ZNSt3__26__treeINS_12__value_typeIN19CloudServiceHandler11ServiceTypeEPS2_EENS_19__map_value_compareIS3_S5_NS_4lessIS3_EELb1EEE13stl_allocatorIS5_L18MemLabelIdentifier85ELi16EEE12__find_equalIS3_EERPNS_16__tree_node_baseIPvEENS_21__tree_const_iteratorIS5_PNS_11__tree_nodeIS5_SG_EEiEESJ_RKT_
1120:__ZN19CloudServiceHandler12CloseServiceEv
1121:__ZN19CloudServiceHandlerD2Ev
1122:__ZN11UnityEngine15CloudWebService18CloudServiceConfigD2Ev
1123:__ZN11UnityEngine15CloudWebService19SessionEventManagerD2Ev
1124:__ZN11UnityEngine15CloudWebService16SessionContainerD2Ev
1125:__ZN11UnityEngine15CloudWebService17SessionEventQueueD2Ev
1126:__ZN11UnityEngine15CloudWebService17SessionEventQueue10PurgeQueueEv
1127:__ZN11UnityEngine15CloudWebService14DataDispatcherD2Ev
1128:__ZNSt3__26__treeINS_12__value_typeIN4core12basic_stringIcNS2_20StringStorageDefaultIcEEEEjEENS_19__map_value_compareIS6_S7_NS_4lessIS6_EELb1EEE13stl_allocatorIS7_L18MemLabelIdentifier85ELi16EEE7destroyEPNS_11__tree_nodeIS7_PvEE
1129:__ZN11UnityEngine15CloudWebService14DataDispatcher26OnSessionContainerArchivedERNS0_16SessionContainerE
1130:__ZN11UnityEngine15CloudWebService14DataDispatcher34OnSessionContainerArchivedAndReadyERNS0_16SessionContainerE
1131:__ZN11UnityEngine15CloudWebService14DataDispatcherD0Ev
1132:__ZN11UnityEngine15CloudWebService14DataDispatcher20OnRestDownloaderDoneERNS0_14RestDownloaderE
1133:__ZThn4_N11UnityEngine15CloudWebService14DataDispatcher20OnRestDownloaderDoneERNS0_14RestDownloaderE
1134:__ZThn4_N11UnityEngine15CloudWebService14DataDispatcherD1Ev
1135:__ZThn4_N11UnityEngine15CloudWebService14DataDispatcherD0Ev
1136:__ZN11UnityEngine15CloudWebService14DataDispatcher25OnDataBlockConsumedStaticEPv
1137:__ZN11UnityEngine15CloudWebService14DataDispatcher19OnDataBlockConsumedEv
1138:__ZN11UnityEngine15CloudWebService16SessionContainer11PurgeEventsEj
1139:__ZN11UnityEngine15CloudWebService16SessionContainer22ArchiveDirtyEventQueueEv
1140:__ZN11UnityEngine15CloudWebService16SessionContainer9ResetDataEv
1141:__ZN11UnityEngine15CloudWebService16SessionContainer13DeleteArchiveERKN4core12basic_stringIcNS2_20StringStorageDefaultIcEEEE
1142:__ZN11UnityEngine15CloudWebService14DataDispatcher16PrepareDataBlockERNS0_16SessionContainerE
1143:__ZN11UnityEngine15CloudWebService16SessionContainer16MarkAsDispatchedERKN4core12basic_stringIcNS2_20StringStorageDefaultIcEEEE
1144:__ZN11UnityEngine15CloudWebService14DataDispatcher19HandleDeleteFailureERNS0_16SessionContainerE
1145:__ZN11UnityEngine15CloudWebService14DataDispatcher31SetupSessionContainerToDispatchEv
1146:__ZN11UnityEngine15CloudWebService14DataDispatcher30FindSessionContainerToDispatchEv
1147:__ZNSt3__26__treeINS_12__value_typeIN4core12basic_stringIcNS2_20StringStorageDefaultIcEEEEjEENS_19__map_value_compareIS6_S7_NS_4lessIS6_EELb1EEE13stl_allocatorIS7_L18MemLabelIdentifier85ELi16EEE4findIS6_EENS_15__tree_iteratorIS7_PNS_11__tree_nodeIS7_PvEEiEERKT_
1148:i64u-div
1149:i64u-rem
1150:__ZN11UnityEngine15CloudWebService16SessionContainer21ConvertFromFolderTimeERKN4core12basic_stringIcNS2_20StringStorageDefaultIcEEEEPjPt
1151:__ZN11UnityEngine15CloudWebService16SessionContainer12IsDispatchedERKN4core12basic_stringIcNS2_20StringStorageDefaultIcEEEE
1152:__ZN11UnityEngine15CloudWebService16SessionContainer7RestoreERKN4core12basic_stringIcNS2_20StringStorageDefaultIcEEEEPvy
1153:__ZNSt3__23mapIN4core12basic_stringIcNS1_20StringStorageDefaultIcEEEEjNS_4lessIS5_EE13stl_allocatorINS_4pairIKS5_jEEL18MemLabelIdentifier85ELi16EEEixERSA_
1154:__ZN11UnityEngine15CloudWebService16SessionContainer17RestoreEventQueueERKN4core12basic_stringIcNS2_20StringStorageDefaultIcEEEES8_Pvy
1155:__ZN11UnityEngine15CloudWebService16SessionContainer20RestoreSessionHeaderERKN4core12basic_stringIcNS2_20StringStorageDefaultIcEEEES8_RNS0_13SessionHeaderE
1156:__ZN11UnityEngine15CloudWebService17SessionEventQueue15RestoreFromFileER12FileAccessorPvy
1157:__ZN11UnityEngine15CloudWebService17SessionEventQueue16ExtractEventDataEPKcyRN4core12basic_stringIcNS4_20StringStorageDefaultIcEEEE
1158:__ZN11UnityEngine15CloudWebService17SessionEventQueue14ParseEventDataERKN4core12basic_stringIcNS2_20StringStorageDefaultIcEEEE
1159:__ZNSt3__26vectorIPN11UnityEngine15CloudWebService14CloudEventInfoE13stl_allocatorIS4_L18MemLabelIdentifier85ELi16EEE21__push_back_slow_pathIKS4_EEvRT_
1160:__ZN11UnityEngine15CloudWebService16SessionContainer38GetDeleteErrorJsonDataBlockAsJsonArrayERKN4core12basic_stringIcNS2_20StringStorageDefaultIcEEEES8_RS6_
1161:__ZN11UnityEngine15CloudWebService16SessionContainer27GetDeleteErrorJsonDataBlockERKN4core12basic_stringIcNS2_20StringStorageDefaultIcEEEERS6_
1162:__ZN11UnityEngine15CloudWebService14DataDispatcher15SetupWebRequestEv
1163:__ZN11UnityEngine15CloudWebService14DataDispatcher18PreformWebDispatchEv
1164:__ZN11UnityEngine15CloudWebService16SessionContainer21PrepareDataErrorEventERN4core12basic_stringIcNS2_20StringStorageDefaultIcEEEE
1165:__ZN11UnityEngine15CloudWebService16SessionContainer15FormatDataBlockERKN4core12basic_stringIcNS2_20StringStorageDefaultIcEEEES6_RS6_
1166:__ZN11UnityEngine15CloudWebService16SessionContainer24GetSessionHeaderJsonDataERKN4core12basic_stringIcNS2_20StringStorageDefaultIcEEEERNS2_13StringBuilderE
1167:__ZN4core13StringBuilder14UpdateWritePtrERPcb
1168:__ZN11UnityEngine15CloudWebService14DataErrorEvent12ToJsonStringERN4core12basic_stringIcNS2_20StringStorageDefaultIcEEEEjPKc
1169:__ZN11UnityEngine15CloudWebService17CloudServiceEventD2Ev
1170:__ZN11UnityEngine15CloudWebService17CloudServiceEventD0Ev
1171:__ZN11UnityEngine15CloudWebService17CloudServiceEvent12ToJsonStringER9JSONWrite
1172:__ZN9JSONWrite8TransferIyEEvRT_PKc17TransferMetaFlags
1173:__ZN24TextDOMTransferWriteBaseI9JSONWriteE12PushMetaFlagEi
1174:__ZN9rapidjson12GenericValueINS_4UTF8IcEE13JSONAllocatorED2Ev
1175:__ZN11UnityEngine15CloudWebService14DataErrorEventD2Ev
1176:__ZN11UnityEngine15CloudWebService14DataErrorEventD0Ev
1177:__ZN11UnityEngine15CloudWebService14DataErrorEvent12ToJsonStringER9JSONWrite
1178:__ZN9JSONWrite8TransferIN4core12basic_stringIcNS1_20StringStorageDefaultIcEEEEEEvRT_PKc17TransferMetaFlags
1179:__ZN9JSONWrite8TransferIN11UnityEngine15CloudWebService14DataErrorEvent17FolderErrorDetailEEEvRT_PKc17TransferMetaFlags
1180:__ZN9JSONWrite8TransferI13dynamic_arrayIN11UnityEngine15CloudWebService14DataErrorEvent15FileErrorDetailELj4EEEEvRT_PKc17TransferMetaFlags
1181:__ZN9JSONWrite8TransferIN11UnityEngine15CloudWebService14DataErrorEvent15FileErrorDetailEEEvRT_PKc17TransferMetaFlags
1182:__ZN9JSONWrite8TransferIiEEvRT_PKc17TransferMetaFlags
1183:__ZN11UnityEngine15CloudWebService14DataErrorEvent17FolderErrorDetailD2Ev
1184:__ZN11UnityEngine15CloudWebService17CloudServiceEvent12ToJsonStringERN4core12basic_stringIcNS2_20StringStorageDefaultIcEEEEjPKc
1185:__ZN9JSONWriteD2Ev
1186:__ZN11UnityEngine15CloudWebService14DataErrorEventC2Ev
1187:__ZN13dynamic_arrayIN11UnityEngine15CloudWebService14DataErrorEvent15FileErrorDetailELj4EE18resize_initializedEjRKS3_12ResizePolicy
1188:__ZN11UnityEngine15CloudWebService16SessionContainer26FormatDataBlockAsJsonArrayERKN4core12basic_stringIcNS2_20StringStorageDefaultIcEEEES8_S6_RS6_
1189:__ZN11UnityEngine15CloudWebService16SessionContainer25GetSessionHeaderJsonArrayERKN4core12basic_stringIcNS2_20StringStorageDefaultIcEEEERNS2_13StringBuilderE
1190:__ZN11UnityEngine15CloudWebService16SessionContainer17CreateAndOpenFileERKN4core12basic_stringIcNS2_20StringStorageDefaultIcEEEES8_R12FileAccessor
1191:__ZN11UnityEngine15CloudWebService16SessionContainer21GetJsonArrayDataBlockEjRKN4core12basic_stringIcNS2_20StringStorageDefaultIcEEEES8_RS6_PjSA_
1192:__ZN11UnityEngine15CloudWebService16SessionContainer16GetJsonDataBlockEjRKN4core12basic_stringIcNS2_20StringStorageDefaultIcEEEERS6_PjSA_
1193:__ZN11UnityEngine15CloudWebService17SessionEventQueue19GetEventsAsJsonDataEjRN4core12basic_stringIcNS2_20StringStorageDefaultIcEEEEPjS8_
1194:__ZN11UnityEngine15CloudWebService17SessionEventQueue20GetEventsAsJsonArrayEjRN4core12basic_stringIcNS2_20StringStorageDefaultIcEEEEPjS8_
1195:__ZN11UnityEngine15CloudWebService16SessionContainer31HandleDeleteArchivedFolderErrorERKN4core12basic_stringIcNS2_20StringStorageDefaultIcEEEE
1196:__ZN11UnityEngine15CloudWebService16SessionContainer18DeleteArchivedFileERKN4core12basic_stringIcNS2_20StringStorageDefaultIcEEEES8_Rb
1197:__ZN11UnityEngine15CloudWebService16SessionContainer17ResetArchivedFileERKN4core12basic_stringIcNS2_20StringStorageDefaultIcEEEE
1198:__ZN11UnityEngine15CloudWebService17SessionEventQueue10SaveToFileER12FileAccessor
1199:__ZN11UnityEngine15CloudWebService17SessionEventQueue10PurgeItemsEj
1200:__ZN11UnityEngine15CloudWebService13WWWRestClientD2Ev
1201:__ZNSt3__26__treeINS_12__value_typeIN4core12basic_stringIcNS2_20StringStorageDefaultIcEEEES6_EENS_19__map_value_compareIS6_S7_NS_4lessIS6_EELb1EEENS_9allocatorIS7_EEE7destroyEPNS_11__tree_nodeIS7_PvEE
1202:__ZN11UnityEngine15CloudWebService10RestClientINS0_16WWWRestHeaderMapEE6SetUrlERKN4core12basic_stringIcNS4_20StringStorageDefaultIcEEEE
1203:__ZN11UnityEngine15CloudWebService10RestClientINS0_16WWWRestHeaderMapEE7SetDataEPKhj
1204:__ZN11UnityEngine15CloudWebService10RestClientINS0_16WWWRestHeaderMapEE13SetDownloaderERNS0_14RestDownloaderE
1205:__ZN11UnityEngine15CloudWebService10RestClientINS0_16WWWRestHeaderMapEE16SetRequestHeaderERKN4core12basic_stringIcNS4_20StringStorageDefaultIcEEEESA_
1206:__ZN11UnityEngine15CloudWebService10RestClientINS0_16WWWRestHeaderMapEE16GetRequestHeaderERKN4core12basic_stringIcNS4_20StringStorageDefaultIcEEEE
1207:__ZN11UnityEngine15CloudWebService10RestClientINS0_16WWWRestHeaderMapEE17GetResponseHeaderERKN4core12basic_stringIcNS4_20StringStorageDefaultIcEEEE
1208:__ZN11UnityEngine15CloudWebService10RestClientINS0_16WWWRestHeaderMapEED2Ev
1209:__ZN11UnityEngine15CloudWebService10RestClientINS0_16WWWRestHeaderMapEED0Ev
1210:__Z7ToUpperIN4core12basic_stringIcNS0_20StringStorageDefaultIcEEEEET_RKS5_
1211:__ZNSt3__23mapIN4core12basic_stringIcNS1_20StringStorageDefaultIcEEEES5_NS_4lessIS5_EENS_9allocatorINS_4pairIKS5_S5_EEEEEixERSA_
1212:__ZN11UnityEngine15CloudWebService13WWWRestClient7CleanupEv
1213:__ZN11UnityEngine15CloudWebService13WWWRestClient10PerformGetEv
1214:__ZN11UnityEngine15CloudWebService13WWWRestClient6IsDoneEv
1215:__ZN11UnityEngine15CloudWebService13WWWRestClient17PlayerLoopHandlerEv
1216:__ZN11UnityEngine15CloudWebService13WWWRestClient17GetResponseStatusEv
1217:__ZN11UnityEngine15CloudWebService13WWWRestClientD0Ev
1218:__ZN11UnityEngine15CloudWebService13WWWRestClient18GetEditableHeadersEv
1219:__ZN11UnityEngine15CloudWebService13WWWRestClient18GetResponseHeadersEv
1220:__ZN11UnityEngine15CloudWebService13WWWRestClient21ParseHTTPHeaderStringEN4core12basic_stringIcNS2_20StringStorageDefaultIcEEEERNS0_16WWWRestHeaderMapERjPKc
1221:__ZNSt3__24listIP19CloudServiceHandler13stl_allocatorIS2_L18MemLabelIdentifier85ELi16EEE6removeERKS2_
1222:__ZN11UnityEngine15CloudWebService19SessionEventManager5CloseEv
1223:__ZN11UnityEngine15CloudWebService14DataDispatcher5CloseEv
1224:__ZN11UnityEngine15CloudWebService18RestFileDownloaderD2Ev
1225:__ZN11UnityEngine15CloudWebService18RestFileDownloaderD0Ev
1226:__ZN11UnityEngine15CloudWebService18RestFileDownloader13OnReceiveDataEPKvj
1227:__ZN11UnityEngine15CloudWebService18RestFileDownloader22OnReceiveContentLengthEj
1228:__ZN11UnityEngine15CloudWebService18RestFileDownloader17OnCompleteContentEv
1229:__ZN11UnityEngine15CloudWebService18RestFileDownloader7OnAbortEv
1230:__ZN11UnityEngine15CloudWebService14RestDownloader6IsDoneEv
1231:__ZN11UnityEngine15CloudWebService14RestDownloader9IsAbortedEv
1232:__ZN11UnityEngine15CloudWebService14RestDownloader9ClearDoneEv
1233:__ZN11UnityEngine15CloudWebService18RestFileDownloader10InitializeERKN4core12basic_stringIcNS2_20StringStorageDefaultIcEEEE
1234:__ZN11UnityEngine15CloudWebService18RestFileDownloader7OpenVFSEv
1235:__ZN19CloudServiceHandlerC2Ev
1236:__ZN11UnityEngine15CloudWebService13WWWRestClientC2Ev
1237:__ZN11UnityEngine15CloudWebService14DataDispatcherC2ERNS0_11IRestClientE
1238:__ZN11UnityEngine15CloudWebService16SessionContainerC2Ev
1239:__ZN11UnityEngine15CloudWebService14RestDownloader13OnReceiveDataEPKvj
1240:__ZN11UnityEngine15CloudWebService14RestDownloader17OnCompleteContentEv
1241:__ZN11UnityEngine15CloudWebService14RestDownloader7OnAbortEv
1242:__ZN11UnityEngine15CloudWebService19SessionEventManagerC2Ev
1243:__ZN19CloudServiceHandler31SetICloudServiceHandlerListenerEP28ICloudServiceHandlerListener
1244:__ZN19CloudServiceHandler10InitializeERKN4core12basic_stringIcNS0_20StringStorageDefaultIcEEEENS_13InitModeFlagsE
1245:__ZN19CloudServiceHandler17InitServiceFolderENS_13InitModeFlagsE
1246:__ZN11UnityEngine15CloudWebService19SessionEventManager10InitializeERKN4core12basic_stringIcNS2_20StringStorageDefaultIcEEEEPNS0_18ICloudJobSchedulerE
1247:__ZN11UnityEngine15CloudWebService14DataDispatcher10InitializeERKN4core12basic_stringIcNS2_20StringStorageDefaultIcEEEEPvjRNS0_18ICloudJobSchedulerE
1248:__Z26GetCloudWebServicesManagerv
1249:__ZN19CloudServiceHandler6RetainEv
1250:__ZN19CloudServiceHandler7ReleaseEv
1251:__ZN19CloudServiceHandler17StartEventHandlerERKN4core12basic_stringIcNS0_20StringStorageDefaultIcEEEEii
1252:__ZN11UnityEngine15CloudWebService19SessionEventManager5StartERKN4core12basic_stringIcNS2_20StringStorageDefaultIcEEEEii
1253:__ZN19CloudServiceHandler17PauseEventHandlerEb
1254:__ZN11UnityEngine15CloudWebService19SessionEventManager5PauseEb
1255:__ZN11UnityEngine15CloudWebService19SessionEventManager27ProcessFlushEventsJobStaticEPv
1256:__ZN11UnityEngine15CloudWebService16SessionContainer7ArchiveEv
1257:__ZN19CloudServiceHandler16StopEventHandlerEv
1258:__ZN11UnityEngine15CloudWebService19SessionEventManager4StopEv
1259:__ZN11UnityEngine15CloudWebService19SessionEventManager20ArchivePendingEventsEv
1260:__ZN19CloudServiceHandler20StartEventDispatcherERKN11UnityEngine15CloudWebService18CloudServiceConfigERNS1_16WWWRestHeaderMapE
1261:__ZN11UnityEngine15CloudWebService18CloudServiceConfigaSERKS1_
1262:__ZN11UnityEngine15CloudWebService16WWWRestHeaderMapaSERKS1_
1263:__ZN11UnityEngine15CloudWebService14DataDispatcher5StartERKNS0_18CloudServiceConfigE
1264:__ZN11UnityEngine15CloudWebService14DataDispatcher37SetupSessionContainerToDispatchStaticEPv
1265:__ZNSt3__26__treeINS_12__value_typeIN4core12basic_stringIcNS2_20StringStorageDefaultIcEEEES6_EENS_19__map_value_compareIS6_S7_NS_4lessIS6_EELb1EEENS_9allocatorIS7_EEE12__find_equalIS6_EERPNS_16__tree_node_baseIPvEENS_21__tree_const_iteratorIS7_PNS_11__tree_nodeIS7_SH_EEiEESK_RKT_
1266:__ZNSt3__26__treeINS_12__value_typeIN4core12basic_stringIcNS2_20StringStorageDefaultIcEEEES6_EENS_19__map_value_compareIS6_S7_NS_4lessIS6_EELb1EEENS_9allocatorIS7_EEE16__construct_nodeERKNS_4pairIKS6_S6_EE
1267:__ZN19CloudServiceHandler19StopEventDispatcherEv
1268:__ZN11UnityEngine15CloudWebService14DataDispatcher4StopEv
1269:__ZN19CloudServiceHandler22ResetNetworkRetryIndexEv
1270:__ZN11UnityEngine15CloudWebService14DataDispatcher22ResetNetworkRetryIndexEv
1271:__ZN19CloudServiceHandler10QueueEventEPN11UnityEngine15CloudWebService14CloudEventInfoE
1272:__ZN11UnityEngine15CloudWebService19SessionEventManager10QueueEventEPNS0_14CloudEventInfoE
1273:__ZN11UnityEngine15CloudWebService19SessionEventManager26ProcessEventQueueJobStaticEPv
1274:__ZN11UnityEngine15CloudWebService19SessionEventManager20ProcessEventQueueJobEPNS0_14CloudEventInfoE
1275:__ZN11UnityEngine15CloudWebService19SessionEventManager31SetupNextActiveSessionContainerEv
1276:__ZN11UnityEngine15CloudWebService16SessionContainer8AddEventEPNS0_14CloudEventInfoE
1277:__ZN19CloudServiceHandler11FlushEventsEv
1278:__ZN11UnityEngine15CloudWebService14DataDispatcher39StartJobSetupSessionContainerToDispatchEv
1279:__ZN11UnityEngine15CloudWebService19SessionEventManager11FlushEventsEv
1280:__ZN19CloudServiceHandler18SaveFileFromServerERKN4core12basic_stringIcNS0_20StringStorageDefaultIcEEEES6_PN11UnityEngine15CloudWebService16WWWRestHeaderMapE
1281:__ZN11UnityEngine15CloudWebService18RestFileDownloaderC2EPNS0_23IRestDownloaderListenerE
1282:__ZN11UnityEngine15CloudWebService17WebFileDownloaderINS0_13WWWRestClientENS0_16WWWRestHeaderMapEE10InitializeERKN4core12basic_stringIcNS5_20StringStorageDefaultIcEEEESB_SB_
1283:__ZN11UnityEngine15CloudWebService17WebFileDownloaderINS0_13WWWRestClientENS0_16WWWRestHeaderMapEED2Ev
1284:__ZN11UnityEngine15CloudWebService17WebFileDownloaderINS0_13WWWRestClientENS0_16WWWRestHeaderMapEED0Ev
1285:__ZN11UnityEngine15CloudWebService17WebFileDownloaderINS0_13WWWRestClientENS0_16WWWRestHeaderMapEE10InitializeERKN4core12basic_stringIcNS5_20StringStorageDefaultIcEEEE
1286:__ZN19CloudServiceHandler34HandleSaveFileWebRequestPlayerLoopEv
1287:__ZN11UnityEngine15CloudWebService19SessionEventManager17PlayerLoopHandlerEv
1288:__ZN11UnityEngine15CloudWebService14DataDispatcher17PlayerLoopHandlerEv
1289:__ZN11UnityEngine15CloudWebService14DataDispatcher29PreformRetryWebDispatchStaticEPv
1290:__ZN11UnityEngine15CloudWebService14DataDispatcher23PreformRetryWebDispatchEv
1291:__ZN11UnityEngine15CloudWebService16SessionContainer18GetIndexFromDataIdEy
1292:__ZN11UnityEngine15CloudWebService19SessionEventManager37OnTimerExpiredPerformArchiveJobStaticEPv
1293:__ZN11UnityEngine15CloudWebService17WebFileDownloaderINS0_13WWWRestClientENS0_16WWWRestHeaderMapEE24ExtractResponseEtagValueEv
1294:__ZN19CloudServiceHandler8SaveFileERKN4core12basic_stringIcNS0_20StringStorageDefaultIcEEEES6_
1295:__ZN19CloudServiceHandler8SaveFileERKN4core12basic_stringIcNS0_20StringStorageDefaultIcEEEEPKvj
1296:__ZN19CloudServiceHandler15RestoreDataFileERKN4core12basic_stringIcNS0_20StringStorageDefaultIcEEEERS4_
1297:__ZN19CloudServiceHandler20RestoreDataFileAsyncERKN4core12basic_stringIcNS0_20StringStorageDefaultIcEEEE
1298:__ZZN23CloudWebServicesManagerC1E18MemLabelIdentifier18ObjectCreationModeEN39EarlyUpdateCloudWebServicesUpdatestruct7ForwardEv
1299:__ZN23CloudWebServicesManager23PlayerLoopHandlerStaticEv
1300:__ZN23CloudWebServicesManager15GetCloudServiceEN19CloudServiceHandler11ServiceTypeE
1301:__ZNSt3__23mapIN19CloudServiceHandler11ServiceTypeEPS1_NS_4lessIS2_EE13stl_allocatorINS_4pairIKS2_S3_EEL18MemLabelIdentifier85ELi16EEEixERS8_
1302:__Z13RegisterClassI23CloudWebServicesManagerEvv
1303:__ZN13ProduceHelperI23CloudWebServicesManagerLb0EE7ProduceE18MemLabelIdentifier18ObjectCreationMode
1304:__Z31RegisterModule_CloudWebServicesv
1305:__ZN11UnityEngine15CloudWebService17CloudServiceEventC2EPKcNS0_15CloudEventFlagsE
1306:__ZN13EmscriptenWWW7GetDataEv
1307:__ZNK13EmscriptenWWW6GetETAEv
1308:__ZNK3WWW6IsDoneEv
1309:__ZNK13EmscriptenWWW11GetProgressEv
1310:__ZNK13EmscriptenWWW17GetUploadProgressEv
1311:__ZN3WWW8GetErrorEv
1312:__ZN3WWW8SetErrorERKN4core12basic_stringIcNS0_20StringStorageDefaultIcEEEE
1313:__ZNK13EmscriptenWWW6GetUrlEv
1314:__ZN3WWW18GetResponseHeadersEv
1315:__ZN13EmscriptenWWW23HasDownloadedOrMayBlockEv
1316:__ZN13EmscriptenWWW14BlockUntilDoneEv
1317:__ZNK3WWW8IsCachedEv
1318:__ZN3WWW12SetAudioClipEP9AudioClip
1319:__ZNK13EmscriptenWWW17IsDownloadingDoneEv
1320:__ZN13EmscriptenWWWD2Ev
1321:__ZN13EmscriptenWWWD0Ev
1322:__Z19free_alloc_internalPv18MemLabelIdentifier
1323:__ZN3WWWD2Ev
1324:__ZdlPv
1325:__ZN13MemoryManagerC2Ev
1326:__ZN13MemoryManager10DeallocateEPv18MemLabelIdentifier
1327:__ZN13MemoryManager25GetAllocatorContainingPtrEPKv
1328:__ZN12TLSAllocatorI14StackAllocatorE13TryDeallocateEPv
1329:__ZN14StackAllocator13TryDeallocateEPv
1330:__Z16GetMemoryManagerv
1331:__ZN13MemoryManager12GetAllocatorE18MemLabelIdentifier
1332:__ZN20DynamicHeapAllocatorI17LowLevelAllocatorEC2EjjbP15BucketAllocatorPKc
1333:__ZN20DynamicHeapAllocatorI17LowLevelAllocatorED2Ev
1334:__ZN20DynamicHeapAllocatorI17LowLevelAllocatorED0Ev
1335:__ZN20DynamicHeapAllocatorI17LowLevelAllocatorE8AllocateEji
1336:__ZN20DynamicHeapAllocatorI17LowLevelAllocatorE10ReallocateEPvji
1337:__ZN20DynamicHeapAllocatorI17LowLevelAllocatorE10DeallocateEPv
1338:__ZN20DynamicHeapAllocatorI17LowLevelAllocatorE13TryDeallocateEPv
1339:__ZNK20DynamicHeapAllocatorI17LowLevelAllocatorE8ContainsEPKv
1340:__ZNK20DynamicHeapAllocatorI17LowLevelAllocatorE10GetPtrSizeEPKv
1341:__ZN20DynamicHeapAllocatorI17LowLevelAllocatorE14CheckIntegrityEv
1342:__ZNK13BaseAllocator21GetReservedMemorySizeEv
1343:__ZNK13BaseAllocator26GetPeakAllocatedMemorySizeEv
1344:__Z22ValidateTlsfAllocationPvjiS_
1345:_tlsf_walk_heap
1346:_default_walker
1347:_tlsf_block_size
1348:_tlsf_free
1349:__ZN13MemoryManager12LowLevelFreeEPvj
1350:_tlsf_realloc_align
1351:_tlsf_memalign
1352:_block_trim_used
1353:_block_locate_free
1354:_block_prepare_used
1355:__Z6FormatPKcz
1356:__Z17DebugStringToFilePKciS0_i15LogMessageFlagsiiPFvRK11CppLogEntryE
1357:__ZN13MemoryManager16LowLevelAllocateEj
1358:_tlsf_create
1359:_printf_console
1360:__Z17DebugStringToFileRK21DebugStringToFileData
1361:__Z40DebugStringToFilePostprocessedStacktraceRK21DebugStringToFileData
1362:__ZN15GlobalCallbacks3GetEv
1363:__Z15CleanLogHandler7LogTypePKcz
1364:__ZL20InternalErrorConsolePKcz
1365:__ZL21InternalAssertConsolePKcz
1366:__ZL18InternalLogConsolePKcz
1367:__ZL22InternalWarningConsolePKcz
1368:__ZN14UnityWebStream7ReleaseEv
1369:__ZN3WWW7ReleaseEv
1370:__ZN3WWWD0Ev
1371:__ZNK14UnityWebStream8IsCachedEv
1372:__ZN3WWW20GetCachedErrorStringEv
1373:__ZNK14UnityWebStream10IsFinishedEv
1374:__ZN13ScreenManager17RequestResolutionEiibi
1375:__ZN13ScreenManager22SetRequestedResolutionEv
1376:__ZN18ScreenManagerWebGL22SetResolutionImmediateEiibi
1377:__ZN13ScreenManager14GetResolutionsEib
1378:__ZNK13ScreenManager19GetSystemResolutionEv
1379:__ZNK18ScreenManagerWebGL20GetCurrentResolutionEv
1380:__ZNK18ScreenManagerWebGL13GetShowCursorEv
1381:__ZN18ScreenManagerWebGL13SetShowCursorEb
1382:__ZNK18ScreenManagerWebGL13GetLockCursorEv
1383:__ZN18ScreenManagerWebGL13SetLockCursorE14CursorLockMode
1384:__ZNK13ScreenManager16GetScreenTimeoutEv
1385:__ZNK13ScreenManager21GetCursorInsideWindowEv
1386:__ZN18ScreenManagerWebGL21SetCursorInsideWindowEb
1387:__ZNK18ScreenManagerWebGL8GetWidthEv
1388:__ZNK18ScreenManagerWebGL9GetHeightEv
1389:__ZN13ScreenManager26ReapplyRequestedResolutionEv
1390:__ZNK13ScreenManager6GetDPIEv
1391:__ZNK18ScreenManagerWebGL12IsFullScreenEv
1392:__ZNK13ScreenManager20GetScreenOrientationEv
1393:__ZN13ScreenManager20SetScreenOrientationE17ScreenOrientation
1394:__ZN13ScreenManager23SetIsOrientationEnabledE18EnabledOrientationb
1395:__ZN20LocalFileSystemPosixD2Ev
1396:__ZN20LocalFileSystemWebGLD0Ev
1397:__ZN20LocalFileSystemPosix4OpenER13FileEntryData14FilePermission16FileAutoBehavior
1398:__ZN20LocalFileSystemPosix4ReadER13FileEntryDatayyPvPy
1399:__ZN20LocalFileSystemPosix4ReadER13FileEntryDatayPvPy
1400:__ZN20LocalFileSystemPosix5WriteER13FileEntryDatayyPvPy
1401:__ZN20LocalFileSystemPosix5WriteER13FileEntryDatayPvPy
1402:__ZN20LocalFileSystemWebGL5CloseER13FileEntryData
1403:__ZN20LocalFileSystemPosix4SeekER13FileEntryDatax10FileOrigin
1404:__ZNK20LocalFileSystemPosix8PositionERK13FileEntryData
1405:__ZN20LocalFileSystemPosix9SetLengthER13FileEntryDatay
1406:__ZNK20LocalFileSystemPosix4SizeERK13FileEntryData
1407:__ZNK22LocalFileSystemHandler9CanHandleEPKc
1408:__ZN20LocalFileSystemPosix10ToAbsoluteEPKc
1409:__ZN22LocalFileSystemHandler18IsAbsoluteFilePathEPKc
1410:__ZN22LocalFileSystemHandler19InitializeFileEntryER13FileEntryData
1411:__ZN22LocalFileSystemHandler4NameEv
1412:__ZNK20LocalFileSystemPosix6ParentERK13FileEntryDataRN4core12basic_stringIcNS3_20StringStorageDefaultIcEEEE
1413:__ZNK20LocalFileSystemPosix8FilenameERK13FileEntryData
1414:__ZNK20LocalFileSystemPosix5IsDirERK13FileEntryData
1415:__ZNK20LocalFileSystemPosix9IsSymLinkERK13FileEntryData
1416:__ZNK20LocalFileSystemPosix12LastModifiedERK13FileEntryData
1417:__ZN20LocalFileSystemPosix8IsLockedERK13FileEntryData
1418:__ZN17FileSystemHandler11HasFastHashERK13FileEntryDataR7Hash128
1419:__ZN20LocalFileSystemPosix8SetFlagsER13FileEntryDatajj
1420:__ZN20LocalFileSystemPosix12CreateAsFileER13FileEntryData
1421:__ZN20LocalFileSystemPosix11CreateAsDirER13FileEntryData
1422:__ZN20LocalFileSystemWebGL6DeleteER13FileEntryDatab
1423:__ZN17FileSystemHandler11MoveToTrashER13FileEntryData
1424:__ZNK20LocalFileSystemPosix6TargetERK13FileEntryDataR15FileSystemEntry
1425:__ZN20LocalFileSystemPosix4LockER13FileEntryData12FileLockMode
1426:__ZN20LocalFileSystemWebGL4CopyER13FileEntryDataS1_
1427:__ZN20LocalFileSystemWebGL10AtomicMoveER13FileEntryDataS1_
1428:__ZNK17FileSystemHandler12GetAssetGUIDERK13FileEntryData
1429:__ZN22LocalFileSystemHandler9MakeLocalER13FileEntryDatab
1430:__ZNK20LocalFileSystemPosix9EnumerateEPKcP13dynamic_arrayI13FileEntryInfoLj8EEbPPv19FileEnumerationFlag
1431:__ZN20LocalFileSystemPosix5TouchER13FileEntryData
1432:__ZNK20LocalFileSystemPosix6ExistsERK13FileEntryData
1433:__ZNK17FileSystemHandler31CreateFileWithContentAtomicallyERK13FileEntryDataPKvy
1434:__ZNK20LocalFileSystemPosix18GetApplicationPathEv
1435:__ZNK20LocalFileSystemPosix20GetApplicationFolderEv
1436:__ZNK20LocalFileSystemPosix25GetApplicationManagedPathEv
1437:__ZNK20LocalFileSystemPosix26GetApplicationContentsPathEv
1438:__ZNK20LocalFileSystemPosix21GetUserAppCacheFolderEv
1439:__ZNK20LocalFileSystemPosix20GetUserAppDataFolderEv
1440:__ZNK20LocalFileSystemPosix19GetUserConfigFolderEv
1441:__ZN22LocalFileSystemHandler16LastErrorMessageEv
1442:__ZNK20LocalFileSystemPosix21GetAvailableDiskSpaceEPKcRy
1443:__Z14AppendPathNameRKN4core12basic_stringIcNS_20StringStorageDefaultIcEEEES5_
1444:__Z18IsDirectoryCreatedRKN4core12basic_stringIcNS_20StringStorageDefaultIcEEEE
1445:__Z13GetFileSystemv
1446:__ZNK10FileSystem10ToAbsoluteEPKc
1447:__ZNK15FileSystemEntry12FolderExistsEv
1448:__ZN13FileEntryDataD2Ev
1449:__ZN15FileSystemEntryC2EPKc
1450:__ZN15FileSystemEntry3SetEPKc
1451:__Z24ConvertSeparatorsToUnityPc
1452:__ZL18AppendPathNameImplRKN4core12basic_stringIcNS_20StringStorageDefaultIcEEEES5_cRS3_
1453:__Z15CreateDirectoryRKN4core12basic_stringIcNS_20StringStorageDefaultIcEEEE
1454:__ZNK15FileSystemEntry6ExistsEv
1455:__ZNK15FileSystemEntry5IsDirEv
1456:__ZN15FileSystemEntry11CreateAsDirEv
1457:__ZNK10FileSystem16LastErrorMessageEv
1458:__ZNK10FileSystem16CurrentDirectoryEv
1459:__Z27DeleteLastPathNameComponentRKN4core12basic_stringIcNS_20StringStorageDefaultIcEEEE
1460:__ZL31DeleteLastPathNameComponentImplRKN4core12basic_stringIcNS_20StringStorageDefaultIcEEEEPKc
1461:__Z16realloc_internalPvjj18MemLabelIdentifier15AllocateOptionsPKci
1462:__Z15malloc_internaljj18MemLabelIdentifier15AllocateOptionsPKci
1463:__Z19UnixTimeToUnityTimelR8DateTime
1464:__Z16FlaggedAsSkippedIA256_cEbRK13FileEntryInfoRKT_19FileEnumerationFlag
1465:__Z7StrICmpPKcS0_
1466:__Z8EndsWithPKcjS0_j
1467:__Z23EndsWithCaseInsensitivePKcjS0_j
1468:__ZN13MemoryManager8AllocateEjj18MemLabelIdentifier15AllocateOptionsPKci
1469:__ZN12TLSAllocatorI14StackAllocatorE8AllocateEji
1470:__ZL16OutOfMemoryErrorjj18MemLabelIdentifieriPKc
1471:__Z13VFormatBufferPciPKcz
1472:__ZN14StackAllocator8AllocateEji
1473:__ZN13MemoryManager10ReallocateEPvjj18MemLabelIdentifier15AllocateOptionsPKci
1474:__ZN12TLSAllocatorI14StackAllocatorE10ReallocateEPvji
1475:__ZN14StackAllocator10ReallocateEPvji
1476:__ZN20LocalFileSystemPosix10AtomicMoveER13FileEntryDataS1_
1477:__ZN20LocalFileSystemPosix4CopyER13FileEntryDataS1_
1478:__ZN12FileAccessor4OpenEPKc14FilePermission16FileAutoBehavior
1479:__ZN12FileAccessorD2Ev
1480:__ZN12FileAccessorD0Ev
1481:__ZN20LocalFileSystemPosix6DeleteER13FileEntryDatab
1482:__Z23GetFolderContentsAtPathRKN4core12basic_stringIcNS_20StringStorageDefaultIcEEEERNSt3__23setIS3_NS6_4lessIS3_EENS6_9allocatorIS3_EEEE22FolderContentsPathModeS5_
1483:__Z22IsFileOrDirectoryInUseRKN4core12basic_stringIcNS_20StringStorageDefaultIcEEEE
1484:__ZNSt3__26__treeIN4core12basic_stringIcNS1_20StringStorageDefaultIcEEEENS_4lessIS5_EENS_9allocatorIS5_EEE7destroyEPNS_11__tree_nodeIS5_PvEE
1485:__Z13IsFileCreatedRKN4core12basic_stringIcNS_20StringStorageDefaultIcEEEE
1486:__ZN15FileSystemEntry8IsLockedEv
1487:__Z23GetFolderContentsAtPathRKN4core12basic_stringIcNS_20StringStorageDefaultIcEEEE19FileEnumerationFlagRNSt3__23setIS3_NS7_4lessIS3_EENS7_9allocatorIS3_EEEE22FolderContentsPathModeS5_
1488:__ZNK15FileSystemEntry4PathEv
1489:__ZNK10FileSystem9EnumerateEPKcP13dynamic_arrayI13FileEntryInfoLj8EEb19FileEnumerationFlag
1490:__ZL33FileEntryInfoListToFolderContentsRKN4core12basic_stringIcNS_20StringStorageDefaultIcEEEERK13dynamic_arrayI13FileEntryInfoLj8EERNSt3__23setIS3_NSB_4lessIS3_EENSB_9allocatorIS3_EEEE
1491:__ZL41FileEntryInfoListToFolderContentsAbsoluteRK13dynamic_arrayI13FileEntryInfoLj8EERNSt3__23setIN4core12basic_stringIcNS6_20StringStorageDefaultIcEEEENS4_4lessISA_EENS4_9allocatorISA_EEEE
1492:__Znwj
1493:__ZN8DateTimeC2Ev
1494:__ZN20LocalFileSystemPosix5CloseER13FileEntryData
1495:__GLOBAL__sub_I_platformdependent_webgl_source_lump_cpp
1496:___cxx_global_var_init_2
1497:__GLOBAL__sub_I_runtime_assetbundles_lump_cpp
1498:__GLOBAL__sub_I_runtime_baseclasses_lump_cpp
1499:__GLOBAL__sub_I_runtime_baseclasses2_lump_cpp
1500:__GLOBAL__sub_I_runtime_camera_lump_cpp
1501:__GLOBAL__sub_I_runtime_camera2_lump_cpp
1502:__GLOBAL__sub_I_runtime_camera3_lump_cpp
1503:__GLOBAL__sub_I_runtime_camera4_lump_cpp
1504:__GLOBAL__sub_I_runtime_camera_renderlayers_lump_cpp
1505:__GLOBAL__sub_I_runtime_camera_renderloops_lump_cpp
1506:__GLOBAL__sub_I_runtime_core_callbacks_lump_cpp
1507:__GLOBAL__sub_I_runtime_geometry_lump_cpp
1508:__GLOBAL__sub_I_runtime_gfxdevice_lump_cpp
1509:__GLOBAL__sub_I_runtime_gfxdevice2_lump_cpp
1510:__GLOBAL__sub_I_runtime_graphics_lump_cpp
1511:__GLOBAL__sub_I_runtime_graphics4_lump_cpp
1512:__GLOBAL__sub_I_runtime_graphics5_lump_cpp
1513:__GLOBAL__sub_I_runtime_graphics_billboard_lump_cpp
1514:__GLOBAL__sub_I_runtime_graphics_lod_lump_cpp
1515:__GLOBAL__sub_I_runtime_graphics_mesh_lump_cpp
1516:__GLOBAL__sub_I_runtime_graphics_mesh2_lump_cpp
1517:__GLOBAL__sub_I_runtime_input_lump_cpp
1518:__GLOBAL__sub_I_runtime_interfaces_lump_cpp
1519:__GLOBAL__sub_I_runtime_math_random_lump_cpp
1520:__GLOBAL__sub_I_runtime_misc_lump_cpp
1521:__GLOBAL__sub_I_runtime_preloadmanager_lump_cpp
1522:__GLOBAL__sub_I_runtime_scenemanager_lump_cpp
1523:__GLOBAL__sub_I_runtime_scripting_lump_cpp
1524:__GLOBAL__sub_I_runtime_shaders_lump_cpp
1525:__GLOBAL__sub_I_runtime_shaders_shaderimpl_lump_cpp
1526:__GLOBAL__sub_I_runtime_terrain_lump_cpp
1527:__GLOBAL__sub_I_runtime_transform_lump_cpp
1528:__GLOBAL__sub_I_runtime_utilities_lump_cpp
1529:__GLOBAL__sub_I_runtime_utilities2_lump_cpp
1530:__GLOBAL__sub_I_runtime_utilities3_lump_cpp
1531:__GLOBAL__sub_I_half_cpp
1532:__GLOBAL__sub_I_SpriteRendererJobs_cpp
1533:__GLOBAL__sub_I_Player_cpp
1534:__GLOBAL__sub_I_GlslGpuProgramGLES_cpp
1535:__ZL25InitializeUnityWebStreamsPv
1536:__ZL22CleanupUnityWebStreamsPv
1537:__ZN35RegisterRuntimeInitializeAndCleanupC2EPFvPvES2_iS0_
1538:__ZN13RuntimeStaticINSt3__23mapIy8TFShaderNS0_4lessIyEENS0_9allocatorINS0_4pairIKyS2_EEEEEELb0EE13StaticDestroyEPv
1539:__ZN35RegisterRuntimeInitializeAndCleanup8RegisterEPFvPvES2_iS0_
1540:__ZNSt3__26__treeINS_12__value_typeIj25DeferredSkinningOperationEENS_19__map_value_compareIjS3_NS_4lessIjEELb1EEENS_9allocatorIS3_EEE7destroyEPNS_11__tree_nodeIS3_PvEE
1541:__ZNSt3__26__treeINS_12__value_typeIy8TFShaderEENS_19__map_value_compareIyS3_NS_4lessIyEELb1EEENS_9allocatorIS3_EEE7destroyEPNS_11__tree_nodeIS3_PvEE
1542:__ZL25DestroySparseTexturesGLESPv
1543:__ZNSt3__26__treeINS_12__value_typeI9TextureID21SparseTextureInfoGLESEENS_19__map_value_compareIS2_S4_NS_4lessIS2_EELb1EEENS_9allocatorIS4_EEE7destroyEPNS_11__tree_nodeIS4_PvEE
1544:__ZN12_GLOBAL__N_138ArchiveRedirectFileSystemStaticDestroyEPv
1545:__ZL19StaticCleanupPlayerPv
1546:__ZN17MessageIdentifierC2EPKcNS_7OptionsEPKN5Unity4TypeES1_
1547:__Znwj18MemLabelIdentifierjPKci
1548:__ZN13RuntimeStaticI15DirectorManagerLb0EE16StaticInitializeEPv
1549:__ZN13RuntimeStaticI15DirectorManagerLb0EE13StaticDestroyEPv
1550:__ZN15DirectorManager14ConnectionPool8DestructEv
1551:__ZN15DirectorManager14ConnectionPool11ClearUnsafeEv
1552:__Z23DestroyMutexLockedStackP16MutexLockedStack
1553:__ZN15DirectorManagerD2Ev
1554:__ZN15DirectorManager23ProcessPlayStateChangesEv
1555:__ZN15DirectorManager12CleanupClassEv
1556:__ZNSt3__26__treeINS_12__value_typeIPvsEENS_19__map_value_compareIS2_S3_NS_4lessIS2_EELb1EEE13stl_allocatorIS3_L18MemLabelIdentifier83ELi16EEE7destroyEPNS_11__tree_nodeIS3_S2_EE
1557:__Z18FlushGraphCommandsR13dynamic_arrayI16GraphCommandPairLj4EER16MutexLockedStack
1558:__ZN13PlayableGraph12PrepareFrameE16PrepareFrameTyped
1559:__ZN13PlayableGraph7DestroyEv
1560:__ZN15DirectorManager21RebuildStageCallbacksEv
1561:__ZN15DirectorManager12RegisterJobsEP13PlayableGraph
1562:__ZNSt3__26vectorI20ProcessCallbackGroupNS_9allocatorIS1_EEE21__push_back_slow_pathIKS1_EEvRT_
1563:__ZN13PlayableGraphD2Ev
1564:__Z18GetDirectorManagerv
1565:__ZN15DirectorManager13FreeGraphNodeEP10HGraphNode
1566:__ZN13PlayableGraph23DestroyPendingPlayablesEv
1567:__ZN13PlayableGraph14DestroyOutputsEv
1568:__ZN8Playable19PrepareFrameVisitorER19DirectorVisitorInfo
1569:__ZN26RecursivePlayableTraverser8TraverseER19DirectorVisitorInfo
1570:__ZN8Playable16ProcessPlayStateERK19DirectorVisitorInfo
1571:__ZN8Playable16CallOnGraphStartEv
1572:__ZN17ScriptingGCHandle28ResolveBackendNativeGCHandleEj
1573:__Z26scripting_object_get_class18ScriptingObjectPtr
1574:__ZN15DirectorManager29CacheScriptingMethodsForClassE17ScriptingClassPtr
1575:__ZNK15DirectorManager16GetScriptMethodsEs
1576:__ZN18ScriptingArguments9AddStructEPKv
1577:__ZN18ScriptingArguments7AddEnumEi
1578:__ZN19ScriptingInvocation6InvokeEP21ScriptingExceptionPtrb
1579:__ZN8Playable15CallOnGraphStopEv
1580:__Z23scripting_method_invoke18ScriptingMethodPtr18ScriptingObjectPtrR18ScriptingArgumentsP21ScriptingExceptionPtrb
1581:__ZN9Scripting12LogExceptionE21ScriptingExceptionPtriPKc
1582:__Z30scripting_stack_trace_info_for21ScriptingExceptionPtrR14StackTraceInfo
1583:__Z23GetCoreScriptingClassesv
1584:__ZN18ScriptingArguments9AddObjectE18ScriptingObjectPtr
1585:__ZN18ScriptingArguments12AddOutObjectEP18ScriptingObjectPtr
1586:__Z24scripting_cpp_string_for18ScriptingStringPtr
1587:__Z21PostprocessStacktracePKcRN4core12basic_stringIcNS1_20StringStorageDefaultIcEEEE
1588:__ZN18ScriptingArguments9AddStringEPKc
1589:__ZN18ScriptingArguments10AddBooleanEb
1590:__ZN19ScriptingInvocation6InvokeI18ScriptingStringPtrEET_P21ScriptingExceptionPtrb
1591:__ZNK18ScriptingObjectPtr17ToScriptingStringEv
1592:__Z20scripting_string_newPKc
1593:__Z18ConvertUTF16toUTF8PKtiPhRi
1594:__Z18ConvertUTF16toUTF8PPKtS0_PPhS2_15ConversionFlags
1595:__ZL30InitializeCoreScriptingClassesv
1596:__ZL27CleanupCoreScriptingClassesv
1597:__Z27SetupModuleScriptingClassesPFvvES0_
1598:__ZN17CallbackArrayBaseIPFvvEPFvPKvEE8RegisterES1_
1599:__Z12OptionalTypePKcS0_S0_
1600:__Z11RequireTypePKcS0_S0_
1601:__Z13RequireMethodPKcS0_S0_S0_
1602:__Z14OptionalMethodPKcS0_S0_S0_
1603:__Z36scripting_class_get_method_from_name17ScriptingClassPtrPKci
1604:__Z43scripting_class_get_method_from_name_filter17ScriptingClassPtrPKciN24ScriptingMethodFiltering18MethodSearchFilterE
1605:__ZN24ScriptingMethodFiltering17FilterOnSignatureENS_18MethodSearchFilterE
1606:__ZN24ScriptingMethodFiltering36MethodDescriptionMatchesSearchFilterENS_18MethodSearchFilterEbi
1607:__Z29scripting_class_from_fullnamePKcS0_S0_
1608:__Z32scripting_class_get_nested_types17ScriptingClassPtrRNSt3__26vectorIS_13stl_allocatorIS_L18MemLabelIdentifier1ELi16EEEE
1609:__Z24scripting_class_get_name17ScriptingClassPtr
1610:__ZNSt3__26vectorI17ScriptingClassPtr13stl_allocatorIS1_L18MemLabelIdentifier1ELi16EEE21__push_back_slow_pathIKS1_EEvRT_
1611:__Z14GetMonoManagerv
1612:__ZN11MonoManager17GetScriptingClassEPKcS1_S1_
1613:__ZL41AssemblyNameMatchesWithOrWithoutExtensionPKcS0_
1614:__Z24GetLastPathNameComponentRKN4core12basic_stringIcNS_20StringStorageDefaultIcEEEE
1615:__Z23DeletePathNameExtensionRKN4core12basic_stringIcNS_20StringStorageDefaultIcEEEE
1616:__Z21GetManagerFromContexti
1617:__ZNK18ScriptingArguments8GetCountEv
1618:__ZN19ScriptingInvocationC2E18ScriptingMethodPtr
1619:__Z26scripting_class_get_parent17ScriptingClassPtr
1620:__ZN9Scripting29GetFirstNonGenericParentClassE17ScriptingClassPtrS0_
1621:__ZN9Scripting21GetOverrideMethodOnlyEPKc17ScriptingClassPtrS2_
1622:__Z26scripting_class_is_generic17ScriptingClassPtr
1623:__ZN15DirectorManagerC2Ev
1624:__ZN15DirectorManager15InitializeClassEv
1625:__ZZN15DirectorManager15InitializeClassEvEN35EarlyUpdateDirectorSampleTimestruct7ForwardEv
1626:__ZZN15DirectorManager15InitializeClassEvEN40FixedUpdateDirectorFixedSampleTimestruct7ForwardEv
1627:__ZZN15DirectorManager15InitializeClassEvEN36FixedUpdateDirectorFixedUpdatestruct7ForwardEv
1628:__ZZN15DirectorManager15InitializeClassEvEN47FixedUpdateDirectorFixedUpdatePostPhysicsstruct7ForwardEv
1629:__ZZN15DirectorManager15InitializeClassEvEN26UpdateDirectorUpdatestruct7ForwardEv
1630:__ZZN15DirectorManager15InitializeClassEvEN38PostLateUpdateDirectorLateUpdatestruct7ForwardEv
1631:__ZZN15DirectorManager15InitializeClassEvEN44PostLateUpdateDirectorDeferredEvaluatestruct7ForwardEv
1632:__ZZN15DirectorManager15InitializeClassEvEN39PostLateUpdateDirectorRenderImagestruct7ForwardEv
1633:__ZZN15DirectorManager15InitializeClassEvEN47PreLateUpdateDirectorUpdateAnimationBeginstruct7ForwardEv
1634:__ZZN15DirectorManager15InitializeClassEvEN45PreLateUpdateDirectorUpdateAnimationEndstruct7ForwardEv
1635:__ZZN15DirectorManager15InitializeClassEvEN31shutdownBeforeCleanupAllObjects7ForwardEv
1636:__ZZN15DirectorManager15InitializeClassEvEN21enterPlayModePreStart7ForwardEv
1637:__ZN15DirectorManager14ConnectionPool14InitializePoolEjf
1638:__Z22CreateMutexLockedStackv
1639:__ZN17DirectorFrameTime14ResetDSPValuesEv
1640:__Z23IsWorldPlayingThisFramev
1641:__ZN15DirectorManager20ExecutePrepareFramesE13DirectorStage
1642:__ZN15DirectorManager23ExecuteProcessCallbacksE13DirectorStage
1643:__ZNSt3__26vectorI20ProcessCallbackGroupNS_9allocatorIS1_EEEC2ERKS4_
1644:__ZL19PrepareFrameJobFuncP15PrepareFrameJobj
1645:__Z26ScheduleJobForEachInternalR8JobFencePFvPvjES1_iPFvS1_E11JobPriority
1646:__Z21CompleteFenceInternalR8JobFence
1647:__ZN13PlayableGraph25FireConnectionHashChangedEv
1648:__Z22NeedToPerformRenderingv
1649:__Z12GetGfxDevicev
1650:__ZN13PlayableGraph8EvaluateEd
1651:__ZN13PlayableGraph6UpdateEv
1652:__ZN15DirectorManager17OnSampleFixedTimeEv
1653:__Z14GetTimeManagerv
1654:__ZN17DirectorFrameTime10SampleTimeEfff
1655:__ZN15DirectorManager12OnSampleTimeEv
1656:__ZN15DirectorManager14ConnectionPool16GrowEmptyBucketsEv
1657:__ZN15DirectorManager14ConnectionPool10CreateItemEi
1658:__ZN9ShaderLab16FastPropertyName4InitEPKc
1659:__ZN23DefaultMeshVertexFormatC2E17ShaderChannelMask
1660:__Z20IsVectorBuiltinParamPKcPi
1661:__Z20IsMatrixBuiltinParamPKcPi
1662:__Z20IsTexEnvBuiltinParamPKcPi
1663:__ZN11prophecysdk4half8selftestEv
1664:__ZN12UnityVersionC2EPKc
1665:__ZN13RuntimeStaticINSt3__23setI19RepeatingLogMessageNS0_4lessIS2_EE13stl_allocatorIS2_L18MemLabelIdentifier70ELi16EEEELb0EE13StaticDestroyEPv
1666:__ZN10MemoryPool16StaticInitializeEPv
1667:__ZN10MemoryPool13StaticDestroyEPv
1668:__ZNSt3__26__treeI19RepeatingLogMessageNS_4lessIS1_EE13stl_allocatorIS1_L18MemLabelIdentifier70ELi16EEE7destroyEPNS_11__tree_nodeIS1_PvEE
1669:__ZL30InitializeSpeedTreeWindManagerPv
1670:__ZL27DestroySpeedTreeWindManagerPv
1671:__ZN13RuntimeStaticI11WindManagerLb0EE16StaticInitializeEPv
1672:__ZN13RuntimeStaticI11WindManagerLb0EE13StaticDestroyEPv
1673:__ZN10MemoryPoolD2Ev
1674:__ZZN20SpeedTreeWindManagerC1EvEN25PreUpdateWindUpdatestruct7ForwardEv
1675:__ZN20SpeedTreeWindManager21PrepareWindPropertiesER19ShaderPropertySheetb
1676:__ZN19ShaderPropertySheet11ComputeHashEv
1677:_XXH32
1678:__ZN19ShaderPropertySheet5ClearEb
1679:__ZN19ShaderPropertySheet20ReservePropertyCountEj
1680:__ZN19ShaderPropertySheet8SetFloatEN9ShaderLab16FastPropertyNameEfNS_8SetFlagsE
1681:__ZN19ShaderPropertySheet9SetVectorEN9ShaderLab16FastPropertyNameERK8Vector4fNS_8SetFlagsE
1682:__ZN19ShaderPropertySheet27AddNewPropertyUninitializedEN9ShaderLab16FastPropertyNameENS_12PropertyTypeEj
1683:__Z19GetActiveColorSpacev
1684:__Z20GetPlayerSettingsPtrv
1685:__ZNK14PlayerSettings13GetColorSpaceEv
1686:__ZN19ShaderPropertySheetD2Ev
1687:__ZN19ShaderPropertySheetD0Ev
1688:__ZN20SpeedTreeWindManager6UpdateEf
1689:__ZNK8WindZone17ComputeWindVectorERK4AABBR8Vector4f
1690:__ZN13SpeedTreeWind23SetDirectionAndStrengthERK8Vector4f
1691:__ZN13SpeedTreeWind7AdvanceEbd
1692:__ZN13SpeedTreeWind4GustEdd
1693:__ZNK10GameObject20QueryComponentByTypeEPKN5Unity4TypeE
1694:__ZNK9Transform11GetPositionEv
1695:__ZNK9Transform18TransformDirectionERK8Vector3f
1696:__Z20CalculateSqrDistanceRK8Vector3fRK4AABB
1697:__Z18TransformDirection23TransformAccessReadOnlyRKN4math7_float3E
1698:__ZN10MemoryPoolC2E18MemLabelIdentifierbPKciii
1699:__ZN9ShaderLab19CommonPropertyNames16StaticInitializeEPv
1700:__ZN9ShaderLab19CommonPropertyNames13StaticCleanupEPv
1701:__ZN13RuntimeStaticIN4core12basic_stringIcNS0_20StringStorageDefaultIcEEEELb0EE16StaticInitializeEPv
1702:__ZN13RuntimeStaticIN4core12basic_stringIcNS0_20StringStorageDefaultIcEEEELb0EE13StaticDestroyEPv
1703:__ZN9ShaderLabL25StaticInitializeShaderLabEPv
1704:__ZN9ShaderLabL22StaticDestroyShaderLabEPv
1705:__ZNSt3__25stackIPN9ShaderLab21SerializedShaderStateENS_5dequeIS3_NS_9allocatorIS3_EEEEED2Ev
1706:__ZN8keywords7CleanupEv
1707:__ZN9shadertag7CleanupEv
1708:__ZNSt3__26__treeINS_12__value_typeIPKc11ShaderTagIDEENS_19__map_value_compareIS3_S5_27compare_tstring_insensitiveIS3_ELb1EEENS_9allocatorIS5_EEE7destroyEPNS_11__tree_nodeIS5_PvEE
1709:__ZNSt3__26__treeINS_12__value_typeIPKciEENS_19__map_value_compareIS3_S4_15compare_tstringIS3_ELb1EEENS_9allocatorIS4_EEE7destroyEPNS_11__tree_nodeIS4_PvEE
1710:__ZN8keywords10InitializeEv
1711:__ZN9shadertag10InitializeEv
1712:__ZN9shadertag14GetShaderTagIDERKN4core12basic_stringIcNS0_20StringStorageDefaultIcEEEE
1713:__ZN8keywords6CreateEPKc
1714:__Z6StrCmpPKcS0_
1715:__Z27LogRepeatingStringWithFlagsRKN4core12basic_stringIcNS_20StringStorageDefaultIcEEEE15LogMessageFlagsi
1716:__ZNSt3__26__treeI19RepeatingLogMessageNS_4lessIS1_EE13stl_allocatorIS1_L18MemLabelIdentifier70ELi16EEE4findIS1_EENS_15__tree_iteratorIS1_PNS_11__tree_nodeIS1_PvEEiEERKT_
1717:__ZNSt3__26__treeI19RepeatingLogMessageNS_4lessIS1_EE13stl_allocatorIS1_L18MemLabelIdentifier70ELi16EEE12__find_equalIS1_EERPNS_16__tree_node_baseIPvEESD_RKT_
1718:__ZNSt3__26__treeINS_12__value_typeIPKciEENS_19__map_value_compareIS3_S4_N9ShaderLab14CStringCompareELb1EEENS_9allocatorIS4_EEE7destroyEPNS_11__tree_nodeIS4_PvEE
1719:__Z30CleanupBuiltinShaderParamNamesv
1720:__Z33InitializeBuiltinShaderParamNamesv
1721:__ZNSt3__26__sortIRNS_6__lessIN12_GLOBAL__N_114ParamNameIndexES3_EEPS3_EEvT0_S7_T_
1722:__ZN12_GLOBAL__N_115ParamNameLookup15AddBuiltinNamesEPPKcjb
1723:__ZNSt3__27__sort3IRNS_6__lessIN12_GLOBAL__N_114ParamNameIndexES3_EEPS3_EEjT0_S7_S7_T_
1724:__ZNSt3__27__sort4IRNS_6__lessIN12_GLOBAL__N_114ParamNameIndexES3_EEPS3_EEjT0_S7_S7_S7_T_
1725:__ZNSt3__27__sort5IRNS_6__lessIN12_GLOBAL__N_114ParamNameIndexES3_EEPS3_EEjT0_S7_S7_S7_S7_T_
1726:__ZNSt3__227__insertion_sort_incompleteIRNS_6__lessIN12_GLOBAL__N_114ParamNameIndexES3_EEPS3_EEbT0_S7_T_
1727:__ZN13RuntimeStaticI12GraphicsCapsLb0EE16StaticInitializeEPv
1728:__ZN13RuntimeStaticI12GraphicsCapsLb0EE13StaticDestroyEPv
1729:__ZL19StaticDestroyShaderPv
1730:__ZN12GraphicsCapsD2Ev
1731:__ZN16GraphicsCapsGLESC2Ev
1732:__ZN13RuntimeStaticINSt3__23mapINS0_4pairIPcS3_EEPFbPvR14SafeBinaryReadE20smaller_tstring_pairIPKcENS0_9allocatorINS2_IKS4_S9_EEEEEELb0EE13StaticDestroyES5_
1733:__ZL30InitializeGlobalNameConversionPv
1734:__ZL27CleanupGlobalNameConversionPv
1735:__ZNSt3__26__treeINS_12__value_typeINS_4pairIPcS3_EENS_3setIS3_15compare_tstringIPKcENS_9allocatorIS3_EEEEEENS_19__map_value_compareIS4_SD_20smaller_tstring_pairIS8_ELb1EEENSA_ISD_EEE7destroyEPNS_11__tree_nodeISD_PvEE
1736:__ZNSt3__26__treeIPc15compare_tstringIPKcENS_9allocatorIS1_EEE7destroyEPNS_11__tree_nodeIS1_PvEE
1737:__ZNSt3__26__treeINS_12__value_typeINS_4pairIPcS3_EEPFbPvR14SafeBinaryReadEEENS_19__map_value_compareIS4_SA_20smaller_tstring_pairIPKcELb1EEENS_9allocatorISA_EEE7destroyEPNS_11__tree_nodeISA_S5_EE
1738:__ZN13RuntimeStaticINSt3__23mapIN4core12basic_stringIcNS2_20StringStorageDefaultIcEEEEPvNS0_4lessIS6_EENS0_9allocatorINS0_4pairIKS6_S7_EEEEEELb0EE13StaticDestroyES7_
1739:__ZNSt3__26__treeINS_12__value_typeIN4core12basic_stringIcNS2_20StringStorageDefaultIcEEEEPvEENS_19__map_value_compareIS6_S8_NS_4lessIS6_EELb1EEENS_9allocatorIS8_EEE7destroyEPNS_11__tree_nodeIS8_S7_EE
1740:__ZL35StaticInitializeRuntimeSceneManagerPv
1741:__ZL32StaticDestroyRuntimeSceneManagerPv
1742:__ZN19RuntimeSceneManagerC2Ev
1743:__ZL32MarkLevelGameManagerDependenciesR27GarbageCollectorThreadState
1744:__ZL16SceneWasUnloadedi
1745:__ZL18ActiveSceneChangedP10UnitySceneS0_
1746:__Z20MarkInstanceIDAsRootiR27GarbageCollectorThreadState
1747:__ZN19RuntimeSceneManagerD2Ev
1748:__ZN19RuntimeSceneManagerD0Ev
1749:__ZN19RuntimeSceneManager8GetSceneEi
1750:__ZN19RuntimeSceneManager11MergeScenesER10UnitySceneS1_
1751:__ZN19RuntimeSceneManager14CanUnloadSceneEP10UnityScene
1752:__ZN19RuntimeSceneManager19UnloadSceneInternalEP10UnityScene
1753:__ZN10UnityScene43RegisterLevelGameManagersWithManagerContextEv
1754:__Z22DestroyObjectHighLevelP6Objectb
1755:__ZN10UnityScene23UnloadLevelGameManagersEv
1756:__Z31ReadObjectFromPersistentManageri
1757:__Z20GetPersistentManagerv
1758:__ZN17PersistentManager10ReadObjectEi17AwakeFromLoadMode
1759:__ZN17PersistentManager48IntegrateObjectAndUnlockIntegrationMutexInternalEi
1760:__ZN17PersistentManager18ReadObjectThreadedEi
1761:__ZN17PersistentManager40LoadRemainingPreallocatedObjectsInternalEv
1762:__ZN17PersistentManager27IntegrateAllThreadedObjectsEv
1763:__ZN17PersistentManager32CopyToAwakeFromLoadQueueInternalER18AwakeFromLoadQueue
1764:__ZN6Object24RegisterInstanceIDNoLockEPS_
1765:__ZL20SortItemByInstanceIDRKN18AwakeFromLoadQueue4ItemES2_
1766:__ZNSt3__26__sortIRPFbRKN18AwakeFromLoadQueue4ItemES4_EPS2_EEvT0_S9_T_
1767:__Z24SetExecutionRestrictions21ExecutionRestrictions
1768:__ZN18AwakeFromLoadQueue28InvokePersistentManagerAwakeEPNS_4ItemEj17AwakeFromLoadMode
1769:__Z63ThreadAndSerializationSafeCheckGetMonoBehaviourBeingTransferredv
1770:__Z63ThreadAndSerializationSafeCheckSetMonoBehaviourBeingTransferredP13MonoBehaviour
1771:__ZNSt3__27__sort4IRPFbRKN18AwakeFromLoadQueue4ItemES4_EPS2_EEjT0_S9_S9_S9_T_
1772:__ZNSt3__218__insertion_sort_3IRPFbRKN18AwakeFromLoadQueue4ItemES4_EPS2_EEvT0_S9_T_
1773:__ZNSt3__227__insertion_sort_incompleteIRPFbRKN18AwakeFromLoadQueue4ItemES4_EPS2_EEbT0_S9_T_
1774:__ZN15dense_hashtableINSt3__24pairIKiP6ObjectEEi21InstanceIDHashFunctorN14dense_hash_mapIiS4_S6_NS0_8equal_toIiEE13stl_allocatorIS5_L18MemLabelIdentifier65ELi16EEE9SelectKeyES9_SC_E12resize_deltaEjj
1775:__ZN15dense_hashtableINSt3__24pairIKiP6ObjectEEi21InstanceIDHashFunctorN14dense_hash_mapIiS4_S6_NS0_8equal_toIiEE13stl_allocatorIS5_L18MemLabelIdentifier65ELi16EEE9SelectKeyES9_SC_E12maybe_shrinkEv
1776:__ZN15dense_hashtableINSt3__24pairIKiP6ObjectEEi21InstanceIDHashFunctorN14dense_hash_mapIiS4_S6_NS0_8equal_toIiEE13stl_allocatorIS5_L18MemLabelIdentifier65ELi16EEE9SelectKeyES9_SC_E9copy_fromERKSF_j
1777:__ZN18AwakeFromLoadQueue3AddER6ObjectPK8TypeTreeb17AwakeFromLoadMode
1778:__ZN18AwakeFromLoadQueue19DetermineQueueIndexEPKN5Unity4TypeER6Object
1779:__Z24GetExecutionOrderManagerv
1780:__ZNK21ExecutionOrderManager30GetCustomAwakeFromLoadQueueForEPKN5Unity4TypeE
1781:__ZNK15dense_hashtableINSt3__24pairIKi17ThreadedAwakeDataEEi21InstanceIDHashFunctorN14dense_hash_mapIiS3_S5_NS0_8equal_toIiEENS0_9allocatorIS4_EEE9SelectKeyES8_SA_E13find_positionERS2_
1782:__ZN17PersistentManager26GetStreamNameSpaceInternalEi
1783:__ZNK14SerializedFile11IsAvailableEx
1784:__ZN17PersistentManager32CreateThreadActivationQueueEntryER14SerializedFile26SerializedObjectIdentifierib
1785:__ZN14SerializedFile10ReadObjectEx18ObjectCreationModebPPK8TypeTreePbR6Object
1786:__Z16GenerateTypeTreeRK6ObjectR8TypeTree24TransferInstructionFlags
1787:__Z26IsStreamedBinaryCompatibleRK16TypeTreeIteratorS1_
1788:__ZN6Object15SetIsPersistentEb
1789:__ZNK6Object14GetMemoryLabelEv
1790:__ZN14SafeBinaryRead4InitERK16TypeTreeIteratorxx24TransferInstructionFlags18MemLabelIdentifier
1791:__ZN12CachedReader8InitReadER15CacheReaderBasejj
1792:__ZN12CachedReader3EndEv
1793:__ZL23OutOfBoundsReadingErrorPKN5Unity4TypeEiiR6Object
1794:__ZN12CachedReader18InitResourceImagesER18ResourceImageGroup
1795:__ZN12CachedReaderC2Ev
1796:__ZN14SafeBinaryReadD2Ev
1797:__ZNK10MonoScript22GetScriptFullClassNameEv
1798:__ZN12CachedReader16OutOfBoundsErrorEjj
1799:__ZN14SafeBinaryReadC2Ev
1800:__ZN8TypeTreeaSERKS_
1801:__Z29scripting_class_instance_size17ScriptingClassPtr
1802:__ZN24GenerateTypeTreeTransfer18SetScriptingObjectE18ScriptingObjectPtri
1803:__ZN24GenerateTypeTreeTransferC2ER8TypeTree24TransferInstructionFlagsPvi
1804:__ZN8TypeTreeC2E18MemLabelIdentifier
1805:__ZN17PersistentManager21ProduceObjectInternalER14SerializedFile26SerializedObjectIdentifierii
1806:__ZN15dense_hashtableINSt3__24pairIKi17ThreadedAwakeDataEEi21InstanceIDHashFunctorN14dense_hash_mapIiS3_S5_NS0_8equal_toIiEENS0_9allocatorIS4_EEE9SelectKeyES8_SA_E12resize_deltaEjj
1807:__ZN15dense_hashtableINSt3__24pairIKi17ThreadedAwakeDataEEi21InstanceIDHashFunctorN14dense_hash_mapIiS3_S5_NS0_8equal_toIiEENS0_9allocatorIS4_EEE9SelectKeyES8_SA_E12maybe_shrinkEv
1808:__ZN15dense_hashtableINSt3__24pairIKi17ThreadedAwakeDataEEi21InstanceIDHashFunctorN14dense_hash_mapIiS3_S5_NS0_8equal_toIiEENS0_9allocatorIS4_EEE9SelectKeyES8_SA_E9copy_fromERKSD_j
1809:__ZN14SerializedFile14GetProduceDataExRPKN5Unity4TypeER31LocalSerializedObjectIdentifierR18MemLabelIdentifier
1810:__ZN6Object7ProduceEPKN5Unity4TypeEi18MemLabelIdentifier18ObjectCreationMode
1811:__ZN8Remapper23GetOrGenerateInstanceIDERK26SerializedObjectIdentifier
1812:__Z38PreallocateObjectFromPersistentManagerib
1813:__ZN10MonoScript8GetClassEv
1814:__ZN13MonoBehaviour19RebuildMonoInstanceE17ScriptingClassPtr18ScriptingObjectPtrP10MonoScript
1815:__ZNK15MonoScriptCache7ReleaseEv
1816:__ZN13MonoBehaviour19SetupScriptingCacheE17ScriptingClassPtrP10MonoScript
1817:__Z14IsWorldPlayingv
1818:__Z17IsValidScriptType14MonoScriptType
1819:__ZN13MonoBehaviour22GetScriptFullClassNameEv
1820:__Z21FormatScriptTypeError14MonoScriptTypeRKN4core12basic_stringIcNS0_20StringStorageDefaultIcEEEE
1821:__Z64scripting_unity_engine_object_new_and_invoke_default_constructor17ScriptingClassPtrP6ObjectP21ScriptingExceptionPtr
1822:__ZN9Scripting31ConnectScriptingWrapperToObjectE18ScriptingObjectPtrP6Object
1823:__ZN9Scripting30SetCachedPtrOnScriptingWrapperE18ScriptingObjectPtrP6Object
1824:__Z29scripting_class_get_namespace17ScriptingClassPtr
1825:__Z27FindOrCreateMonoScriptCache17ScriptingClassPtr22InitScriptingCacheTypeP6Objecti
1826:__ZNK15MonoScriptCache6RetainEv
1827:__ZN16ScriptingManager19RegisterScriptCacheEP15MonoScriptCache
1828:__ZNSt3__23mapIiP15MonoScriptCacheNS_4lessIiEE13stl_allocatorINS_4pairIKiS2_EEL18MemLabelIdentifier76ELi16EEEixERS7_
1829:__ZN16ScriptingManager18GetMonoScriptCacheEi
1830:__Z18BuildScriptClassId17ScriptingClassPtr
1831:__Z21CreateMonoScriptCacheRKN4core12basic_stringIcNS_20StringStorageDefaultIcEEEE17ScriptingClassPtr22InitScriptingCacheTypeP6Objecti
1832:__Z27scripting_class_is_abstract17ScriptingClassPtr
1833:__Z27scripting_class_is_inflated17ScriptingClassPtr
1834:__Z30scripting_class_is_subclass_of17ScriptingClassPtrS_
1835:__ZN14MessageHandler3GetEv
1836:__Z27scripting_class_get_methods17ScriptingClassPtrRNSt3__26vectorI18ScriptingMethodPtr13stl_allocatorIS2_L18MemLabelIdentifier1ELi16EEEE
1837:__Z28scripting_method_is_instance18ScriptingMethodPtr
1838:__ZNSt3__23mapIPKc18ScriptingMethodPtr14CStringCompare13stl_allocatorINS_4pairIKS2_S3_EEL18MemLabelIdentifier1ELi16EEEixERS7_
1839:__Z35scripting_method_get_argument_count18ScriptingMethodPtr
1840:__Z31scripting_method_get_returntype18ScriptingMethodPtr
1841:__Z25scripting_class_from_type16ScriptingTypePtr
1842:__ZNSt3__26__treeINS_12__value_typeIPKc18ScriptingMethodPtrEENS_19__map_value_compareIS3_S5_14CStringCompareLb1EEE13stl_allocatorIS5_L18MemLabelIdentifier1ELi16EEE7destroyEPNS_11__tree_nodeIS5_PvEE
1843:__ZN14MessageHandler28MessageIDToMessageIdentifierEi
1844:__Z25GetCommonScriptingClassesv
1845:__Z37scripting_method_get_nth_argumenttype18ScriptingMethodPtri
1846:__Z25scripting_class_from_name17ScriptingImagePtrPKcS1_
1847:__ZN16ScriptingManager27NativeTypeForScriptingClassE17ScriptingClassPtr
1848:__ZN9Scripting25GetTypeFromScriptingClassE17ScriptingClassPtr
1849:__Z26GetManagedAttributeManagerv
1850:__ZN23ManagedAttributeManager24GetDefaultExecutionOrderE17ScriptingClassPtr
1851:__ZN23ManagedAttributeManager35CallManagedGetDefaultExecutionOrderE17ScriptingClassPtr
1852:__Z26scripting_class_get_object17ScriptingClassPtr
1853:__ZN5Unity4Type14FindTypeByNameEPKcNS0_22CaseSensitivityOptionsE
1854:__ZN11TypeManager19ClassNameToTypeInfoEPKcb
1855:__ZNK15dense_hashtableINSt3__24pairIKPKcPK4RTTIEES3_N11TypeManager23ConstCharPtrHashFunctorEN14dense_hash_mapIS3_S7_SA_NS9_19ConstCharPtrEqualToE13stl_allocatorIS8_L18MemLabelIdentifier6ELi16EEE9SelectKeyESC_SF_E23find_position_with_hashERS4_j
1856:__ZN14dense_hash_mapIPKcPK4RTTIN11TypeManager23ConstCharPtrHashFunctorENS5_19ConstCharPtrEqualToE13stl_allocatorINSt3__24pairIKS1_S4_EEL18MemLabelIdentifier6ELi16EEE5beginEv
1857:__Z33RenderImageFilterValidateCallback18ScriptingMethodPtr17ScriptingClassPtrP6Object
1858:__Z31AudioFilterReadValidateCallback18ScriptingMethodPtr17ScriptingClassPtrP6Object
1859:__Z21CheckMethodParameters18ScriptingMethodPtr17ScriptingClassPtrPS0_jP6ObjectR11MonoManager
1860:__ZNSt3__26vectorI18ScriptingMethodPtr13stl_allocatorIS1_L18MemLabelIdentifier1ELi16EEE21__push_back_slow_pathIKS1_EEvRT_
1861:__Z26GetScriptClassIdComponents17ScriptingClassPtrRN4core17string_with_labelILi1EEES3_S3_
1862:__Z32scripting_class_get_assemblyname17ScriptingClassPtr
1863:__ZL21AppendNestedClassName17ScriptingClassPtrRN4core17string_with_labelILi1EEE
1864:__Z34scripting_class_get_declaring_type17ScriptingClassPtr
1865:__ZN16ScriptingManager24NotifyScriptCacheReleaseEi
1866:__ZNK4PPtrI6ObjectEcvPS0_Ev
1867:__ZN17PersistentManager25PreallocateObjectThreadedEi
1868:__ZN6Object33AllocateAndAssignInstanceIDNoLockEPS_
1869:__ZN17PersistentManager19RemapToAbsolutePathERKN4core12basic_stringIcNS0_20StringStorageDefaultIcEEEE
1870:__ZN14SerializedFile14InitializeReadERKN4core12basic_stringIcNS0_20StringStorageDefaultIcEEEER18ResourceImageGroupjj24TransferInstructionFlagsjj
1871:__ZN14SerializedFile7ReleaseEv
1872:i32u-rem
1873:__ZN17PersistentManager23PostLoadStreamNameSpaceER15StreamNameSpacei
1874:__ZNK14SerializedFile12GetHighestIDEv
1875:__ZNSt3__26vectorINS_4pairIiiEE13stl_allocatorIS2_L18MemLabelIdentifier37ELi16EEE6insertENS_11__wrap_iterIPKS2_EERS8_
1876:__ZN14SerializedFileD2Ev
1877:__ZN18ResourceImageGroup7CleanupEv
1878:__ZN20dynamic_block_vectorI14FileIdentifierE5clearEv
1879:__ZN13ResourceImageD2Ev
1880:__ZN14SerializedFile10ReadHeaderEv
1881:__Z13ReadFileCacheR15CacheReaderBasePvjj
1882:__ZN14SerializedFile12ReadMetadataILb0EEEbijPKhjj
1883:__ZN14SerializedFile12ReadMetadataILb1EEEbijPKhjj
1884:__ZN14SerializedFile27PatchRemapDeprecatedClassesEv
1885:__ZL30FindOrCreateTypeInfoForClassIDR13dynamic_arrayIN14SerializedFile14SerializedTypeELj8EEibsi
1886:__ZN5Unity4Type26FindTypeByPersistentTypeIDEi
1887:__ZN5Unity4Type41GetDeserializationStubForPersistentTypeIDEi
1888:__ZN11TypeManager41GetDeserializationStubForPersistentTypeIDEi
1889:__ZN15dense_hashtableINSt3__24pairIKiP4RTTIEEiN11TypeManager27HashFunctorPersistentTypeIDEN14dense_hash_mapIiS4_S7_NS0_8equal_toIiEE13stl_allocatorIS5_L18MemLabelIdentifier6ELi16EEE9SelectKeyESA_SD_E12resize_deltaEjj
1890:__ZN15dense_hashtableINSt3__24pairIKiP4RTTIEEiN11TypeManager27HashFunctorPersistentTypeIDEN14dense_hash_mapIiS4_S7_NS0_8equal_toIiEE13stl_allocatorIS5_L18MemLabelIdentifier6ELi16EEE9SelectKeyESA_SD_E12maybe_shrinkEv
1891:__ZN15dense_hashtableINSt3__24pairIKiP4RTTIEEiN11TypeManager27HashFunctorPersistentTypeIDEN14dense_hash_mapIiS4_S7_NS0_8equal_toIiEE13stl_allocatorIS5_L18MemLabelIdentifier6ELi16EEE9SelectKeyESA_SD_E9copy_fromERKSG_j
1892:__ZL10ReadStringRN4core12basic_stringIcNS_20StringStorageDefaultIcEEEERPKhS6_
1893:__ZN13dynamic_arrayIN14SerializedFile14SerializedTypeELj8EE18resize_initializedEjRKS1_12ResizePolicy
1894:__ZN14SerializedFile14SerializedType8ReadTypeILb1EEEbibRPKhS3_Pi
1895:__ZL26ExtractScriptTypeReferenceRK16TypeTreeIteratorjR15CacheReaderBasebR31LocalSerializedObjectIdentifier
1896:__ZNSt3__26vectorINS_4pairIxN14SerializedFile10ObjectInfoEEENS_9allocatorIS4_EEE21__push_back_slow_pathIKS4_EEvRT_
1897:__ZN20dynamic_block_vectorI14FileIdentifierE22push_back_no_constructEv
1898:__ZNSt3__26__treeINS_12__value_typeIiiEENS_19__map_value_compareIiS2_NS_4lessIiEELb1EEENS_9allocatorIS2_EEE7destroyEPNS_11__tree_nodeIS2_PvEE
1899:__ZNK16TypeTreeIterator8ChildrenEv
1900:__ZNK16TypeTreeIterator7GetNodeEv
1901:__ZNK16TypeTreeIterator4NameEv
1902:__ZNK16TypeTreeIterator4NextEv
1903:__Z12ReadTypeTreeR8TypeTreeRPKhS2_ib
1904:__ZN8TypeTree8BlobReadERPKhS1_ib
1905:__ZL16ReadTypeTreeImplILb1EEbR8TypeTreeRK16TypeTreeIteratorRPKhS6_i
1906:__ZL16ReadTypeTreeImplILb0EEbR8TypeTreeRK16TypeTreeIteratorRPKhS6_i
1907:__ZL12CreateStringPjR13dynamic_arrayIcLj1EEPKc
1908:__ZN8TypeTree8AddChildEj
1909:__Z20GetCommonStringTablev
1910:__ZNK17CommonStringTable16FindCommonStringEPKc
1911:__ZN14SerializedFile14SerializedType8ReadTypeILb0EEEbibRPKhS3_Pi
1912:__ZN14FileCacherReadC2ERKN4core12basic_stringIcNS0_20StringStorageDefaultIcEEEEjj
1913:__Z18PathToAbsolutePathRKN4core12basic_stringIcNS_20StringStorageDefaultIcEEEE
1914:__ZNK15FileSystemEntry4SizeEv
1915:__ZN14FileCacherReadD2Ev
1916:__ZN14FileCacherReadD0Ev
1917:__ZN14FileCacherRead10DirectReadEPvjj
1918:__ZN14FileCacherRead14LockCacheBlockEjPPhS1_
1919:__ZN14FileCacherRead16UnlockCacheBlockEj
1920:__ZN14FileCacherRead11GetPathNameEv
1921:__ZN14FileCacherRead13GetFileLengthEv
1922:__ZN15CacheReaderBase18GetAddressOfMemoryEv
1923:__ZN14FileCacherRead7RequestEiR16AsyncReadCommandRNS_10CacheBlockE
1924:__Z16AsyncReadRequestP16AsyncReadCommand
1925:__ZN13OpenFileCache10OpenCachedERKN4core12basic_stringIcNS0_20StringStorageDefaultIcEEEE
1926:__ZN4File4ReadEyPvj
1927:__ZN12FileAccessor4ReadEyyPvPy
1928:__ZN4File7IsValidEv
1929:__ZN4File5CloseEv
1930:__ZN4File4OpenERKN4core12basic_stringIcNS0_20StringStorageDefaultIcEEEENS_10PermissionENS_12AutoBehaviorE
1931:__ZN4File19OpenFileSystemEntryERK15FileSystemEntryNS_10PermissionENS_12AutoBehaviorE
1932:__ZN12FileAccessor5CloseEv
1933:__ZN13FileEntryDataaSERKS_
1934:__ZN12FileAccessor4OpenER15FileSystemEntry14FilePermission16FileAutoBehavior
1935:__ZN12FileAccessorC2Ev
1936:__Z23AsyncReadForceCloseFileRKN4core12basic_stringIcNS_20StringStorageDefaultIcEEEE
1937:__ZN14SerializedFileC2E18MemLabelIdentifier
1938:__ZN6Object18RegisterInstanceIDEPS_
1939:__Z24GetExecutionRestrictionsv
1940:__Z19CanReplaceComponentRN5Unity9ComponentEPKNS_4TypeEPN4core12basic_stringIcNS5_20StringStorageDefaultIcEEEE
1941:__ZNK10GameObject8IsActiveEv
1942:__ZN10GameObject17GetComponentIndexEPN5Unity9ComponentE
1943:__ZN10GameObject22RemoveComponentAtIndexEi
1944:__Z19DestroySingleObjectP6Object
1945:__Z26DestroyGameObjectHierarchyR10GameObject
1946:__ZN10GameObject10DeactivateE19DeactivateOperation
1947:__ZL19PreDestroyRecursiveR10GameObjectPj
1948:__ZN9Transform16RemoveFromParentENS_20RemoveFromParentModeE
1949:__ZL26DestroyGameObjectRecursiveR10GameObjectR11BatchDelete
1950:__Z28delete_object_internal_step1P6Object
1951:__Z28delete_object_internal_step2P6Object
1952:__ZN10MemoryPool10DeallocateEPv
1953:__ZN17PersistentManager22MakeObjectUnpersistentEi13UnpersistMode
1954:__ZN17PersistentManager23DestroyFromFileInternalEi
1955:__ZN8Remapper6RemoveEi
1956:__ZN32TransformHierarchyChangeDispatch26DispatchSelfAndAllChildrenE15TransformAccessNS_12InterestTypeE
1957:__ZN17TransformInternal20FreeTransformHandlesER18TransformHierarchyi
1958:__ZN32TransformHierarchyChangeDispatch22DispatchSelfAndParentsE15TransformAccessNS_12InterestTypeE
1959:__ZN5Unity9Component14SendMessageAnyERK17MessageIdentifierR11MessageData
1960:__ZN16MessageForwarder13HandleMessageEPviR11MessageData
1961:__ZN10GameObject21WillDestroyGameObjectEv
1962:__ZN10GameObject32ActivateAwakeRecursivelyInternalE19DeactivateOperationR18AwakeFromLoadQueue
1963:__ZN18AwakeFromLoadQueue13AwakeFromLoadE17AwakeFromLoadModeb
1964:__ZN18AwakeFromLoadQueue22InvokeCheckConsistencyEPNS_4ItemEj
1965:__ZL53SortBehaviourItemByExecutionOrderAndReverseInstanceIDRKN18AwakeFromLoadQueue4ItemES2_
1966:__ZNK21ExecutionOrderManager23GetScriptExecutionOrderEiPKN5Unity4TypeE
1967:__ZNK13MonoBehaviour17GetExecutionOrderEv
1968:__ZN18AwakeFromLoadQueueC2E18MemLabelIdentifier
1969:__ZNK13MonoBehaviour8GetClassEv
1970:__Z34FindRequiredComponentsForComponentPKN5Unity4TypeE
1971:__Z24GetComponentOrScriptNameRN5Unity9ComponentE
1972:__ZN13MonoBehaviour18GetScriptClassNameEv
1973:__Z6AppendRKN4core12basic_stringIcNS_20StringStorageDefaultIcEEEEPKc
1974:__ZNK6Object12GetClassNameEv
1975:__Z25InitComponentRequirementsv
1976:__ZNSt3__26__treeINS_12__value_typeIPKN5Unity4TypeE10vector_setIS5_NS_4lessIS5_EENS_9allocatorIS5_EEEEENS_19__map_value_compareIS5_SC_S8_Lb1EEENS9_ISC_EEE7destroyEPNS_11__tree_nodeISC_PvEE
1977:__Z19GetEngineModuleSpecv
1978:__ZNK5Unity4Type21FindAllDerivedClassesER13dynamic_arrayIPKS0_Lj4EENS0_17TypeFilterOptionsE
1979:__ZNSt3__26vectorIPKN5Unity4TypeENS_9allocatorIS4_EEE6assignIPS4_EENS_9enable_ifIXaasr21__is_forward_iteratorIT_EE5valuesr16is_constructibleIS4_NS_15iterator_traitsISB_E9referenceEEE5valueEvE4typeESB_SB_
1980:__ZNSt3__26__sortIRNS_4lessIPKN5Unity4TypeEEEPS5_EEvT0_S9_T_
1981:__ZL23AddConflictingClassIMPLPKN5Unity4TypeES2_
1982:__ZNSt3__26vectorIPKN5Unity4TypeENS_9allocatorIS4_EEE6insertENS_11__wrap_iterIPKS4_EERS9_
1983:__ZNSt3__27__sort5IRNS_4lessIPKN5Unity4TypeEEEPS5_EEjT0_S9_S9_S9_S9_T_
1984:__ZNSt3__227__insertion_sort_incompleteIRNS_4lessIPKN5Unity4TypeEEEPS5_EEbT0_S9_T_
1985:__ZN11TypeManager21FindAllDerivedClassesEPK4RTTIR13dynamic_arrayIS2_Lj4EEb
1986:__Z22SetManagerPtrInContextiP6Object
1987:__ZL32StaticInitializeIUnityInterfacesPv
1988:__ZL29StaticCleanupIUnityInterfacesPv
1989:__ZL30StaticInitializeIUnityGraphicsPv
1990:__ZL15GetRendererImplv
1991:__Z31RegisterDeviceEventCallbackImplPFv23UnityGfxDeviceEventTypeE
1992:__Z33UnregisterDeviceEventCallbackImplPFv23UnityGfxDeviceEventTypeE
1993:__ZNSt3__26__treeINS_12__value_typeI18UnityInterfaceGUIDP15IUnityInterfaceEENS_19__map_value_compareIS2_S5_NS_4lessIS2_EELb1EEE13stl_allocatorIS5_L18MemLabelIdentifier6ELi16EEE7destroyEPNS_11__tree_nodeIS5_PvEE
1994:__ZL16GetInterfaceImpl18UnityInterfaceGUID
1995:__ZL21GetInterfaceSplitImplyy
1996:__ZL21RegisterInterfaceImpl18UnityInterfaceGUIDP15IUnityInterface
1997:__ZL26RegisterInterfaceSplitImplyyP15IUnityInterface
1998:__ZN13RuntimeStaticINSt3__23setIPFv17ScriptingClassPtrR23CachedSerializationDataRbENS0_4lessIS7_EENS0_9allocatorIS7_EEEELb0EE13StaticDestroyEPv
1999:__ZN13RuntimeStaticI13dynamic_arrayIPK31TransferFunctionScriptingTraitsLj4EELb0EE16StaticInitializeEPv
2000:__ZN13RuntimeStaticI13dynamic_arrayIPK31TransferFunctionScriptingTraitsLj4EELb0EE13StaticDestroyEPv
2001:__ZNSt3__26__treeIPFv17ScriptingClassPtrR23CachedSerializationDataRbENS_4lessIS6_EENS_9allocatorIS6_EEE7destroyEPNS_11__tree_nodeIS6_PvEE
2002:__ZN13RuntimeStaticI13ModuleManagerLb0EE13StaticDestroyEPv
2003:__ZN13RuntimeStaticI19UnityPluginRegistryLb0EE16StaticInitializeEPv
2004:__ZN13RuntimeStaticI19UnityPluginRegistryLb0EE13StaticDestroyEPv
2005:__ZN13RuntimeStaticINSt3__23mapIN4core12basic_stringIcNS2_20StringStorageDefaultIcEEEES6_NS0_4lessIS6_EE13stl_allocatorINS0_4pairIKS6_S6_EEL18MemLabelIdentifier12ELi16EEEELb0EE13StaticDestroyEPv
2006:__ZN22BuiltinResourceManager16StaticInitializeEPv
2007:__ZN22BuiltinResourceManager13StaticDestroyEPv
2008:__ZNSt3__26__treeINS_12__value_typeIN4core12basic_stringIcNS2_20StringStorageDefaultIcEEEES6_EENS_19__map_value_compareIS6_S7_NS_4lessIS6_EELb1EEE13stl_allocatorIS7_L18MemLabelIdentifier12ELi16EEE7destroyEPNS_11__tree_nodeIS7_PvEE
2009:__ZN13RuntimeStaticI21AssetReferenceStorageLb0EE16StaticInitializeEPv
2010:__ZN13RuntimeStaticI21AssetReferenceStorageLb0EE13StaticDestroyEPv
2011:__ZN21ComponentRequirements16StaticInitializeEPv
2012:__ZN21ComponentRequirements13StaticDestroyEPv
2013:__ZN21AssetReferenceStorageD2Ev
2014:__ZN21AssetReferenceStorage22GarbageCollectCallbackEPS_R27GarbageCollectorThreadState
2015:__ZN21AssetReferenceStorageC2Ev
2016:__ZN15dense_hashtableINSt3__24pairIKiiEEi21InstanceIDHashFunctorN14dense_hash_mapIiiS4_NS0_8equal_toIiEE13stl_allocatorIS3_L18MemLabelIdentifier129ELi16EEE9SelectKeyES7_SA_E14squash_deletedEv
2017:__ZN15dense_hashtableINSt3__24pairIKiiEEi21InstanceIDHashFunctorN14dense_hash_mapIiiS4_NS0_8equal_toIiEE13stl_allocatorIS3_L18MemLabelIdentifier129ELi16EEE9SelectKeyES7_SA_E9copy_fromERKSD_j
2018:__ZN20FloatToHalfConverter26InitializePrecomputeTablesEPv
2019:__ZL28InitializeAtomicSafetyHandlePv
2020:__ZL25CleanupAtomicSafetyHandlePv
2021:__ZN18ConcurrentFreeListI16AtomicSafetyNodeE7CleanUpEv
2022:__ZN13RuntimeStaticI15GUIEventManagerLb0EE16StaticInitializeEPv
2023:__ZN13RuntimeStaticI15GUIEventManagerLb0EE13StaticDestroyEPv
2024:__ZN13RuntimeStaticI22VirtualJoystickManagerLb0EE16StaticInitializeEPv
2025:__ZN13RuntimeStaticI22VirtualJoystickManagerLb0EE13StaticDestroyEPv
2026:__ZN22VirtualJoystickManagerD2Ev
2027:__ZNSt3__212__deque_baseI10InputEventNS_9allocatorIS1_EEE5clearEv
2028:__ZN10InputEventD2Ev
2029:__ZN13RuntimeStaticI23MeshVertexFormatManagerLb0EE16StaticInitializeEPv
2030:__ZN13RuntimeStaticI23MeshVertexFormatManagerLb0EE13StaticDestroyEPv
2031:__ZNSt3__26__treeINS_12__value_typeI18VertexChannelsInfo16MeshVertexFormatEENS_19__map_value_compareIS2_S4_NS_4lessIS2_EELb1EEE13stl_allocatorIS4_L18MemLabelIdentifier16ELi16EEE7destroyEPNS_11__tree_nodeIS4_PvEE
2032:__ZN13RuntimeStaticI17UniqueIDGeneratorLb0EE16StaticInitializeEPv
2033:__ZN17UniqueIDGeneratorC2E18MemLabelIdentifier
2034:__Z25InitializeLODGroupManagerPv
2035:__Z22CleanupLODGroupManagerPv
2036:__ZN15LODGroupManagerD2Ev
2037:__ZN17UniqueIDGenerator7CleanupEv
2038:__ZN17UniqueIDGenerator16DestroyPureIndexEj
2039:__ZN15LODGroupManagerC2E18MemLabelIdentifier
2040:__ZN17UniqueIDGenerator15CreatePureIndexEv
2041:__ZN17UniqueIDGenerator8CreateIDEv
2042:__ZN21BillboardBatchManager16StaticInitializeEPv
2043:__ZN21BillboardBatchManager13StaticCleanupEPv
2044:__Z28BuildSingleStreamChannelInfo17ShaderChannelMaskRK20VertexChannelsLayoutP11ChannelInfo
2045:__Z26GetMeshVertexFormatManagerv
2046:__ZN23MeshVertexFormatManager19GetMeshVertexFormatERK18VertexChannelsInfo
2047:__ZNK18VertexChannelsInfoltERKS_
2048:__ZNSt3__26vectorINS_4pairIyP17VertexDeclarationEENS_9allocatorIS4_EEE6assignIPS4_EENS_9enable_ifIXaasr21__is_forward_iteratorIT_EE5valuesr16is_constructibleIS4_NS_15iterator_traitsISB_E9referenceEEE5valueEvE4typeESB_SB_
2049:__ZNSt3__26__treeINS_12__value_typeI18VertexChannelsInfo16MeshVertexFormatEENS_19__map_value_compareIS2_S4_NS_4lessIS2_EELb1EEE13stl_allocatorIS4_L18MemLabelIdentifier16ELi16EEE12__find_equalIS2_EERPNS_16__tree_node_baseIPvEENS_21__tree_const_iteratorIS4_PNS_11__tree_nodeIS4_SF_EEiEESI_RKT_
2050:__ZL31InitializeRendererUpdateManagerPv
2051:__ZL28CleanupRendererUpdateManagerPv
2052:__ZL50StaticRegisterSceneLoadedCallback_LightmapSettingsPv
2053:__ZL52StaticUnregisterSceneLoadedCallback_LightmapSettingsPv
2054:__ZN15dense_hashtableINSt3__24pairIKiiEEi21InstanceIDHashFunctorN14dense_hash_mapIiiS4_NS0_8equal_toIiEE13stl_allocatorIS3_L18MemLabelIdentifier65ELi16EEE9SelectKeyES7_SA_E14squash_deletedEv
2055:__ZL36PostLoadSceneStatic_LightmapSettingsiR18AwakeFromLoadQueueN19RuntimeSceneManager11LoadingModeE
2056:__ZL14DidUnloadScenei
2057:__ZN16LightmapSettings20DidChangeActiveSceneEP10UnitySceneS1_
2058:__ZNK10UnityScene19GetLevelGameManagerEi
2059:__ZN21EnlightenSceneMappingaSERKS_
2060:__ZN16LightmapSettings7RebuildEv
2061:__ZN16LightmapSettings28SetDynamicGILightmapTexturesEPK22RealtimeLightmapIDDataj
2062:__Znaj
2063:__ZN26SharedLightmapSettingsDataD2Ev
2064:__ZN26SharedLightmapSettingsDataD0Ev
2065:__ZN10builtintex17GetBlackTextureIDEv
2066:__ZNSt3__26vectorINS_4pairIijEENS_9allocatorIS2_EEE6assignIPS2_EENS_9enable_ifIXaasr21__is_forward_iteratorIT_EE5valuesr16is_constructibleIS2_NS_15iterator_traitsIS9_E9referenceEEE5valueEvE4typeES9_S9_
2067:__ZNK21EnlightenSceneMapping14FindSceneIndexEi
2068:__ZN21EnlightenSceneMapping5EraseEi
2069:__ZN16LightmapSettings15RemoveLightmapsEi
2070:__Z26ExtractAllRenderersInSceneR13dynamic_arrayIP8RendererLj4EE
2071:__ZN6Object17FindObjectsOfTypeEPKN5Unity4TypeER13dynamic_arrayIPS_Lj4EEb
2072:__ZNSt3__26__sortIR17CompareInstanceIDPP6ObjectEEvT0_S6_T_
2073:__ZNSt3__27__sort5IR17CompareInstanceIDPP6ObjectEEjT0_S6_S6_S6_S6_T_
2074:__ZNSt3__227__insertion_sort_incompleteIR17CompareInstanceIDPP6ObjectEEbT0_S6_T_
2075:__Z14FindSceneIndexRK13dynamic_arrayI10SceneRangeLj4EEi
2076:__ZNSt3__26vectorINS_4pairIijEENS_9allocatorIS2_EEE21__push_back_slow_pathIKS2_EEvRT_
2077:__ZN13sorted_vectorINSt3__24pairIijEEN10vector_mapIijNS0_4lessIiEENS0_9allocatorIS2_EEE13value_compareES7_E21sort_clear_duplicatesEv
2078:__ZnwjRKSt9nothrow_t
2079:__ZNSt3__213__stable_sortIRN10vector_mapIijNS_4lessIiEENS_9allocatorINS_4pairIijEEEEE13value_compareENS_11__wrap_iterIPS6_EEEEvT0_SE_T_NS_15iterator_traitsISE_E15difference_typeEPNSH_10value_typeEi
2080:__ZNSt3__218__stable_sort_moveIRN10vector_mapIijNS_4lessIiEENS_9allocatorINS_4pairIijEEEEE13value_compareENS_11__wrap_iterIPS6_EEEEvT0_SE_T_NS_15iterator_traitsISE_E15difference_typeEPNSH_10value_typeE
2081:__ZNSt3__215__inplace_mergeIRN10vector_mapIijNS_4lessIiEENS_9allocatorINS_4pairIijEEEEE13value_compareENS_11__wrap_iterIPS6_EEEEvT0_SE_SE_T_NS_15iterator_traitsISE_E15difference_typeESI_PNSH_10value_typeEi
2082:__ZNSt3__224__buffered_inplace_mergeIRN10vector_mapIijNS_4lessIiEENS_9allocatorINS_4pairIijEEEEE13value_compareENS_11__wrap_iterIPS6_EEEEvT0_SE_SE_T_NS_15iterator_traitsISE_E15difference_typeESI_PNSH_10value_typeE
2083:__Z17MergeLightmapDataiR18AwakeFromLoadQueue
2084:__ZN21EnlightenSceneMapping14SetSceneHandleEi
2085:__Z24InitializeMainSceneRangeiiR13dynamic_arrayI10SceneRangeLj4EE
2086:__ZN16LightmapSettings15AppendLightmapsEiRK13dynamic_arrayI12LightmapDataLj4EE
2087:__ZN21EnlightenSceneMapping6AppendEiRKS_
2088:__ZNK11LightProbes14LightProbeData12GetNumProbesEv
2089:__Z16AppendSceneRangeiiiR13dynamic_arrayI10SceneRangeLj4EE
2090:__ZN13dynamic_arrayI28EnlightenRendererInformationLj8EE6insertEPS0_PKS0_S4_
2091:__ZN13dynamic_arrayI26EnlightenSystemInformationLj8EE6insertEPS0_PKS0_S4_
2092:__ZN13dynamic_arrayI31EnlightenSystemAtlasInformationLj8EE6insertEPS0_PKS0_S4_
2093:__ZN13dynamic_arrayI33EnlightenTerrainChunksInformationLj4EE6insertEPS0_PKS0_S4_
2094:__ZN10Matrix4x4f11SetIdentityEv
2095:__ZN18AsyncUploadManager16StaticInitializeEPv
2096:__ZN18AsyncUploadManager13StaticDestroyEPv
2097:__ZN18AsyncUploadManagerD2Ev
2098:__ZN18ConcurrentFreeListI28FileTextureUploadInstructionE7CleanUpEv
2099:__Z23DestroyMutexLockedQueueP16MutexLockedQueue
2100:__ZN18AsyncUploadManagerC2Ev
2101:__Z22CreateMutexLockedQueuev
2102:__ZN23InstancedPropInfoStaticL16RegisterCallbackEPv
2103:__ZN23InstancedPropInfoStaticL18UnregisterCallbackEPv
2104:__ZN33InstancedMeshIntermediateRenderer16StaticInitializeEPv
2105:__ZN33InstancedMeshIntermediateRenderer13StaticDestroyEPv
2106:__ZN32IndirectMeshIntermediateRenderer16StaticInitializeEPv
2107:__ZN32IndirectMeshIntermediateRenderer13StaticDestroyEPv
2108:__ZN17InstancedPropInfo21OnGraphicsCapsChangedEv
2109:__Z15GetGraphicsCapsv
2110:__ZN10Matrix4x4fC2EPKf
2111:__ZN15GlobalCallbacksC2Ev
2112:__ZN17CommonStringTable16StaticInitializeEPv
2113:__ZN17CommonStringTable13StaticCleanupEPv
2114:__ZN17CommonStringTableC2E18MemLabelIdentifier
2115:__ZL24CleanupPrepassRenderLoopPv
2116:__ZN19CullingGroupManager15InitializeClassEPv
2117:__ZN19CullingGroupManager12CleanupClassEPv
2118:__ZL14CleanupShadowsPv
2119:__ZN13RuntimeStaticI13RendererSceneLb0EE16StaticInitializeEPv
2120:__ZN13RuntimeStaticI13RendererSceneLb0EE13StaticDestroyEPv
2121:__ZN13RendererSceneD2Ev
2122:__ZN21IntermediateRenderers5ClearEj
2123:__Z29GetOcclusionPortalManagerListv
2124:__ZN13RendererScene14RemoveRendererEi
2125:__ZN13RendererScene28SceneAfterCullingOutputReadyEPK9IndexListPK16RendererCullData
2126:__ZN13RendererScene16UpdateVisibilityEPK9IndexList
2127:__ZN13RendererSceneC2Ev
2128:__ZN13RuntimeStaticI12FlareManagerLb0EE13StaticDestroyEPv
2129:__ZL25CleanupImageFilterGlobalsPv
2130:__ZN24MeshIntermediateRenderer16StaticInitializeEPv
2131:__ZN24MeshIntermediateRenderer13StaticDestroyEPv
2132:__ZN31CanvasBatchIntermediateRenderer16StaticInitializeEPv
2133:__ZN31CanvasBatchIntermediateRenderer13StaticDestroyEPv
2134:__ZNSt3__26__treeINS_12__value_typeIPK6CameraNS_6vectorIfNS_9allocatorIfEEEEEENS_19__map_value_compareIS4_S9_NS_4lessIS4_EELb1EEENS6_IS9_EEE7destroyEPNS_11__tree_nodeIS9_PvEE
2135:__ZL40DestroyRegisteredMessageIdentifiersArrayPv
2136:__ZN4core20StringStorageDefaultIcED2Ev
2137:__ZN17BaseObjectManager16StaticInitializeEPv
2138:__ZN17BaseObjectManager13StaticDestroyEPv
2139:__ZN13RuntimeStaticI12EventManagerLb1EE16StaticInitializeEPv
2140:__ZN13RuntimeStaticI12EventManagerLb1EE13StaticDestroyEPv
2141:__ZN11TypeManager21CleanupGlobalInstanceEv
2142:__ZNSt3__26__treeINS_12__value_typeIiN11TypeManager18TypeCallbackStructEEENS_19__map_value_compareIiS4_NS_4lessIiEELb1EEENS_9allocatorIS4_EEE7destroyEPNS_11__tree_nodeIS4_PvEE
2143:__ZN11TypeManager24InitializeGlobalInstanceEv
2144:__ZN6Object16StaticInitializeEv
2145:__ZN15dense_hashtableINSt3__24pairIKiP6ObjectEEi21InstanceIDHashFunctorN14dense_hash_mapIiS4_S6_NS0_8equal_toIiEE13stl_allocatorIS5_L18MemLabelIdentifier65ELi16EEE9SelectKeyES9_SC_E14squash_deletedEv
2146:__ZN11TypeManager12RegisterTypeERK20TypeRegistrationDesc
2147:__ZN11TypeManager27FatalErrorOnClassIDConflictEiPKc
2148:__ZN14dense_hash_mapIiP4RTTIN11TypeManager27HashFunctorPersistentTypeIDENSt3__28equal_toIiEE13stl_allocatorINS4_4pairIKiS1_EEL18MemLabelIdentifier6ELi16EEEixERS9_
2149:__ZN14dense_hash_mapIPKcPK4RTTIN11TypeManager23ConstCharPtrHashFunctorENS5_19ConstCharPtrEqualToE13stl_allocatorINSt3__24pairIKS1_S4_EEL18MemLabelIdentifier6ELi16EEEixERSB_
2150:__ZN15dense_hashtableINSt3__24pairIKPKcPK4RTTIEES3_N11TypeManager23ConstCharPtrHashFunctorEN14dense_hash_mapIS3_S7_SA_NS9_19ConstCharPtrEqualToE13stl_allocatorIS8_L18MemLabelIdentifier6ELi16EEE9SelectKeyESC_SF_E12resize_deltaEjj
2151:__ZN15dense_hashtableINSt3__24pairIKPKcPK4RTTIEES3_N11TypeManager23ConstCharPtrHashFunctorEN14dense_hash_mapIS3_S7_SA_NS9_19ConstCharPtrEqualToE13stl_allocatorIS8_L18MemLabelIdentifier6ELi16EEE9SelectKeyESC_SF_E15insert_noresizeERKS8_
2152:__ZN15dense_hashtableINSt3__24pairIKPKcPK4RTTIEES3_N11TypeManager23ConstCharPtrHashFunctorEN14dense_hash_mapIS3_S7_SA_NS9_19ConstCharPtrEqualToE13stl_allocatorIS8_L18MemLabelIdentifier6ELi16EEE9SelectKeyESC_SF_E12maybe_shrinkEv
2153:__ZN15dense_hashtableINSt3__24pairIKPKcPK4RTTIEES3_N11TypeManager23ConstCharPtrHashFunctorEN14dense_hash_mapIS3_S7_SA_NS9_19ConstCharPtrEqualToE13stl_allocatorIS8_L18MemLabelIdentifier6ELi16EEE9SelectKeyESC_SF_E9copy_fromERKSI_j
2154:__ZN11TypeManagerC2ERN4RTTI16RuntimeTypeArrayE
2155:__ZN13RuntimeStaticI18AssetBundleManagerLb0EE16StaticInitializeEPv
2156:__ZN13RuntimeStaticI18AssetBundleManagerLb0EE13StaticDestroyEPv
2157:__ZN13RuntimeStaticI18AssetBundleManagerLb0EE7DestroyEv
2158:__ZN15dense_hashtableINSt3__24pairIKN4core12basic_stringIcNS2_20StringStorageDefaultIcEEEEP11AssetBundleEES6_20StringHash32FunctionIS6_EN14dense_hash_mapIS6_S9_SC_NS0_8equal_toIS6_EENS0_9allocatorISA_EEE9SelectKeyESF_SH_ED2Ev
2159:__ZN14ConstantStringD2Ev
2160:__ZN18AssetBundleManagerC2Ev
2161:__ZN15dense_hashtableINSt3__24pairIKP29AssetBundleLoadAssetOperationbEES3_19PointerHashFunctionIS3_EN14dense_hash_mapIS3_bS7_NS0_8equal_toIS3_EENS0_9allocatorIS5_EEE9SelectKeyESA_SC_E14squash_deletedEv
2162:__ZN15dense_hashtableINSt3__24pairIKN4core12basic_stringIcNS2_20StringStorageDefaultIcEEEEP11AssetBundleEES6_20StringHash32FunctionIS6_EN14dense_hash_mapIS6_S9_SC_NS0_8equal_toIS6_EENS0_9allocatorISA_EEE9SelectKeyESF_SH_E13set_empty_keyERKSA_
2163:__ZN14dense_hash_mapIN4core12basic_stringIcNS0_20StringStorageDefaultIcEEEEP11AssetBundle20StringHash32FunctionIS4_ENSt3__28equal_toIS4_EENS9_9allocatorINS9_4pairIKS4_S6_EEEEE15set_deleted_keyERSE_
2164:__ZN15dense_hashtableINSt3__24pairIKN4core12basic_stringIcNS2_20StringStorageDefaultIcEEEEP11AssetBundleEES6_20StringHash32FunctionIS6_EN14dense_hash_mapIS6_S9_SC_NS0_8equal_toIS6_EENS0_9allocatorISA_EEE9SelectKeyESF_SH_EC2ERKSK_j
2165:__ZN15dense_hashtableINSt3__24pairIKN4core12basic_stringIcNS2_20StringStorageDefaultIcEEEEP11AssetBundleEES6_20StringHash32FunctionIS6_EN14dense_hash_mapIS6_S9_SC_NS0_8equal_toIS6_EENS0_9allocatorISA_EEE9SelectKeyESF_SH_E4swapERSK_
2166:__ZN15dense_hashtableINSt3__24pairIKN4core12basic_stringIcNS2_20StringStorageDefaultIcEEEEP11AssetBundleEES6_20StringHash32FunctionIS6_EN14dense_hash_mapIS6_S9_SC_NS0_8equal_toIS6_EENS0_9allocatorISA_EEE9SelectKeyESF_SH_E9copy_fromERKSK_j
2167:__ZN15dense_hashtableINSt3__24pairIKN4core12basic_stringIcNS2_20StringStorageDefaultIcEEEEP11AssetBundleEES6_20StringHash32FunctionIS6_EN14dense_hash_mapIS6_S9_SC_NS0_8equal_toIS6_EENS0_9allocatorISA_EEE9SelectKeyESF_SH_E5clearEv
2168:__ZN15dense_hashtableINSt3__24pairIKN4core12basic_stringIcNS2_20StringStorageDefaultIcEEEEP11AssetBundleEES6_20StringHash32FunctionIS6_EN14dense_hash_mapIS6_S9_SC_NS0_8equal_toIS6_EENS0_9allocatorISA_EEE9SelectKeyESF_SH_E12expand_arrayEjN21dense_hash_map_traits17integral_constantIbLb0EEE
2169:__ZN30dense_hashtable_const_iteratorINSt3__24pairIKN4core12basic_stringIcNS2_20StringStorageDefaultIcEEEEP11AssetBundleEES6_20StringHash32FunctionIS6_EN14dense_hash_mapIS6_S9_SC_NS0_8equal_toIS6_EENS0_9allocatorISA_EEE9SelectKeyESF_SH_EC2EPK15dense_hashtableISA_S6_SC_SJ_SF_SH_EPKSA_SQ_b
2170:__ZN30dense_hashtable_const_iteratorINSt3__24pairIKN4core12basic_stringIcNS2_20StringStorageDefaultIcEEEEP11AssetBundleEES6_20StringHash32FunctionIS6_EN14dense_hash_mapIS6_S9_SC_NS0_8equal_toIS6_EENS0_9allocatorISA_EEE9SelectKeyESF_SH_EppEv
2171:__ZN15dense_hashtableINSt3__24pairIKP29AssetBundleLoadAssetOperationbEES3_19PointerHashFunctionIS3_EN14dense_hash_mapIS3_bS7_NS0_8equal_toIS3_EENS0_9allocatorIS5_EEE9SelectKeyESA_SC_E9copy_fromERKSF_j
2172:__ZN13RuntimeStaticI12AdsIdHandlerLb0EE16StaticInitializeEPv
2173:__ZN13RuntimeStaticI12AdsIdHandlerLb0EE13StaticDestroyEPv
2174:__ZN13RuntimeStaticI15ApplicationInfoLb0EE16StaticInitializeEPv
2175:__ZN13RuntimeStaticI15ApplicationInfoLb0EE13StaticDestroyEPv
2176:__ZN13RuntimeStaticI15ApplicationInfoLb0EE7DestroyEv
2177:__ZN12AdsIdHandlerD2Ev
2178:__Z29InitializeSortingGroupManagerPv
2179:__Z26CleanupSortingGroupManagerPv
2180:__ZZ29InitializeSortingGroupManagerPvEN39PostLateUpdateSortingGroupsUpdatestruct7ForwardEv
2181:__ZN19SortingGroupManager6UpdateEv
2182:__ZN12_GLOBAL__N_116StaticInitializeEPv
2183:__ZN12_GLOBAL__N_113StaticDestroyEPv
2184:__ZN21SystemInfoStringCache16StaticInitializeEPv
2185:__ZN21SystemInfoStringCache13StaticDestroyEPv
2186:__ZNSt3__26__treeINS_12__value_typeIN4core12basic_stringIcNS2_20StringStorageDefaultIcEEEE9PrefValueEENS_19__map_value_compareIS6_S8_NS_4lessIS6_EELb1EEENS_9allocatorIS8_EEE7destroyEPNS_11__tree_nodeIS8_PvEE
2187:__ZNSt3__26__treeIiNS_4lessIiEENS_9allocatorIiEEE7destroyEPNS_11__tree_nodeIiPvEE
2188:_SendMessage
2189:_SendMessageFloat
2190:_SendMessageString
2191:_SetFullscreen
2192:_main
2193:__Z9SetupArgviPPKc
2194:__ZN13MemoryManager16StaticInitializeEv
2195:__Z9InitInputv
2196:__Z20scripting_gc_disablev
2197:__Z24InitializeIl2CppFromMainRKN4core12basic_stringIcNS_20StringStorageDefaultIcEEEES5_iPPKc
2198:__Z17RuntimeInitializev
2199:__Z33InitializeWebGLPersistentDataPathRKN4core12basic_stringIcNS_20StringStorageDefaultIcEEEE
2200:__ZL28PostprocessWebGLGraphicsCapsv
2201:__Z26PlayerInitEngineNoGraphicsRKN4core12basic_stringIcNS_20StringStorageDefaultIcEEEES5_
2202:__Z24PlayerInitEngineGraphicsb
2203:__ZN16ScriptingManager33RebuildNativeTypeToScriptingClassEv
2204:__Z20RegisterLogToConsolePFvRKN4core12basic_stringIcNS_20StringStorageDefaultIcEEEEiPKciiiiPFvRK11CppLogEntryEE
2205:__Z20PlayerLoadFirstSceneb
2206:__ZN7Cursors17InitializeCursorsEP9Texture2D8Vector2f
2207:__ZL8MainLoopv
2208:__Z19scripting_gc_enablev
2209:__Z29scripting_gc_collect_a_littlev
2210:__Z16GetScreenManagerv
2211:__ZN18ScreenManagerWebGL6UpdateEv
2212:__Z25GetShouldShowSplashScreenv
2213:__Z26IsSplashScreenFadeCompletev
2214:__Z16DrawSplashScreenb
2215:__Z11UpdateInputv
2216:__Z14GetPlayerPausev
2217:__Z14SetPlayerPause11PlayerPauseb
2218:__Z14SetIsBatchmodeb
2219:__Z25SetNeedToPerformRenderingb
2220:__Z10PlayerLoopv
2221:__Z17MainLoopKeepalivePv
2222:__Z18GetTargetFrameRatev
2223:__ZN11TimeManager13StepFixedTimeEv
2224:__Z19GetBuildSettingsPtrv
2225:__Z9GetIAudiov
2226:__ZN11TimeManager8SetPauseEb
2227:__ZN13ScreenManager18SetAllowCursorLockEb
2228:__Z20SetPlayerPauseDirect11PlayerPause
2229:__Z21SendMessageToEveryoneRK17MessageIdentifier11MessageData
2230:__ZN6Object21FindInstanceIDsOfTypeEPKN5Unity4TypeER13dynamic_arrayIiLj4EEb
2231:__ZN10GameObject14SendMessageAnyERK17MessageIdentifierR11MessageData
2232:__Z15GetInputManagerv
2233:__ZN12InputManager19SetJoystickPositionEiif
2234:__Z11StringToKeyRKN4core12basic_stringIcNS_20StringStorageDefaultIcEEEE
2235:__ZN12InputManager11SetKeyStateEib
2236:__ZL11UpdateTimerv
2237:__ZN14GraphicsHelper5ClearE13GfxClearFlagsRK10ColorRGBAffjR17ShaderPassContext
2238:__Z28SetupPixelCorrectCoordinatesv
2239:__Z19GetTimeSinceStartupv
2240:__Z30GetSplashScreenBackgroundColorv
2241:__Z25GetSplashScreenBackgroundRK5RectTIfE
2242:__ZN10builtintex15GetWhiteTextureEv
2243:__ZL8DrawQuadRK5RectTIfEfP7TextureRK10ColorRGBAfS2_
2244:__Z28GetSplashScreenBackgroundUvsRK5RectTIfE
2245:__ZNK6Sprite13GetRenderDataE20SpriteRenderDataMode
2246:__ZN22DeviceMVPMatricesStateD2Ev
2247:__Z22MultiplyMatrices4x4REFPK10Matrix4x4fS1_PS_
2248:__Z23ExtractProjectionPlanesRK10Matrix4x4fP5Plane
2249:__ZNK26PlayerSettingsSplashScreen33GetSplashScreenBackgroundPortraitEv
2250:__ZNK26PlayerSettingsSplashScreen39GetSplashScreenBackgroundPortraitAspectEv
2251:__ZNK26PlayerSettingsSplashScreen40GetSplashScreenBackgroundLandscapeAspectEv
2252:__ZN26PlayerSettingsSplashScreen37GetSplashScreenBackgroundLandscapeUvsEv
2253:__Z15GetScriptMapperv
2254:__ZN12ScriptMapper10FindShaderERKN4core12basic_stringIcNS0_20StringStorageDefaultIcEEEE
2255:__ZN8Material14CreateMaterialER6ShaderN6Object9HideFlagsEb
2256:__ZN8Material10SetTextureEN9ShaderLab16FastPropertyNameEP7Texture
2257:__ZN8Material11SetPassSlowEiR17ShaderPassContextib
2258:__Z25GetBuiltinResourceManagerv
2259:__ZNK22BuiltinResourceManager11GetResourceEPKN5Unity4TypeERKN4core12basic_stringIcNS4_20StringStorageDefaultIcEEEE
2260:__ZN8Material11SetPassFastEPN9ShaderLab4PassER17ShaderPassContextP6Shaderib
2261:__ZN8Material15BuildPropertiesEv
2262:__ZN8Material12UpdateHashesEv
2263:__Z26ApplyMaterialPassWithCacheRK18SharedMaterialDataR17ShaderPassContextP6ShaderPN9ShaderLab4PassEibPKNS6_10GrabPassesEPNS6_11SubProgramsE
2264:__ZN24MaterialDisplayListCache24GetCachedPassForMaterialERK18SharedMaterialDataPN9ShaderLab4PassE
2265:__ZN24MaterialDisplayListCache16CachedShaderPass9FindEntryERK16ShaderKeywordSet
2266:__ZN9ShaderLab4Pass9ApplyPassEjPK19ShaderPropertySheetR17ShaderPassContextP6ShaderiPKNS_10GrabPassesEPNS_11SubProgramsE
2267:__ZNK9ShaderLab11ShaderState16ApplyShaderStateEjPK19ShaderPropertySheetRK17ShaderPassContextP6ShaderPNS_4PassEPNS_11SubProgramsE
2268:__ZN9ShaderLab10GrabPasses13ApplyGrabPassERKNS_16FastPropertyNameER17ShaderPassContextRKS0_
2269:__Z16GetRenderManagerv
2270:__ZN13RenderManager19GetCurrentCameraPtrEv
2271:__ZN9ShaderLabL15GetSizedTextureEPK6CameraRKNS_16FastPropertyNameEbbRb
2272:__ZN13RenderTexture17SetGlobalPropertyERKN9ShaderLab16FastPropertyNameER17ShaderPassContext
2273:__ZN19ShaderPropertySheet23SetTextureWithPlacementEN9ShaderLab16FastPropertyNameEP7Texture8Vector2fS4_
2274:__ZN19ShaderPropertySheet18AddTextureFromInfoEN9ShaderLab16FastPropertyNameEPKNS0_25SerializedTexturePropertyE
2275:__ZN19ShaderPropertySheet17UpdateTextureInfoEiN9ShaderLab16FastPropertyNameEP7Textureb
2276:__ZN19ShaderPropertySheet37CreateTextureAuxPropertyUninitializedEN9ShaderLab16FastPropertyNameEPKc
2277:__ZNK9ShaderLab16FastPropertyName7GetNameEv
2278:__Z25GetBuiltinVectorParamNamei
2279:__Z25GetBuiltinMatrixParamNamei
2280:__Z25GetBuiltinTexEnvParamNamei
2281:__ZN9ShaderLab6TexEnv14SetTextureInfoE9TextureID16TextureDimension14VRTextureUsageRKNS_16FastPropertyNameE
2282:__Z22GetTextureDecodeValues16TextureUsageMode17TextureColorSpace
2283:__ZN9ShaderLab6TexEnvC2ERKNS_25SerializedTexturePropertyE
2284:__ZN13RenderTexture9GetActiveEi
2285:__ZNK6Camera13GetCameraRectEb
2286:__Z14RectfToRectIntRK5RectTIfE
2287:__Z22GetRenderBufferManagerv
2288:__ZN6Camera31GetRenderTextureFormatForCameraEbbb
2289:__ZN19RenderBufferManager17ReleaseTempBufferEP13RenderTexture
2290:__ZN19RenderBufferManager13GetTempBufferEii17DepthBufferFormat19RenderTextureFormatj22RenderTextureReadWrite14VRTextureUsagei
2291:__ZN13RenderTexture6CreateEv
2292:__ZN13RenderTexture24CorrectVerticalTexelSizeEb
2293:__ZN13RenderTexture10GrabPixelsEiiii
2294:__ZN7Texture13SetFilterModeEi
2295:__ZN13RenderTexture6CreateERK12ObjectHandleI17RenderSurface_TagP17RenderSurfaceBaseES6_
2296:__ZN13RenderTexture15DestroySurfacesEv
2297:__Z15IsDepthRTFormat19RenderTextureFormat
2298:__ZN9GfxDevice18AliasRenderSurfaceE9TextureIDP17RenderSurfaceBase
2299:__ZN16RenderTextureMap6UpdateEPK17RenderSurfaceBaseP13RenderTexture
2300:__ZN7Texture33SetStoredColorSpaceNoDirtyNoApplyE17TextureColorSpace
2301:__Z22CalculateMipMapCount3Diii
2302:__ZN15dense_hashtableINSt3__24pairIKPK17RenderSurfaceBaseP13RenderTextureEES4_19PointerHashFunctionIS4_EN14dense_hash_mapIS4_S7_SA_NS0_8equal_toIS4_EE13stl_allocatorIS8_L18MemLabelIdentifier65ELi16EEE9SelectKeyESD_SG_E12resize_deltaEjj
2303:__ZN15dense_hashtableINSt3__24pairIKPK17RenderSurfaceBaseP13RenderTextureEES4_19PointerHashFunctionIS4_EN14dense_hash_mapIS4_S7_SA_NS0_8equal_toIS4_EE13stl_allocatorIS8_L18MemLabelIdentifier65ELi16EEE9SelectKeyESD_SG_E15insert_noresizeERKS8_
2304:__ZN15dense_hashtableINSt3__24pairIKPK17RenderSurfaceBaseP13RenderTextureEES4_19PointerHashFunctionIS4_EN14dense_hash_mapIS4_S7_SA_NS0_8equal_toIS4_EE13stl_allocatorIS8_L18MemLabelIdentifier65ELi16EEE9SelectKeyESD_SG_E12maybe_shrinkEv
2305:__ZN15dense_hashtableINSt3__24pairIKPK17RenderSurfaceBaseP13RenderTextureEES4_19PointerHashFunctionIS4_EN14dense_hash_mapIS4_S7_SA_NS0_8equal_toIS4_EE13stl_allocatorIS8_L18MemLabelIdentifier65ELi16EEE9SelectKeyESD_SG_E9copy_fromERKSJ_j
2306:__ZN16RenderTextureMap6RemoveEPK17RenderSurfaceBase
2307:__ZN6Camera24OnRenderSurfaceDestroyedE12ObjectHandleI17RenderSurface_TagP17RenderSurfaceBaseEP13RenderTexture
2308:__ZN19RenderBufferManager13GetTempBufferE17RenderTextureDesc
2309:__ZNK6Camera24GetScreenViewportRectIntEv
2310:__ZN19RenderBufferManager24IsReusableWithParametersERKNSt3__24pairIK4PPtrI13RenderTextureE17RenderTextureDescEERKS6_
2311:__ZN7TextureC2E18MemLabelIdentifier18ObjectCreationMode
2312:__ZN13RenderTexture20SetRenderTextureDescERK17RenderTextureDesc
2313:__ZN10MemoryPool24RegisterStaticMemoryPoolEPS_
2314:__ZN10MemoryPool8AllocateEj
2315:__ZN15TextureSettings5ResetEv
2316:__ZN10MemoryPool14AllocNewBubbleEv
2317:__ZNSt3__26vectorIP10MemoryPool13stl_allocatorIS2_L18MemLabelIdentifier72ELi16EEE21__push_back_slow_pathIKS2_EEvRT_
2318:__ZN13RenderTexture14SetColorFormatE19RenderTextureFormat
2319:__ZN13RenderTexture9SetMipMapEb
2320:__ZN13RenderTexture12SetDimensionE16TextureDimension
2321:__ZN13RenderTextureD2Ev
2322:__ZN13RenderTextureD0Ev
2323:__ZN13RenderTexture17MainThreadCleanupEv
2324:__ZN13RenderTexture13AwakeFromLoadE17AwakeFromLoadMode
2325:__ZN7Texture16CheckConsistencyEv
2326:__ZN7Texture5ResetEv
2327:__ZNK13RenderTexture26GetTypeInfoVirtualInternalEv
2328:__ZNK13RenderTexture20GetRuntimeMemorySizeEv
2329:__ZN6Object24SetCachedScriptingObjectE18ScriptingObjectPtr
2330:__ZN13RenderTexture23VirtualRedirectTransferER19StreamedBinaryWriteILb0EE
2331:__ZN13RenderTexture23VirtualRedirectTransferER18StreamedBinaryReadILb0EE
2332:__ZN13RenderTexture23VirtualRedirectTransferER17RemapPPtrTransfer
2333:__ZN13RenderTexture23VirtualRedirectTransferER24GenerateTypeTreeTransfer
2334:__ZN13RenderTexture23VirtualRedirectTransferER14SafeBinaryRead
2335:__ZN13RenderTexture13ApplySettingsEv
2336:__ZNK13RenderTexture21GetShadowSamplingModeEv
2337:__ZNK13RenderTexture14IsDepthTextureEv
2338:__ZNK13RenderTexture13GetDataHeightEv
2339:__ZNK13RenderTexture20GetTextureLayerCountEv
2340:__ZNK13RenderTexture12GetDimensionEv
2341:__ZNK13RenderTexture10GetVRUsageEv
2342:__ZN7Texture33VerifyFileTextureUploadCompletionEv
2343:__ZNK13RenderTexture16ExtractImageImplEP14ImageReferenceNS0_8BlitModeEbi
2344:__Z21GetAsyncUploadManagerv
2345:__ZN18AsyncUploadManager12HasCompletedE10AsyncFence
2346:__Z18GetQualitySettingsv
2347:__ZN15TextureSettings38ClearUnsupportedSettingsForColorFormatE19RenderTextureFormat
2348:__ZNK15TextureSettings5ApplyE9TextureID16TextureDimensionb17TextureColorSpace18ShadowSamplingModeb
2349:__ZN14SafeBinaryRead13BeginTransferEPKcS1_PPFbPvRS_Eb
2350:__ZN13RenderTexture8TransferI14SafeBinaryReadEEvRT_
2351:__ZN14SafeBinaryRead11EndTransferEv
2352:__ZN7Texture8TransferI14SafeBinaryReadEEvRT_
2353:__ZN12CachedReader15UpdateReadCacheEPvj
2354:__ZN15SerializeTraitsI15TextureSettingsE8TransferI14SafeBinaryReadEEvRS0_RT_
2355:__ZN11NamedObject8TransferI14SafeBinaryReadEEvRT_
2356:__ZN14ConstantString6assignEPKc18MemLabelIdentifier
2357:__ZL4WalkRK16TypeTreeIteratorR12CachedReaderPxb
2358:__Z23GetAllowNameConversionsPK20AllowNameConversionsPKcS3_
2359:__ZNK16TypeTreeIterator4TypeEv
2360:__Z13FindConverterPKcS0_
2361:__ZN24GenerateTypeTreeTransfer13BeginTransferEPKcS1_Pc17TransferMetaFlags
2362:__ZN13RenderTexture8TransferI24GenerateTypeTreeTransferEEvRT_
2363:__ZN24GenerateTypeTreeTransfer11EndTransferEv
2364:__ZNK16TypeTreeIterator6FatherEv
2365:__ZN7Texture8TransferI24GenerateTypeTreeTransferEEvRT_
2366:__ZN24GenerateTypeTreeTransfer5AlignEv
2367:__ZN15TextureSettings8TransferI24GenerateTypeTreeTransferEEvRT_
2368:__ZNK16TypeTreeIterator4LastEv
2369:__ZN11NamedObject8TransferI24GenerateTypeTreeTransferEEvRT_
2370:__ZN24GenerateTypeTreeTransfer18BeginArrayTransferEPKcS1_Ri17TransferMetaFlags
2371:__ZN24GenerateTypeTreeTransfer16EndArrayTransferEv
2372:__ZN8TypeTree8AddChildERK16TypeTreeIterator
2373:__ZN8TypeTree16AssignTypeStringERK16TypeTreeIteratorPKc
2374:__ZN8TypeTree16AssignNameStringERK16TypeTreeIteratorPKc
2375:__ZN8TypeTree16AssignByteOffsetERK16TypeTreeIteratorj
2376:__ZN13RenderTexture8TransferI18StreamedBinaryReadILb0EEEEvRT_
2377:__ZN18StreamedBinaryReadILb0EE5AlignEv
2378:__ZN12CachedReader10Align4ReadEv
2379:__ZN11NamedObject8TransferI18StreamedBinaryReadILb0EEEEvRT_
2380:__ZN13RenderTexture8TransferI19StreamedBinaryWriteILb0EEEEvRT_
2381:__ZN12CachedWriter16UpdateWriteCacheEPKvj
2382:__ZN19StreamedBinaryWriteILb0EE5AlignEv
2383:__ZN12CachedWriter11Align4WriteEv
2384:__ZN11NamedObject8TransferI19StreamedBinaryWriteILb0EEEEvRT_
2385:__ZN17ScriptingGCHandle13AcquireStrongE18ScriptingObjectPtr
2386:__ZN17ScriptingGCHandle15ReleaseAndClearEv
2387:__ZN15TextureSettings16CheckConsistencyEv
2388:__ZN13RenderTexture7ReleaseEv
2389:__ZN6Camera24OnRenderTextureDestroyedEP13RenderTexture
2390:__ZN7Texture17MainThreadCleanupEv
2391:__ZN6Camera23SetTargetTextureBuffersEP13RenderTextureiP12ObjectHandleI17RenderSurface_TagP17RenderSurfaceBaseES6_PS1_
2392:__ZN6Camera11ResetAspectEv
2393:__ZN13RenderManager12RemoveCameraEP6Camera
2394:__ZN13RenderManager9AddCameraEP6Camera
2395:__ZN13RenderManager26SetCurrentCameraDeprecatedEP6Camera
2396:__ZNSt3__24listI4PPtrI6CameraENS_9allocatorIS3_EEE6removeERKS3_
2397:__ZNK6Camera16GetTargetTextureEv
2398:__ZNK6Camera16GetStereoEnabledEv
2399:__ZL19GetCameraTargetRectRK6Camerabb
2400:__ZN16RenderTextureMap5QueryEPK17RenderSurfaceBase
2401:__ZN13RenderTexture9SetActiveEiP12ObjectHandleI17RenderSurface_TagP17RenderSurfaceBaseES4_PPS_i11CubemapFaceiNS_14SetActiveFlagsE
2402:__ZN13RenderTexture9SetActiveERK20GfxRenderTargetSetupPPS_NS_14SetActiveFlagsE
2403:__ZN9GfxDevice16SetRenderTargetsERK20GfxRenderTargetSetup
2404:__ZNK6Camera20IsCurrentlyRenderingEv
2405:__ZN13RenderTexture15ThreadedCleanupEv
2406:__ZN11NamedObjectD2Ev
2407:__ZN11NamedObjectD0Ev
2408:__ZNK11NamedObject26GetTypeInfoVirtualInternalEv
2409:__ZN11NamedObject7SetNameEPKc
2410:__ZN11NamedObject23VirtualRedirectTransferER24GenerateTypeTreeTransfer
2411:__ZN11NamedObject23VirtualRedirectTransferER14SafeBinaryRead
2412:__ZN7TextureD2Ev
2413:__ZN7TextureD0Ev
2414:__ZNK7Texture26GetTypeInfoVirtualInternalEv
2415:__ZN7Texture23VirtualRedirectTransferER24GenerateTypeTreeTransfer
2416:__ZN7Texture23VirtualRedirectTransferER14SafeBinaryRead
2417:__ZN7Texture13ApplySettingsEv
2418:__ZN11NamedObjectC2E18MemLabelIdentifier18ObjectCreationMode
2419:__ZN6ObjectC2E18MemLabelIdentifier18ObjectCreationMode
2420:__ZN14ConstantString12create_emptyEv
2421:__ZN17ScriptingGCHandle7AcquireE18ScriptingObjectPtr25ScriptingGCHandleWeakness
2422:__ZNK6Object26GetTypeInfoVirtualInternalEv
2423:__ZNSt3__26__treeINS_12__value_typeI4PPtrI13RenderTextureE17RenderTextureDescEENS_19__map_value_compareIS4_S6_NS_4lessIS4_EELb1EEE11memory_poolIS6_EE5eraseENS_21__tree_const_iteratorIS6_PNS_11__tree_nodeIS6_PvEEiEE
2424:__ZN13RenderTexture10GrabPixelsE12ObjectHandleI17RenderSurface_TagP17RenderSurfaceBaseES4_iiii
2425:__ZN19ShaderPropertySheet38CopyTextureWithAuxiliaryPropertiesFromERKN9ShaderLab16FastPropertyNameERKS_
2426:__ZNK9ShaderLab11ShaderState20FindSubProgramsToUseEPK6ShaderPKNS_4PassERNS_11SubProgramsERK17ShaderPassContext
2427:__ZN14GraphicsHelper28PrepareShaderParameterBufferER13dynamic_arrayIhLj4EERA6_P10GpuProgramRA6_PK20GpuProgramParametersRA6_PKhRKN9ShaderLab11SubProgramsEPK19ShaderPropertySheetSM_
2428:__ZNK9ShaderLab11ShaderState17BuildDeviceStatesER9GfxDevicePK19ShaderPropertySheetS5_RNS0_12DeviceStatesE
2429:__ZN9ShaderLab11shaderprops8GetFloatEPK19ShaderPropertySheetS3_NS_16FastPropertyNameE
2430:__Z30GetBuiltinVectorParamArraySize24BuiltinShaderVectorParam
2431:__Z30GetBuiltinMatrixParamArraySize24BuiltinShaderMatrixParam
2432:__ZNK9ShaderLab20ShaderBlendStateDesc15ToGfxBlendStateEPK19ShaderPropertySheetS3_R13GfxBlendState
2433:__ZNK9ShaderLab21ShaderRasterStateDesc16ToGfxRasterStateEPK19ShaderPropertySheetS3_R14GfxRasterState
2434:__ZNK9ShaderLab22ShaderStencilStateDesc17ToGfxStencilStateEPK19ShaderPropertySheetS3_RK14GfxRasterStateR15GfxStencilState
2435:__ZNK20GpuProgramParameters13PrepareValuesEPK19ShaderPropertySheetS2_R13dynamic_arrayIhLj4EEjP12GfxPatchInfoPb
2436:__ZL22PrepareValueParametersI21FullParameterPreparerEvRK13dynamic_arrayIN20GpuProgramParameters14ValueParameterELj4EEjjjRS1_IhLj4EERKT_
2437:__ZNK21FullParameterPreparer16OnPrepareTextureERPKN9ShaderLab6TexEnvERKN20GpuProgramParameters16TextureParameterEj
2438:__ZNK9ShaderLab6TexEnv11PrepareDataEiiP15GfxTextureParam
2439:__ZNK21FullParameterPreparer22OnPrepareComputeBufferER15ComputeBufferIDRKN20GpuProgramParameters15BufferParameterEj
2440:__ZN9ShaderLab11shaderprops16GetComputeBufferEPK19ShaderPropertySheetS3_NS_16FastPropertyNameE
2441:__ZN10builtintex17GetDefaultTextureE16TextureDimension
2442:__ZN9ShaderLab11shaderprops9GetTexEnvEPK19ShaderPropertySheetS3_NS_16FastPropertyNameE16TextureDimension
2443:__ZN10builtintex16GetDefaultTexEnvE16TextureDimension
2444:__ZNK21FullParameterPreparer13OnPrepareImplIfEEbR12PartialArrayIT_EN8GfxPatch4TypeERKN20GpuProgramParameters14ValueParameterERKN9ShaderLab11shaderprops16PropertyLocationEj
2445:__ZN9ShaderLab11shaderprops9GetVectorEPK19ShaderPropertySheetS3_NS_16FastPropertyNameE
2446:__ZN9ShaderLab11shaderprops9GetMatrixEPK19ShaderPropertySheetS3_NS_16FastPropertyNameE
2447:__ZNK9ShaderLab7Program21GetMatchingSubProgramEPK6ShaderPKNS_4PassERK16ShaderKeywordSetjPS7_R19ShaderSnippetResult
2448:__ZNK9ShaderLab7Program24MarkVariantAsUnsupportedERK16ShaderKeywordSet
2449:__ZN13dynamic_arrayI16ShaderKeywordSetLj4EE6insertEPS0_PKS0_S4_
2450:__ZN9ShaderLab11ShaderState25RemoveUnsupportedProgramsEPK6Shader
2451:__ZN6Shader10GetDefaultEv
2452:__ZN9ShaderLab10SubProgram7CompileEv
2453:__ZN6Shader27MarkShaderStateNotSupportedEPKS_
2454:__ZN6Shader19MarkShaderHasErrorsEPKS_
2455:__ZNK9ShaderLab11ShaderState34ShouldRemoveAnyUnsupportedProgramsEv
2456:__ZNK9ShaderLab7Program19HasMatchingVariantsERK13dynamic_arrayI16ShaderKeywordSetLj4EE
2457:__ZN20GpuProgramParametersaSERKS_
2458:__ZN22CreateGpuProgramOutputD2Ev
2459:__ZN20GpuProgramParametersD2Ev
2460:__ZNSt3__26vectorIN20GpuProgramParameters16TextureParameterENS_9allocatorIS2_EEE6assignIPS2_EENS_9enable_ifIXaasr21__is_forward_iteratorIT_EE5valuesr16is_constructibleIS2_NS_15iterator_traitsIS9_E9referenceEEE5valueEvE4typeES9_S9_
2461:__ZNSt3__26vectorIN20GpuProgramParameters12UAVParameterENS_9allocatorIS2_EEE6assignIPS2_EENS_9enable_ifIXaasr21__is_forward_iteratorIT_EE5valuesr16is_constructibleIS2_NS_15iterator_traitsIS9_E9referenceEEE5valueEvE4typeES9_S9_
2462:__ZNSt3__26vectorIN20GpuProgramParameters14ConstantBufferENS_9allocatorIS2_EEE6assignIPS2_EENS_9enable_ifIXaasr21__is_forward_iteratorIT_EE5valuesr16is_constructibleIS2_NS_15iterator_traitsIS9_E9referenceEEE5valueEvE4typeES9_S9_
2463:__ZN22CreateGpuProgramOutputC2Ev
2464:__ZN9ShaderLab7Program14RemoveVariantsERK13dynamic_arrayI16ShaderKeywordSetLj4EE
2465:__ZN24dense_hashtable_iteratorINSt3__24pairIKN9ShaderLab7Program23ShaderKeywordSetAndHashEPKNS2_10SubProgramEEES4_NS3_24ShaderKeywordHashFunctorEN14dense_hash_mapIS4_S8_SA_NS0_8equal_toIS4_EE13stl_allocatorIS9_L18MemLabelIdentifier65ELi16EEE9SelectKeyESD_SG_E30advance_past_empty_and_deletedEv
2466:__ZNK15dense_hashtableINSt3__24pairIKN9ShaderLab7Program23ShaderKeywordSetAndHashEPKNS2_10SubProgramEEES4_NS3_24ShaderKeywordHashFunctorEN14dense_hash_mapIS4_S8_SA_NS0_8equal_toIS4_EE13stl_allocatorIS9_L18MemLabelIdentifier65ELi16EEE9SelectKeyESD_SG_E23find_position_with_hashERS5_j
2467:__ZN9ShaderLab32FindBestMatchingShaderKeywordSetERK16ShaderKeywordSetRK13dynamic_arrayIS0_Lj4EEPS5_
2468:__ZN15dense_hashtableINSt3__24pairIKN9ShaderLab7Program23ShaderKeywordSetAndHashEPKNS2_10SubProgramEEES4_NS3_24ShaderKeywordHashFunctorEN14dense_hash_mapIS4_S8_SA_NS0_8equal_toIS4_EE13stl_allocatorIS9_L18MemLabelIdentifier65ELi16EEE9SelectKeyESD_SG_E12resize_deltaEjj
2469:__ZN15dense_hashtableINSt3__24pairIKN9ShaderLab7Program23ShaderKeywordSetAndHashEPKNS2_10SubProgramEEES4_NS3_24ShaderKeywordHashFunctorEN14dense_hash_mapIS4_S8_SA_NS0_8equal_toIS4_EE13stl_allocatorIS9_L18MemLabelIdentifier65ELi16EEE9SelectKeyESD_SG_E15insert_noresizeERKS9_
2470:__ZN15dense_hashtableINSt3__24pairIKN9ShaderLab7Program23ShaderKeywordSetAndHashEPKNS2_10SubProgramEEES4_NS3_24ShaderKeywordHashFunctorEN14dense_hash_mapIS4_S8_SA_NS0_8equal_toIS4_EE13stl_allocatorIS9_L18MemLabelIdentifier65ELi16EEE9SelectKeyESD_SG_E12maybe_shrinkEv
2471:__ZN15dense_hashtableINSt3__24pairIKN9ShaderLab7Program23ShaderKeywordSetAndHashEPKNS2_10SubProgramEEES4_NS3_24ShaderKeywordHashFunctorEN14dense_hash_mapIS4_S8_SA_NS0_8equal_toIS4_EE13stl_allocatorIS9_L18MemLabelIdentifier65ELi16EEE9SelectKeyESD_SG_E9copy_fromERKSJ_j
2472:__ZNK9ShaderLab4Pass21ComputePassValuesHashERK16ShaderKeywordSetPK19ShaderPropertySheetRK17ShaderPassContextP6Shader
2473:__ZN9ShaderLab27ComputeStateBlockValuesHashERK13dynamic_arrayIiLj4EEPK19ShaderPropertySheetS6_
2474:__ZN9ShaderLab9IntShader23CreateStateBlocksForKeyEjPK19ShaderPropertySheetS3_
2475:__ZN9ShaderLab11ShaderState15AddDeviceStatesEjPK19ShaderPropertySheetS3_
2476:__ZN19ShaderPropertySheet8CopyFromERKS_
2477:__ZN18UnityPropertySheet20AddNewShaderlabPropsERK19ShaderPropertySheet
2478:__ZN18UnityPropertySheet25AssignDefinedPropertiesToER19ShaderPropertySheet
2479:__ZNK19ShaderPropertySheet25GetVectorValueInsRGBSpaceEi
2480:__ZNSt3__23mapIN9ShaderLab16FastPropertyNameEN18UnityPropertySheet11UnityTexEnvENS_4lessIS2_EENS_9allocatorINS_4pairIKS2_S4_EEEEEixERS9_
2481:__ZNK13sorted_vectorIN22BuiltinResourceManager8ResourceENSt3__24lessIS1_EENS2_9allocatorIS1_EEE4findIS1_EENS2_11__wrap_iterIPKS1_EERKT_
2482:__ZN24MaterialDisplayListCache16CachedShaderPass10ReleaseAllEv
2483:__ZN19ShaderPropertySheet10SetTextureEN9ShaderLab16FastPropertyNameEP7Texture
2484:__ZN8Material28UpdateHashesOnPropertyChangeEN9ShaderLab16FastPropertyNameE
2485:__ZN8MaterialD2Ev
2486:__ZN8MaterialD0Ev
2487:__ZN8Material17MainThreadCleanupEv
2488:__ZN8Material13AwakeFromLoadE17AwakeFromLoadMode
2489:__ZN8Material5ResetEv
2490:__ZNK8Material26GetTypeInfoVirtualInternalEv
2491:__ZNK8Material20GetRuntimeMemorySizeEv
2492:__ZN8Material23VirtualRedirectTransferER19StreamedBinaryWriteILb0EE
2493:__ZN8Material23VirtualRedirectTransferER18StreamedBinaryReadILb0EE
2494:__ZN8Material23VirtualRedirectTransferER17RemapPPtrTransfer
2495:__ZN8Material23VirtualRedirectTransferER24GenerateTypeTreeTransfer
2496:__ZN8Material23VirtualRedirectTransferER14SafeBinaryRead
2497:__ZN8Material8TransferI14SafeBinaryReadEEvRT_
2498:__ZN14SafeBinaryRead10SetVersionEi
2499:__ZN14SafeBinaryRead19TransferSTLStyleMapINSt3__23mapIN4core12basic_stringIcNS3_20StringStorageDefaultIcEEEES7_NS1_4lessIS7_EE13stl_allocatorINS1_4pairIKS7_S7_EEL18MemLabelIdentifier1ELi16EEEEEEvRT_17TransferMetaFlags
2500:__ZN14SafeBinaryRead21TransferSTLStyleArrayINSt3__26vectorIN4core12basic_stringIcNS3_20StringStorageDefaultIcEEEE13stl_allocatorIS7_L18MemLabelIdentifier1ELi16EEEEEEvRT_17TransferMetaFlags
2501:__ZNSt3__26vectorINS_4pairI11ShaderTagIDS2_EENS_9allocatorIS3_EEE6insertENS_11__wrap_iterIPKS3_EERS8_
2502:__ZN18UnityPropertySheet8TransferI14SafeBinaryReadEEvRT_
2503:__ZNSt3__26__treeINS_12__value_typeIN4core12basic_stringIcNS2_20StringStorageDefaultIcEEEES6_EENS_19__map_value_compareIS6_S7_NS_4lessIS6_EELb1EEE13stl_allocatorIS7_L18MemLabelIdentifier1ELi16EEE7destroyEPNS_11__tree_nodeIS7_PvEE
2504:__ZN14SafeBinaryRead23IsVersionSmallerOrEqualEi
2505:__ZN14SafeBinaryRead19TransferSTLStyleMapINSt3__23mapI39DeprecatedFastPropertyNameSerializationN18UnityPropertySheet11UnityTexEnvENS1_4lessIS3_EENS1_9allocatorINS1_4pairIKS3_S5_EEEEEEEEvRT_17TransferMetaFlags
2506:__ZN14SafeBinaryRead19TransferSTLStyleMapINSt3__23mapI39DeprecatedFastPropertyNameSerializationfNS1_4lessIS3_EENS1_9allocatorINS1_4pairIKS3_fEEEEEEEEvRT_17TransferMetaFlags
2507:__ZN14SafeBinaryRead19TransferSTLStyleMapINSt3__23mapI39DeprecatedFastPropertyNameSerialization10ColorRGBAfNS1_4lessIS3_EENS1_9allocatorINS1_4pairIKS3_S4_EEEEEEEEvRT_17TransferMetaFlags
2508:__ZN14SafeBinaryRead19TransferSTLStyleMapINSt3__23mapIN9ShaderLab16FastPropertyNameEN18UnityPropertySheet11UnityTexEnvENS1_4lessIS4_EENS1_9allocatorINS1_4pairIKS4_S6_EEEEEEEEvRT_17TransferMetaFlags
2509:__ZN14SafeBinaryRead19TransferSTLStyleMapINSt3__23mapIN9ShaderLab16FastPropertyNameEfNS1_4lessIS4_EENS1_9allocatorINS1_4pairIKS4_fEEEEEEEEvRT_17TransferMetaFlags
2510:__ZN14SafeBinaryRead19TransferSTLStyleMapINSt3__23mapIN9ShaderLab16FastPropertyNameE10ColorRGBAfNS1_4lessIS4_EENS1_9allocatorINS1_4pairIKS4_S5_EEEEEEEEvRT_17TransferMetaFlags
2511:__ZN14SafeBinaryRead18BeginArrayTransferEPKcS1_Ri
2512:__ZNSt3__26__treeINS_12__value_typeIN9ShaderLab16FastPropertyNameE10ColorRGBAfEENS_19__map_value_compareIS3_S5_NS_4lessIS3_EELb1EEENS_9allocatorIS5_EEE7destroyEPNS_11__tree_nodeIS5_PvEE
2513:__ZN14SafeBinaryRead16EndArrayTransferEv
2514:__ZN14SafeBinaryRead8TransferINSt3__24pairIN9ShaderLab16FastPropertyNameE10ColorRGBAfEEEEvRT_PKc17TransferMetaFlags
2515:__ZN14SafeBinaryRead8TransferIN9ShaderLab16FastPropertyNameEEEvRT_PKc17TransferMetaFlags
2516:__ZN15SerializeTraitsI10ColorRGBAfE8TransferI14SafeBinaryReadEEvRS0_RT_
2517:__ZNSt3__26__treeINS_12__value_typeIN9ShaderLab16FastPropertyNameEfEENS_19__map_value_compareIS3_S4_NS_4lessIS3_EELb1EEENS_9allocatorIS4_EEE7destroyEPNS_11__tree_nodeIS4_PvEE
2518:__ZN15SerializeTraitsINSt3__24pairIN9ShaderLab16FastPropertyNameEfEEE8TransferI14SafeBinaryReadEEvRS4_RT_
2519:__ZNSt3__26__treeINS_12__value_typeIN9ShaderLab16FastPropertyNameEN18UnityPropertySheet11UnityTexEnvEEENS_19__map_value_compareIS3_S6_NS_4lessIS3_EELb1EEENS_9allocatorIS6_EEE7destroyEPNS_11__tree_nodeIS6_PvEE
2520:__ZN14SafeBinaryRead8TransferINSt3__24pairIN9ShaderLab16FastPropertyNameEN18UnityPropertySheet11UnityTexEnvEEEEEvRT_PKc17TransferMetaFlags
2521:__ZN18UnityPropertySheet11UnityTexEnv8TransferI14SafeBinaryReadEEvRT_
2522:__Z43LocalSerializedObjectIdentifierToInstanceIDRK31LocalSerializedObjectIdentifierRi
2523:__ZN17PersistentManager51LocalSerializedObjectIdentifierToInstanceIDInternalERK31LocalSerializedObjectIdentifierRi
2524:__ZN17PersistentManager51LocalSerializedObjectIdentifierToInstanceIDInternalEiRK31LocalSerializedObjectIdentifierRi
2525:__ZN18UnityPropertySheet11UnityTexEnvC2Ev
2526:__ZNSt3__26__treeINS_12__value_typeI39DeprecatedFastPropertyNameSerialization10ColorRGBAfEENS_19__map_value_compareIS2_S4_NS_4lessIS2_EELb1EEENS_9allocatorIS4_EEE7destroyEPNS_11__tree_nodeIS4_PvEE
2527:__ZN15SerializeTraitsINSt3__24pairI39DeprecatedFastPropertyNameSerialization10ColorRGBAfEEE8TransferI14SafeBinaryReadEEvRS4_RT_
2528:__ZN39DeprecatedFastPropertyNameSerialization8TransferI14SafeBinaryReadEEvRT_
2529:__ZNSt3__26__treeINS_12__value_typeI39DeprecatedFastPropertyNameSerializationfEENS_19__map_value_compareIS2_S3_NS_4lessIS2_EELb1EEENS_9allocatorIS3_EEE7destroyEPNS_11__tree_nodeIS3_PvEE
2530:__ZNSt3__26__treeINS_12__value_typeI39DeprecatedFastPropertyNameSerializationN18UnityPropertySheet11UnityTexEnvEEENS_19__map_value_compareIS2_S5_NS_4lessIS2_EELb1EEENS_9allocatorIS5_EEE7destroyEPNS_11__tree_nodeIS5_PvEE
2531:__ZN15SerializeTraitsINSt3__24pairI39DeprecatedFastPropertyNameSerializationN18UnityPropertySheet11UnityTexEnvEEEE8TransferI14SafeBinaryReadEEvRS5_RT_
2532:__ZN18SharedMaterialDataD2Ev
2533:__ZN18SharedMaterialDataD0Ev
2534:__Z14resize_trimmedINSt3__26vectorIN4core12basic_stringIcNS2_20StringStorageDefaultIcEEEE13stl_allocatorIS6_L18MemLabelIdentifier1ELi16EEEEEvRT_j
2535:__ZNSt3__26vectorIN4core12basic_stringIcNS1_20StringStorageDefaultIcEEEE13stl_allocatorIS5_L18MemLabelIdentifier1ELi16EEE7reserveEj
2536:__ZNSt3__26vectorIN4core12basic_stringIcNS1_20StringStorageDefaultIcEEEE13stl_allocatorIS5_L18MemLabelIdentifier1ELi16EEE6assignINS_11__wrap_iterIPS5_EEEENS_9enable_ifIXaasr21__is_forward_iteratorIT_EE5valuesr16is_constructibleIS5_NS_15iterator_traitsISF_E9referenceEEE5valueEvE4typeESF_SF_
2537:__ZNSt3__26vectorIN4core12basic_stringIcNS1_20StringStorageDefaultIcEEEE13stl_allocatorIS5_L18MemLabelIdentifier1ELi16EEE8__appendEj
2538:__ZNSt3__26vectorIN4core12basic_stringIcNS1_20StringStorageDefaultIcEEEE13stl_allocatorIS5_L18MemLabelIdentifier1ELi16EEEC2INS_11__wrap_iterIPS5_EEEET_SE_RKS8_PNS_9enable_ifIXaasr21__is_forward_iteratorISE_EE5valuesr16is_constructibleIS5_NS_15iterator_traitsISE_E9referenceEEE5valueEvE4typeE
2539:__ZN15SerializeTraitsINSt3__24pairIN4core12basic_stringIcNS2_20StringStorageDefaultIcEEEES6_EEE8TransferI14SafeBinaryReadEEvRS7_RT_
2540:__ZNSt3__26__treeINS_12__value_typeIN4core12basic_stringIcNS2_20StringStorageDefaultIcEEEES6_EENS_19__map_value_compareIS6_S7_NS_4lessIS6_EELb1EEE13stl_allocatorIS7_L18MemLabelIdentifier1ELi16EEE16__construct_nodeERKNS_4pairIKS6_S6_EE
2541:__ZN8Material8TransferI24GenerateTypeTreeTransferEEvRT_
2542:__ZN24GenerateTypeTreeTransfer10SetVersionEi
2543:__ZN24GenerateTypeTreeTransfer19TransferSTLStyleMapINSt3__23mapIN4core12basic_stringIcNS3_20StringStorageDefaultIcEEEES7_NS1_4lessIS7_EE13stl_allocatorINS1_4pairIKS7_S7_EEL18MemLabelIdentifier1ELi16EEEEEEvRT_17TransferMetaFlags
2544:__ZN18UnityPropertySheet8TransferI24GenerateTypeTreeTransferEEvRT_
2545:__ZN15SerializeTraitsIN18UnityPropertySheet11UnityTexEnvEE8TransferI24GenerateTypeTreeTransferEEvRS1_RT_
2546:__ZN10ColorRGBAf8TransferI24GenerateTypeTreeTransferEEvRT_
2547:__ZN15SerializeTraitsINSt3__24pairIN4core12basic_stringIcNS2_20StringStorageDefaultIcEEEES6_EEE8TransferI24GenerateTypeTreeTransferEEvRS7_RT_
2548:__ZN8Material8TransferI17RemapPPtrTransferEEvRT_
2549:__ZN8Material8TransferI18StreamedBinaryReadILb0EEEEvRT_
2550:__ZN18StreamedBinaryReadILb0EE19TransferSTLStyleMapINSt3__23mapIN4core12basic_stringIcNS4_20StringStorageDefaultIcEEEES8_NS2_4lessIS8_EE13stl_allocatorINS2_4pairIKS8_S8_EEL18MemLabelIdentifier1ELi16EEEEEEvRT_17TransferMetaFlags
2551:__ZN18StreamedBinaryReadILb0EE19TransferSTLStyleMapINSt3__23mapIN9ShaderLab16FastPropertyNameEN18UnityPropertySheet11UnityTexEnvENS2_4lessIS5_EENS2_9allocatorINS2_4pairIKS5_S7_EEEEEEEEvRT_17TransferMetaFlags
2552:__ZN18StreamedBinaryReadILb0EE19TransferSTLStyleMapINSt3__23mapIN9ShaderLab16FastPropertyNameEfNS2_4lessIS5_EENS2_9allocatorINS2_4pairIKS5_fEEEEEEEEvRT_17TransferMetaFlags
2553:__ZN18StreamedBinaryReadILb0EE19TransferSTLStyleMapINSt3__23mapIN9ShaderLab16FastPropertyNameE10ColorRGBAfNS2_4lessIS5_EENS2_9allocatorINS2_4pairIKS5_S6_EEEEEEEEvRT_17TransferMetaFlags
2554:__ZN18StreamedBinaryReadILb0EE8TransferINSt3__24pairIN9ShaderLab16FastPropertyNameEfEEEEvRT_PKc17TransferMetaFlags
2555:__ZN18UnityPropertySheet11UnityTexEnv8TransferI18StreamedBinaryReadILb0EEEEvRT_
2556:__ZN8Material8TransferI19StreamedBinaryWriteILb0EEEEvRT_
2557:__ZN8Material43AddDefaultShaderPropertiesToSavedPropertiesEv
2558:__ZN9shadertag16GetShaderTagNameE11ShaderTagID
2559:__ZNSt3__23mapIN4core12basic_stringIcNS1_20StringStorageDefaultIcEEEES5_NS_4lessIS5_EE13stl_allocatorINS_4pairIKS5_S5_EEL18MemLabelIdentifier1ELi16EEEixERSA_
2560:__ZN19StreamedBinaryWriteILb0EE19TransferSTLStyleMapINSt3__23mapIN4core12basic_stringIcNS4_20StringStorageDefaultIcEEEES8_NS2_4lessIS8_EE13stl_allocatorINS2_4pairIKS8_S8_EEL18MemLabelIdentifier1ELi16EEEEEEvRT_17TransferMetaFlags
2561:__ZN18UnityPropertySheet8TransferI19StreamedBinaryWriteILb0EEEEvRT_
2562:__Z36UnityPropertySheet_MakeSortedTexEnvsRKNSt3__23mapIN9ShaderLab16FastPropertyNameEN18UnityPropertySheet11UnityTexEnvENS_4lessIS2_EENS_9allocatorINS_4pairIKS2_S4_EEEEEER10vector_mapIS2_S4_S6_NS7_INS8_IS2_S4_EEEEE
2563:__ZN15SerializeTraitsIN9ShaderLab16FastPropertyNameEE8TransferI19StreamedBinaryWriteILb0EEEEvRS1_RT_
2564:__ZN18UnityPropertySheet11UnityTexEnv8TransferI19StreamedBinaryWriteILb0EEEEvRT_
2565:__Z35UnityPropertySheet_MakeSortedFloatsRKNSt3__23mapIN9ShaderLab16FastPropertyNameEfNS_4lessIS2_EENS_9allocatorINS_4pairIKS2_fEEEEEER10vector_mapIS2_fS4_NS5_INS6_IS2_fEEEEE
2566:__Z35UnityPropertySheet_MakeSortedColorsRKNSt3__23mapIN9ShaderLab16FastPropertyNameE10ColorRGBAfNS_4lessIS2_EENS_9allocatorINS_4pairIKS2_S3_EEEEEER10vector_mapIS2_S3_S5_NS6_INS7_IS2_S3_EEEEE
2567:__ZL15SortColorByNameRKNSt3__24pairIN9ShaderLab16FastPropertyNameE10ColorRGBAfEES6_
2568:__ZNSt3__26__sortIRPFbRKNS_4pairIN9ShaderLab16FastPropertyNameE10ColorRGBAfEES7_EPS5_EEvT0_SC_T_
2569:__ZNSt3__26vectorINS_4pairIN9ShaderLab16FastPropertyNameE10ColorRGBAfEENS_9allocatorIS5_EEE21__push_back_slow_pathIKS5_EEvRT_
2570:__ZNSt3__27__sort3IRPFbRKNS_4pairIN9ShaderLab16FastPropertyNameE10ColorRGBAfEES7_EPS5_EEjT0_SC_SC_T_
2571:__ZNSt3__27__sort4IRPFbRKNS_4pairIN9ShaderLab16FastPropertyNameE10ColorRGBAfEES7_EPS5_EEjT0_SC_SC_SC_T_
2572:__ZNSt3__27__sort5IRPFbRKNS_4pairIN9ShaderLab16FastPropertyNameE10ColorRGBAfEES7_EPS5_EEjT0_SC_SC_SC_SC_T_
2573:__ZNSt3__227__insertion_sort_incompleteIRPFbRKNS_4pairIN9ShaderLab16FastPropertyNameE10ColorRGBAfEES7_EPS5_EEbT0_SC_T_
2574:__ZNSt3__26__sortIRPFbRKNS_4pairIN9ShaderLab16FastPropertyNameEfEES6_EPS4_EEvT0_SB_T_
2575:__ZNSt3__27__sort3IRPFbRKNS_4pairIN9ShaderLab16FastPropertyNameEfEES6_EPS4_EEjT0_SB_SB_T_
2576:__ZNSt3__27__sort5IRPFbRKNS_4pairIN9ShaderLab16FastPropertyNameEfEES6_EPS4_EEjT0_SB_SB_SB_SB_T_
2577:__ZNSt3__227__insertion_sort_incompleteIRPFbRKNS_4pairIN9ShaderLab16FastPropertyNameEfEES6_EPS4_EEbT0_SB_T_
2578:__Z43InstanceIDToLocalSerializedObjectIdentifieriR31LocalSerializedObjectIdentifier
2579:__ZN17PersistentManager51InstanceIDToLocalSerializedObjectIdentifierInternalEiR31LocalSerializedObjectIdentifier
2580:__ZN17PersistentManager40GlobalToLocalSerializedFileIndexInternalERK26SerializedObjectIdentifier
2581:__ZN14SerializedFile14AddExternalRefERK14FileIdentifier
2582:__ZNSt3__26__sortIRPFbRKNS_4pairIN9ShaderLab16FastPropertyNameEN18UnityPropertySheet11UnityTexEnvEEES8_EPS6_EEvT0_SD_T_
2583:__ZNSt3__26vectorINS_4pairIN9ShaderLab16FastPropertyNameEN18UnityPropertySheet11UnityTexEnvEEENS_9allocatorIS6_EEE21__push_back_slow_pathIKS6_EEvRT_
2584:__ZNSt3__27__sort3IRPFbRKNS_4pairIN9ShaderLab16FastPropertyNameEN18UnityPropertySheet11UnityTexEnvEEES8_EPS6_EEjT0_SD_SD_T_
2585:__ZNSt3__27__sort4IRPFbRKNS_4pairIN9ShaderLab16FastPropertyNameEN18UnityPropertySheet11UnityTexEnvEEES8_EPS6_EEjT0_SD_SD_SD_T_
2586:__ZNSt3__27__sort5IRPFbRKNS_4pairIN9ShaderLab16FastPropertyNameEN18UnityPropertySheet11UnityTexEnvEEES8_EPS6_EEjT0_SD_SD_SD_SD_T_
2587:__ZNSt3__227__insertion_sort_incompleteIRPFbRKNS_4pairIN9ShaderLab16FastPropertyNameEN18UnityPropertySheet11UnityTexEnvEEES8_EPS6_EEbT0_SD_T_
2588:__ZNK19ShaderPropertySheet16GetSerializeSizeEv
2589:__ZN8Material15ResetWithShaderEP6Shader
2590:__ZN18UnityPropertySheetaSERKS_
2591:__ZN8Material17UpdateToNewShaderEb
2592:__ZN8Material14SetOverrideTagE11ShaderTagIDS0_
2593:__ZN8keywords18StringToKeywordSetERKN4core12basic_stringIcNS0_20StringStorageDefaultIcEEEER16ShaderKeywordSet
2594:__ZN8Material15ThreadedCleanupEv
2595:__ZN15NameToObjectMapI6ShaderNSt3__23mapI4PPtrIS0_EN4core12basic_stringIcNS5_20StringStorageDefaultIcEEEENS1_4lessIS4_EENS1_9allocatorINS1_4pairIKS4_S9_EEEEEENS1_8multimapIS9_S4_NSA_IS9_EENSC_INSD_IKS9_S4_EEEEEEE4FindERSK_
2596:__ZNSt3__26__treeINS_12__value_typeIN4core12basic_stringIcNS2_20StringStorageDefaultIcEEEE4PPtrI6ShaderEEENS_19__map_value_compareIS6_SA_NS_4lessIS6_EELb1EEENS_9allocatorISA_EEE19__equal_range_multiIS6_EENS_4pairINS_15__tree_iteratorISA_PNS_11__tree_nodeISA_PvEEiEESP_EERKT_
2597:__ZNK26PlayerSettingsSplashScreen34GetSplashScreenBackgroundLandscapeEv
2598:__ZNK26PlayerSettingsSplashScreen29GetSplashScreenOverlayOpacityEv
2599:__ZN10Matrix4x4f8SetOrthoEffffff
2600:__ZN22DeviceMVPMatricesStateC2ER9GfxDevice
2601:__Z18ClearByDrawingQuad13GfxClearFlagsRK10ColorRGBAffjR17ShaderPassContext
2602:__ZN6Shader20GetScreenClearShaderEv
2603:__Z25LoadFullScreenOrthoMatrixffR9GfxDevice
2604:__Z17BeginSplashScreenv
2605:__ZL17CreateLogoPresetsj
2606:__ZNK26PlayerSettingsSplashScreen24GetShowUnitySplashScreenEv
2607:__ZN13RenderManager22OnWindowSizeHasChangedEv
2608:__ZN6Camera20WindowSizeHasChangedEv
2609:__ZN7Cursors9SetCursorEP9Texture2D8Vector2f10CursorMode
2610:__Z13ConvertPixelsPKh13TextureFormatPhS1_j
2611:__Z25GetBytesFromTextureFormat13TextureFormat
2612:__ZN6prcore9BlitImageERK14ImageReferenceRS0_NS0_8BlitModeE
2613:__Z20GetTextureFormatInfo13TextureFormat
2614:__Z19IsHalfTextureFormat13TextureFormat
2615:__Z20IsFloatTextureFormat13TextureFormat
2616:__ZN6prcore14BlitImageFloatERK14ImageReferenceRS0_NS0_8BlitModeE
2617:__ZN6prcoreL21CreateRemapAnyBlitterE13TextureFormatS0_
2618:__ZN6prcore17GetIntegerBlitterE13TextureFormatS0_N14ImageReference8BlitModeE
2619:__ZN6prcoreL31inner_stretch_argb8888_bilinearEPKNS_9InnerInfoE
2620:__ZN6prcoreL13inner_stretchILj1ELj1EEEvPKNS_9InnerInfoE
2621:__ZN6prcoreL13inner_stretchILj2ELj2EEEvPKNS_9InnerInfoE
2622:__ZN6prcoreL13inner_stretchILj3ELj3EEEvPKNS_9InnerInfoE
2623:__ZN6prcoreL13inner_stretchILj4ELj4EEEvPKNS_9InnerInfoE
2624:__ZN6prcoreL25inner_stretch_i8_bilinearEPKNS_9InnerInfoE
2625:__ZN6prcoreL29inner_stretch_rgb565_bilinearEPKNS_9InnerInfoE
2626:__ZN6prcoreL29inner_stretch_rgb888_bilinearEPKNS_9InnerInfoE
2627:__ZN6prcoreL31inner_stretch_argb4444_bilinearEPKNS_9InnerInfoE
2628:__ZN6prcoreL12RemapGenericI11TexFormatI815TexFormatRGB565EEvPKNS_9InnerInfoE
2629:__ZN6prcoreL12RemapGenericI11TexFormatI815TexFormatRGB888EEvPKNS_9InnerInfoE
2630:__ZN6prcoreL12RemapGenericI11TexFormatI817TexFormatARGB4444EEvPKNS_9InnerInfoE
2631:__ZN6prcoreL12RemapGenericI11TexFormatI817TexFormatARGB8888EEvPKNS_9InnerInfoE
2632:__ZN6prcoreL12RemapGenericI11TexFormatA817TexFormatARGB8888EEvPKNS_9InnerInfoE
2633:__ZN6prcoreL12RemapGenericI15TexFormatRGB56511TexFormatI8EEvPKNS_9InnerInfoE
2634:__ZN6prcoreL12RemapGenericI15TexFormatRGB56515TexFormatRGB888EEvPKNS_9InnerInfoE
2635:__ZN6prcoreL12RemapGenericI15TexFormatRGB56517TexFormatARGB4444EEvPKNS_9InnerInfoE
2636:__ZN6prcoreL12RemapGenericI15TexFormatRGB56517TexFormatARGB8888EEvPKNS_9InnerInfoE
2637:__ZN6prcoreL12RemapGenericI15TexFormatRGB56515TexFormatBGR888EEvPKNS_9InnerInfoE
2638:__ZN6prcoreL12RemapGenericI15TexFormatRGB88811TexFormatI8EEvPKNS_9InnerInfoE
2639:__ZN6prcoreL12RemapGenericI15TexFormatRGB88815TexFormatRGB565EEvPKNS_9InnerInfoE
2640:__ZN6prcoreL12RemapGenericI15TexFormatRGB88817TexFormatARGB4444EEvPKNS_9InnerInfoE
2641:__ZN6prcoreL12RemapGenericI15TexFormatRGB88817TexFormatARGB8888EEvPKNS_9InnerInfoE
2642:__ZN6prcoreL12RemapGenericI17TexFormatARGB444411TexFormatI8EEvPKNS_9InnerInfoE
2643:__ZN6prcoreL12RemapGenericI17TexFormatARGB444415TexFormatRGB565EEvPKNS_9InnerInfoE
2644:__ZN6prcoreL12RemapGenericI17TexFormatARGB444415TexFormatRGB888EEvPKNS_9InnerInfoE
2645:__ZN6prcoreL12RemapGenericI17TexFormatARGB444417TexFormatARGB8888EEvPKNS_9InnerInfoE
2646:__ZN6prcoreL12RemapGenericI17TexFormatARGB444417TexFormatABGR8888EEvPKNS_9InnerInfoE
2647:__ZN6prcoreL12RemapGenericI17TexFormatARGB888811TexFormatI8EEvPKNS_9InnerInfoE
2648:__ZN6prcoreL12RemapGenericI17TexFormatARGB888811TexFormatA8EEvPKNS_9InnerInfoE
2649:__ZN6prcoreL12RemapGenericI17TexFormatARGB888815TexFormatRGB565EEvPKNS_9InnerInfoE
2650:__ZN6prcoreL12RemapGenericI17TexFormatARGB888815TexFormatRGB888EEvPKNS_9InnerInfoE
2651:__ZN6prcoreL12RemapGenericI17TexFormatARGB888817TexFormatARGB4444EEvPKNS_9InnerInfoE
2652:__ZN6prcoreL12RemapGenericI17TexFormatARGB888815TexFormatBGR888EEvPKNS_9InnerInfoE
2653:__ZN6prcoreL12RemapGenericI17TexFormatARGB888817TexFormatABGR8888EEvPKNS_9InnerInfoE
2654:__ZN6prcoreL12RemapGenericI17TexFormatARGB888817TexFormatRGBA4444EEvPKNS_9InnerInfoE
2655:__ZN6prcoreL12RemapGenericI17TexFormatARGB888817TexFormatBGRA8888EEvPKNS_9InnerInfoE
2656:__ZN6prcoreL12RemapGenericI17TexFormatARGB888817TexFormatRGBA8888EEvPKNS_9InnerInfoE
2657:__ZN6prcoreL12RemapGenericI15TexFormatBGR88817TexFormatARGB8888EEvPKNS_9InnerInfoE
2658:__ZN6prcoreL12RemapGenericI17TexFormatABGR888817TexFormatARGB8888EEvPKNS_9InnerInfoE
2659:__ZN6prcoreL12RemapGenericI17TexFormatRGBA444417TexFormatARGB8888EEvPKNS_9InnerInfoE
2660:__ZN6prcoreL12RemapGenericI17TexFormatRGBA444417TexFormatABGR8888EEvPKNS_9InnerInfoE
2661:__ZN6prcoreL12RemapGenericI17TexFormatBGRA888817TexFormatABGR8888EEvPKNS_9InnerInfoE
2662:__ZN6prcoreL12RemapGenericI17TexFormatRGBA888817TexFormatARGB8888EEvPKNS_9InnerInfoE
2663:__ZN6prcoreL18BlitIntegerToFloatERK14ImageReferenceRS0_
2664:__ZN6prcoreL17BlitBilinearFloatERK14ImageReferenceRS0_
2665:__ZN6prcoreL18BlitFloatToIntegerERK14ImageReferenceRS0_
2666:__ZN6prcoreL19BlitCopyWithBlitterER14ImageReferenceRKS0_NS_15BlitterRemapAnyE
2667:__ZN6prcoreL17RemapGenericFloatI15TexFormatRFloat16TexFormatRGFloatEEvPKNS_9InnerInfoE
2668:__ZN6prcoreL17RemapGenericFloatI15TexFormatRFloat17TexFormatRGBFloatEEvPKNS_9InnerInfoE
2669:__ZN6prcoreL17RemapGenericFloatI15TexFormatRFloat18TexFormatRGBAFloatEEvPKNS_9InnerInfoE
2670:__ZN6prcoreL17RemapGenericFloatI15TexFormatRFloat18TexFormatARGBFloatEEvPKNS_9InnerInfoE
2671:__ZN6prcoreL17RemapGenericFloatI15TexFormatRFloat14TexFormatRHalfEEvPKNS_9InnerInfoE
2672:__ZN6prcoreL17RemapGenericFloatI15TexFormatRFloat15TexFormatRGHalfEEvPKNS_9InnerInfoE
2673:__ZN6prcoreL17RemapGenericFloatI15TexFormatRFloat17TexFormatRGBAHalfEEvPKNS_9InnerInfoE
2674:__ZN6prcoreL17RemapGenericFloatI16TexFormatRGFloat15TexFormatRFloatEEvPKNS_9InnerInfoE
2675:__ZN6prcoreL17RemapGenericFloatI16TexFormatRGFloat17TexFormatRGBFloatEEvPKNS_9InnerInfoE
2676:__ZN6prcoreL17RemapGenericFloatI16TexFormatRGFloat18TexFormatRGBAFloatEEvPKNS_9InnerInfoE
2677:__ZN6prcoreL17RemapGenericFloatI16TexFormatRGFloat18TexFormatARGBFloatEEvPKNS_9InnerInfoE
2678:__ZN6prcoreL17RemapGenericFloatI16TexFormatRGFloat14TexFormatRHalfEEvPKNS_9InnerInfoE
2679:__ZN6prcoreL17RemapGenericFloatI16TexFormatRGFloat15TexFormatRGHalfEEvPKNS_9InnerInfoE
2680:__ZN6prcoreL17RemapGenericFloatI16TexFormatRGFloat17TexFormatRGBAHalfEEvPKNS_9InnerInfoE
2681:__ZN6prcoreL17RemapGenericFloatI17TexFormatRGBFloat15TexFormatRFloatEEvPKNS_9InnerInfoE
2682:__ZN6prcoreL17RemapGenericFloatI17TexFormatRGBFloat16TexFormatRGFloatEEvPKNS_9InnerInfoE
2683:__ZN6prcoreL17RemapGenericFloatI17TexFormatRGBFloat18TexFormatRGBAFloatEEvPKNS_9InnerInfoE
2684:__ZN6prcoreL17RemapGenericFloatI17TexFormatRGBFloat18TexFormatARGBFloatEEvPKNS_9InnerInfoE
2685:__ZN6prcoreL17RemapGenericFloatI17TexFormatRGBFloat14TexFormatRHalfEEvPKNS_9InnerInfoE
2686:__ZN6prcoreL17RemapGenericFloatI17TexFormatRGBFloat15TexFormatRGHalfEEvPKNS_9InnerInfoE
2687:__ZN6prcoreL17RemapGenericFloatI17TexFormatRGBFloat17TexFormatRGBAHalfEEvPKNS_9InnerInfoE
2688:__ZN6prcoreL17RemapGenericFloatI18TexFormatRGBAFloat15TexFormatRFloatEEvPKNS_9InnerInfoE
2689:__ZN6prcoreL17RemapGenericFloatI18TexFormatRGBAFloat16TexFormatRGFloatEEvPKNS_9InnerInfoE
2690:__ZN6prcoreL17RemapGenericFloatI18TexFormatRGBAFloat17TexFormatRGBFloatEEvPKNS_9InnerInfoE
2691:__ZN6prcoreL17RemapGenericFloatI18TexFormatRGBAFloat18TexFormatARGBFloatEEvPKNS_9InnerInfoE
2692:__ZN6prcoreL17RemapGenericFloatI18TexFormatRGBAFloat14TexFormatRHalfEEvPKNS_9InnerInfoE
2693:__ZN6prcoreL17RemapGenericFloatI18TexFormatRGBAFloat15TexFormatRGHalfEEvPKNS_9InnerInfoE
2694:__ZN6prcoreL17RemapGenericFloatI18TexFormatRGBAFloat17TexFormatRGBAHalfEEvPKNS_9InnerInfoE
2695:__ZN6prcoreL17RemapGenericFloatI18TexFormatARGBFloat15TexFormatRFloatEEvPKNS_9InnerInfoE
2696:__ZN6prcoreL17RemapGenericFloatI18TexFormatARGBFloat16TexFormatRGFloatEEvPKNS_9InnerInfoE
2697:__ZN6prcoreL17RemapGenericFloatI18TexFormatARGBFloat17TexFormatRGBFloatEEvPKNS_9InnerInfoE
2698:__ZN6prcoreL17RemapGenericFloatI18TexFormatARGBFloat18TexFormatRGBAFloatEEvPKNS_9InnerInfoE
2699:__ZN6prcoreL17RemapGenericFloatI18TexFormatARGBFloat14TexFormatRHalfEEvPKNS_9InnerInfoE
2700:__ZN6prcoreL17RemapGenericFloatI18TexFormatARGBFloat15TexFormatRGHalfEEvPKNS_9InnerInfoE
2701:__ZN6prcoreL17RemapGenericFloatI18TexFormatARGBFloat17TexFormatRGBAHalfEEvPKNS_9InnerInfoE
2702:__ZN6prcoreL17RemapGenericFloatI14TexFormatRHalf15TexFormatRFloatEEvPKNS_9InnerInfoE
2703:__ZN6prcoreL17RemapGenericFloatI14TexFormatRHalf16TexFormatRGFloatEEvPKNS_9InnerInfoE
2704:__ZN6prcoreL17RemapGenericFloatI14TexFormatRHalf17TexFormatRGBFloatEEvPKNS_9InnerInfoE
2705:__ZN6prcoreL17RemapGenericFloatI14TexFormatRHalf18TexFormatRGBAFloatEEvPKNS_9InnerInfoE
2706:__ZN6prcoreL17RemapGenericFloatI14TexFormatRHalf18TexFormatARGBFloatEEvPKNS_9InnerInfoE
2707:__ZN6prcoreL17RemapGenericFloatI14TexFormatRHalf15TexFormatRGHalfEEvPKNS_9InnerInfoE
2708:__ZN6prcoreL17RemapGenericFloatI14TexFormatRHalf17TexFormatRGBAHalfEEvPKNS_9InnerInfoE
2709:__ZN6prcoreL17RemapGenericFloatI15TexFormatRGHalf15TexFormatRFloatEEvPKNS_9InnerInfoE
2710:__ZN6prcoreL17RemapGenericFloatI15TexFormatRGHalf16TexFormatRGFloatEEvPKNS_9InnerInfoE
2711:__ZN6prcoreL17RemapGenericFloatI15TexFormatRGHalf17TexFormatRGBFloatEEvPKNS_9InnerInfoE
2712:__ZN6prcoreL17RemapGenericFloatI15TexFormatRGHalf18TexFormatRGBAFloatEEvPKNS_9InnerInfoE
2713:__ZN6prcoreL17RemapGenericFloatI15TexFormatRGHalf18TexFormatARGBFloatEEvPKNS_9InnerInfoE
2714:__ZN6prcoreL17RemapGenericFloatI15TexFormatRGHalf14TexFormatRHalfEEvPKNS_9InnerInfoE
2715:__ZN6prcoreL17RemapGenericFloatI15TexFormatRGHalf17TexFormatRGBAHalfEEvPKNS_9InnerInfoE
2716:__ZN6prcoreL17RemapGenericFloatI17TexFormatRGBAHalf15TexFormatRFloatEEvPKNS_9InnerInfoE
2717:__ZN6prcoreL17RemapGenericFloatI17TexFormatRGBAHalf16TexFormatRGFloatEEvPKNS_9InnerInfoE
2718:__ZN6prcoreL17RemapGenericFloatI17TexFormatRGBAHalf17TexFormatRGBFloatEEvPKNS_9InnerInfoE
2719:__ZN6prcoreL17RemapGenericFloatI17TexFormatRGBAHalf18TexFormatRGBAFloatEEvPKNS_9InnerInfoE
2720:__ZN6prcoreL17RemapGenericFloatI17TexFormatRGBAHalf18TexFormatARGBFloatEEvPKNS_9InnerInfoE
2721:__ZN6prcoreL17RemapGenericFloatI17TexFormatRGBAHalf14TexFormatRHalfEEvPKNS_9InnerInfoE
2722:__ZN6prcoreL17RemapGenericFloatI17TexFormatRGBAHalf15TexFormatRGHalfEEvPKNS_9InnerInfoE
2723:__ZN11prophecysdk4half7convertEi
2724:__ZN6prcoreL26RemapGenericFloatToIntegerI15TexFormatRFloat17TexFormatARGB8888EEvPKNS_9InnerInfoE
2725:__ZN6prcoreL26RemapGenericFloatToIntegerI16TexFormatRGFloat17TexFormatARGB8888EEvPKNS_9InnerInfoE
2726:__ZN6prcoreL26RemapGenericFloatToIntegerI17TexFormatRGBFloat17TexFormatARGB8888EEvPKNS_9InnerInfoE
2727:__ZN6prcoreL26RemapGenericFloatToIntegerI18TexFormatRGBAFloat17TexFormatARGB8888EEvPKNS_9InnerInfoE
2728:__ZN6prcoreL26RemapGenericFloatToIntegerI18TexFormatARGBFloat17TexFormatARGB8888EEvPKNS_9InnerInfoE
2729:__ZN6prcoreL26RemapGenericFloatToIntegerI14TexFormatRHalf17TexFormatARGB8888EEvPKNS_9InnerInfoE
2730:__ZN6prcoreL26RemapGenericFloatToIntegerI15TexFormatRGHalf17TexFormatARGB8888EEvPKNS_9InnerInfoE
2731:__ZN6prcoreL26RemapGenericFloatToIntegerI17TexFormatRGBAHalf17TexFormatARGB8888EEvPKNS_9InnerInfoE
2732:__ZN6prcoreL27StretchGenericFloatBilinearI15TexFormatRFloatEEvPKNS_9InnerInfoE
2733:__ZN6prcoreL27StretchGenericFloatBilinearI16TexFormatRGFloatEEvPKNS_9InnerInfoE
2734:__ZN6prcoreL27StretchGenericFloatBilinearI17TexFormatRGBFloatEEvPKNS_9InnerInfoE
2735:__ZN6prcoreL27StretchGenericFloatBilinearI18TexFormatRGBAFloatEEvPKNS_9InnerInfoE
2736:__ZN6prcoreL27StretchGenericFloatBilinearI14TexFormatRHalfEEvPKNS_9InnerInfoE
2737:__ZN6prcoreL27StretchGenericFloatBilinearI15TexFormatRGHalfEEvPKNS_9InnerInfoE
2738:__ZN6prcoreL27StretchGenericFloatBilinearI17TexFormatRGBAHalfEEvPKNS_9InnerInfoE
2739:__ZN6prcoreL26RemapGenericIntegerToFloatI17TexFormatARGB888815TexFormatRFloatEEvPKNS_9InnerInfoE
2740:__ZN6prcoreL26RemapGenericIntegerToFloatI17TexFormatARGB888816TexFormatRGFloatEEvPKNS_9InnerInfoE
2741:__ZN6prcoreL26RemapGenericIntegerToFloatI17TexFormatARGB888817TexFormatRGBFloatEEvPKNS_9InnerInfoE
2742:__ZN6prcoreL26RemapGenericIntegerToFloatI17TexFormatARGB888818TexFormatRGBAFloatEEvPKNS_9InnerInfoE
2743:__ZN6prcoreL26RemapGenericIntegerToFloatI17TexFormatARGB888818TexFormatARGBFloatEEvPKNS_9InnerInfoE
2744:__ZN6prcoreL26RemapGenericIntegerToFloatI17TexFormatARGB888814TexFormatRHalfEEvPKNS_9InnerInfoE
2745:__ZN6prcoreL26RemapGenericIntegerToFloatI17TexFormatARGB888815TexFormatRGHalfEEvPKNS_9InnerInfoE
2746:__ZN6prcoreL26RemapGenericIntegerToFloatI17TexFormatARGB888817TexFormatRGBAHalfEEvPKNS_9InnerInfoE
2747:__ZN5ImageC2Eii13TextureFormat
2748:__Z19GetMaxBytesPerPixel13TextureFormat
2749:__ZN14ImageReferenceC2Eiii13TextureFormatPv
2750:__Z15GetSceneManagerv
2751:__ZN19RuntimeSceneManager24PrepareNewBootstrapSceneEv
2752:__Z21PlayerStartFirstSceneb
2753:__ZN11TimeManager9ResetTimeEb
2754:__ZN19RuntimeSceneManager14LoadSceneAsyncERKN4core12basic_stringIcNS0_20StringStorageDefaultIcEEEES6_S6_RK9UnityGUIDiNS_11LoadingModeEbRP10UnityScene
2755:__ZN19RuntimeSceneManager9LoadSceneERKN4core12basic_stringIcNS0_20StringStorageDefaultIcEEEES6_S6_RK9UnityGUIDiNS_11LoadingModeE
2756:__Z17GetPreloadManagerv
2757:__ZN14PreloadManager35WaitForAllAsyncOperationsToCompleteEv
2758:__ZN14PreloadManager26UpdatePreloadingSingleStepENS_21UpdatePreloadingFlagsEi
2759:__ZN14PreloadManager33PrepareProcessingPreloadOperationEv
2760:__Z17TimeToNanosecondsy
2761:__ZN14AsyncOperation15InvokeCoroutineEv
2762:__Z28AllocateNextLowestInstanceIDv
2763:__ZN10UnityScene14SetPathAndGUIDERKN4core12basic_stringIcNS0_20StringStorageDefaultIcEEEERK9UnityGUID
2764:__ZN19RuntimeSceneManager18LoadSceneAsyncIntoER10UnitySceneRKN4core12basic_stringIcNS2_20StringStorageDefaultIcEEEENS_11LoadingModeEb
2765:__ZN14PreloadManager10AddToQueueEP23PreloadManagerOperation
2766:__Z33CreateUnloadUnusedAssetsOperationb
2767:__ZN14AsyncOperationD2Ev
2768:__ZN27UnloadUnusedAssetsOperationD0Ev
2769:__ZN23PreloadManagerOperation6IsDoneEv
2770:__ZN23PreloadManagerOperation11GetProgressEv
2771:__ZN23PreloadManagerOperation11SetPriorityEi
2772:__ZN23PreloadManagerOperation14SetFinalTimingEffff
2773:__ZN27UnloadUnusedAssetsOperation7PerformEv
2774:__ZN27UnloadUnusedAssetsOperation19IntegrateMainThreadEv
2775:__Z26GarbageCollectSharedAssetsb
2776:__ZN15dense_hashtableINSt3__24pairIKiiEEi21InstanceIDHashFunctorN14dense_hash_mapIiiS4_NS0_8equal_toIiEE13stl_allocatorIS3_L18MemLabelIdentifier1ELi16EEE9SelectKeyES7_SA_E14squash_deletedEv
2777:__ZN15dense_hashtableINSt3__24pairIKiiEEi21InstanceIDHashFunctorN14dense_hash_mapIiiS4_NS0_8equal_toIiEE13stl_allocatorIS3_L18MemLabelIdentifier1ELi16EEE9SelectKeyES7_SA_E12maybe_shrinkEv
2778:__ZN15dense_hashtableINSt3__24pairIKiiEEi21InstanceIDHashFunctorN14dense_hash_mapIiiS4_NS0_8equal_toIiEE13stl_allocatorIS3_L18MemLabelIdentifier1ELi16EEE9SelectKeyES7_SA_E12resize_deltaEjj
2779:__Z20MarkInstanceIDAsRootiR21GarbageCollectorState
2780:__Z21GetAssetBundleManagerv
2781:__ZN18AssetBundleManager55CollectPreloadObjectsFromAssetBundleLoadAssetOperationsER13dynamic_arrayIiLj4EE
2782:__ZL30RegisterFilteredObjectCallbackPP12Il2CppObjectiPv
2783:__ZL14OnWorldStartedv
2784:__Z36scripting_liveness_calculation_begin17ScriptingClassPtriPFvPP12Il2CppObjectiPvES3_PFvvES7_
2785:__Z43scripting_liveness_calculation_from_staticsPv
2786:__Z16MarkDependenciesR27GarbageCollectorThreadStatej
2787:__Z34scripting_liveness_calculation_endPv
2788:__ZN13MonoBehaviour27WillDestroyScriptableObjectEv
2789:__Z25BatchDeleteObjectInternalPKii
2790:__ZN13MonoBehaviour26WillUnloadScriptableObjectEv
2791:__ZN19ScriptingInvocation28AdjustArgumentsToMatchMethodEv
2792:__ZN19ScriptingInvocation13InvokeCheckedEP21ScriptingExceptionPtr
2793:__ZN9Scripting32GetCachedPtrFromScriptingWrapperE18ScriptingObjectPtr
2794:__ZN19ScriptingInvocationC2E18ScriptingObjectPtr18ScriptingMethodPtr
2795:__ZNK10GameObject38MarkGameObjectAndComponentDependenciesER27GarbageCollectorThreadState
2796:__ZNK5Unity9Component38MarkGameObjectAndComponentDependenciesER27GarbageCollectorThreadState
2797:__ZNK8Material16MarkDependenciesER27GarbageCollectorThreadState
2798:__ZN9Scripting19ScriptingWrapperForEP6Object
2799:__Z40scripting_liveness_calculation_from_root18ScriptingObjectPtrPv
2800:__ZN9Scripting34ScriptingWrapperClassForNativeTypeEPKN5Unity4TypeE
2801:__Z33scripting_unity_engine_object_new17ScriptingClassPtrP6Object
2802:__Z16MarkObjectAsRootRK6ObjectR27GarbageCollectorThreadState
2803:__ZN9Scripting16GetInstanceIDForE18ScriptingObjectPtr
2804:__ZN27GenericSlowGarbageCollector18GenerateInstanceIDEi17TransferMetaFlags
2805:__ZN27GenericSlowGarbageCollector16ProcessReferenceEi
2806:__ZN17RemapPPtrTransferC2E24TransferInstructionFlagsb
2807:__ZNSt3__26vectorI17TransferMetaFlags13stl_allocatorIS1_L18MemLabelIdentifier1ELi16EEE21__push_back_slow_pathIKS1_EEvRT_
2808:__ZNSt3__26__treeIiNS_4lessIiEE13stl_allocatorIiL18MemLabelIdentifier1ELi16EEE7destroyEPNS_11__tree_nodeIiPvEE
2809:__ZN15dense_hashtableINSt3__24pairIKiiEEi21InstanceIDHashFunctorN14dense_hash_mapIiiS4_NS0_8equal_toIiEE13stl_allocatorIS3_L18MemLabelIdentifier1ELi16EEE9SelectKeyES7_SA_E9copy_fromERKSD_j
2810:__ZN17PersistentManager21UnloadNonDirtyStreamsEv
2811:__ZN18LoadSceneOperationC2Ev
2812:__ZN13LoadOperationC2Ev
2813:__ZN18LoadSceneOperationD2Ev
2814:__ZN18LoadSceneOperationD0Ev
2815:__ZN18LoadSceneOperation23GetAllowSceneActivationEv
2816:__ZN18LoadSceneOperation23SetAllowSceneActivationEb
2817:__ZN18LoadSceneOperation14SetFinalTimingEffff
2818:__ZN18LoadSceneOperation7PerformEv
2819:__ZN18LoadSceneOperation19IntegrateTimeSlicedEi
2820:__ZN18LoadSceneOperation19IntegrateMainThreadEv
2821:__ZN18LoadSceneOperation21MustCompleteNextFrameEv
2822:__ZN19RuntimeSceneManager24BeginIntegrateMainThreadEP10UnityScene
2823:__ZN18AwakeFromLoadQueue25RegisterObjectInstanceIDsEv
2824:__ZN18LoadSceneOperation21CompleteAwakeSequenceEv
2825:__ZN18LoadSceneOperation25PlayerLoadSceneFromThreadEv
2826:__ZN19RuntimeSceneManager22EndIntegrateMainThreadEP10UnitySceneNS_11LoadingModeE
2827:__Z33GetRuntimeInitializeOnLoadManagerv
2828:__ZN30RuntimeInitializeOnLoadManager23ExecuteInitializeOnLoadE25RuntimeInitializeLoadType
2829:__ZN18LoadSceneOperation13CleanupMemoryEv
2830:__ZN18AwakeFromLoadQueue5ClearEv
2831:__ZN30RuntimeInitializeOnLoadManager23ExecuteInitializeOnLoadENSt3__26vectorIi13stl_allocatorIiL18MemLabelIdentifier12ELi16EEEE
2832:__ZN19RuntimeSceneManager31CollectDontDestroyOnLoadObjectsERNSt3__23setIiNS0_4lessIiEENS0_9allocatorIiEEEE
2833:__Z15UnloadGameScenev
2834:__Z16CleanupAfterLoadv
2835:__ZNK10UnityScene13GetBuildIndexEv
2836:__ZN11TimeManager21DidFinishLoadingSceneEv
2837:__ZNSt3__26__treeI4PPtrI6ObjectENS_4lessIS3_EENS_9allocatorIS3_EEE7destroyEPNS_11__tree_nodeIS3_PvEE
2838:__ZN19RenderBufferManager14GarbageCollectEi
2839:__Z29ClearRepeatingLogMessageStatev
2840:__Z27scripting_gc_collect_unsafei
2841:__ZN13RenderManager18UpdateAllRenderersEv
2842:__Z21GetDelayedCallManagerv
2843:__ZN15QualitySettings13ApplySettingsEib
2844:__ZN7Texture13SetAnisoLimitENS_20AnisotropicFilteringE
2845:__ZN7Texture21SetMasterTextureLimitEib
2846:__Z21GetLODGroupManagerPtrv
2847:__ZL21SetAnisoLimitEnumImplN7Texture20AnisotropicFilteringEb
2848:__ZN15TextureSettings14SetAnisoLimitsEii
2849:__ZN21RendererUpdateManager18OncePerFrameUpdateER13RendererScene
2850:__ZN21RendererUpdateManager9UpdateAllER13RendererScene
2851:__Z31GetLightProbeProxyVolumeManagerv
2852:__ZN28LightProbeProxyVolumeManager6UpdateEv
2853:__ZN28LightProbeProxyVolumeContext5ResetEv
2854:__ZN28LightProbeProxyVolumeManager17UpdateBoundingBoxER21LightProbeProxyVolume
2855:__ZN28LightProbeProxyVolumeManager16UpdateResolutionER21LightProbeProxyVolume
2856:__ZN28LightProbeProxyVolumeManager22AllocateVolumeTexturesER21LightProbeProxyVolume
2857:__ZN28LightProbeProxyVolumeManager16BlendLightProbesER21LightProbeProxyVolume
2858:__ZN28LightProbeProxyVolumeManager25UpdateSHCoeffsTextureDataER21LightProbeProxyVolume
2859:__ZN21LightProbeProxyVolume13GetRenderDataER27LightProbeProxyVolumeSample
2860:__ZN21LightProbeProxyVolume21GetWorldToLocalMatrixEv
2861:__ZN27LightProbeProxyVolumeSample10InvalidateEv
2862:__ZN10Matrix4x4f12SetTranslateERK8Vector3f
2863:__ZNK9Transform21GetWorldToLocalMatrixEv
2864:__Z28CalculateGlobalMatrixInverse23TransformAccessReadOnly
2865:__ZN9Texture3D15UpdateImageDataEb
2866:__ZN9Texture3D13RebuildMipMapEv
2867:__ZN9Texture3D13UploadTextureEi
2868:__Z12CreateMipMapPhiii13TextureFormat
2869:__Z19GetLightmapSettingsv
2870:__Z17GetRenderSettingsv
2871:__ZN17LightProbeContext4InitERK16LightmapSettingsRK14RenderSettings
2872:__ZN26LightProbeProxyVolumeUtilsL20FindTetrahedronIndexER9TransformRi
2873:__ZNK9Transform21GetLocalToWorldMatrixEv
2874:__ZN10Matrix4x4fmLERKS_
2875:__ZL19BlendLightProbesJobP19BlendProbesJobInputj
2876:__Z38CalculateLightProbeSamplingCoordinatesRK17LightProbeContextRK8Vector3fiR29LightProbeSamplingCoordinates
2877:__Z33InterpolateLightProbeCoefficientsRK17LightProbeContextRK29LightProbeSamplingCoordinatesR20SphericalHarmonicsL2
2878:__Z33GetInterpolatedLightOcclusionMaskRK17LightProbeContextRK29LightProbeSamplingCoordinatesR8Vector4f
2879:__ZN20SphericalHarmonicsL27SetZeroEv
2880:__ZN20SphericalHarmonicsL211AddWeightedERKS_f
2881:__ZNK11LightProbes14LightProbeData33GetLightProbeInterpolationWeightsERK8Vector3fRiR8Vector4fRf
2882:__Z37GetBarycentricCoordinatesForOuterCellPPK8Vector3fRK13dynamic_arrayIS_Lj4EERS0_RK11TetrahedronR8Vector4fRf
2883:__ZN15LightProbeUtils32BarycentricCoordinates3DTriangleEPK8Vector3fRS1_
2884:__Z21CalculateGlobalMatrix23TransformAccessReadOnly
2885:__ZNK16LightmapSettings14GetLightProbesEv
2886:__ZNK16LightmapSettings19AreLightProbesBakedEv
2887:__ZNK16LightmapSettings23HasLightProbeTetrahedraEv
2888:__ZN9Texture3D11InitTextureEiii13TextureFormatb
2889:__Z20IsValidTextureFormat13TextureFormat
2890:__ZN9Texture3DC2E18MemLabelIdentifier18ObjectCreationMode
2891:__ZN9Texture3DD2Ev
2892:__ZN9Texture3DD0Ev
2893:__ZN9Texture3D17MainThreadCleanupEv
2894:__ZN9Texture3D13AwakeFromLoadE17AwakeFromLoadMode
2895:__ZN9Texture3D21AwakeFromLoadThreadedEv
2896:__ZN9Texture3D5ResetEv
2897:__ZNK9Texture3D26GetTypeInfoVirtualInternalEv
2898:__ZNK9Texture3D20GetRuntimeMemorySizeEv
2899:__ZN9Texture3D23VirtualRedirectTransferER19StreamedBinaryWriteILb0EE
2900:__ZN9Texture3D23VirtualRedirectTransferER18StreamedBinaryReadILb0EE
2901:__ZN9Texture3D23VirtualRedirectTransferER24GenerateTypeTreeTransfer
2902:__ZN9Texture3D23VirtualRedirectTransferER14SafeBinaryRead
2903:__ZNK9Texture3D26CanReuploadDataToGfxDeviceEv
2904:__ZNK9Texture3D20GetTextureLayerCountEv
2905:__ZNK9Texture3D12GetDimensionEv
2906:__ZN9Texture3D34UpdateFileTextureUploadInstructionEP28FileTextureUploadInstructionj
2907:__ZNK9Texture3D13GetIsReadableEv
2908:__ZN9Texture3D19UnloadFromGfxDeviceEb
2909:__ZN9Texture3D17UploadToGfxDeviceEv
2910:__ZNK9Texture3D16ExtractImageImplEP14ImageReferenceNS0_8BlitModeEbi
2911:__ZN14ImageReference9BlitImageERKS_NS_8BlitModeE
2912:__ZN14ImageReference9BlitImageERKS_NS_10ColorSpaceENS_8BlitModeE
2913:__Z21HasAlphaTextureFormat13TextureFormat
2914:__ZL21BlitScaleStbImageImplRK14ImageReferenceRS_NS_10ColorSpaceE
2915:__Z11IsHDRFormat13TextureFormat
2916:__ZL8StbAllocjPv
2917:__ZL7StbFreePvS_
2918:_stbir_resize
2919:__ZL23stbir__resize_arbitraryPvPKviiiS_iiiffffPfiij14stbir_datatype12stbir_filterS4_10stbir_edgeS5_16stbir_colorspace
2920:__ZL23stbir__calculate_memoryP11stbir__info
2921:__ZL24stbir__calculate_filtersP11stbir__infoP19stbir__contributorsPf12stbir_filterffii
2922:__ZL22stbir__decode_scanlineP11stbir__infoi
2923:__ZL35stbir__resample_horizontal_upsampleP11stbir__infoiPf
2924:__ZL37stbir__resample_horizontal_downsampleP11stbir__infoiPf
2925:__ZL22stbir__encode_scanlineP11stbir__infoiPvPfiii
2926:__ZL19stbir__support_zerof
2927:__ZL23stbir__filter_trapezoidff
2928:__ZL24stbir__support_trapezoidf
2929:__ZL22stbir__filter_triangleff
2930:__ZL18stbir__support_onef
2931:__ZL19stbir__filter_cubicff
2932:__ZL18stbir__support_twof
2933:__ZL24stbir__filter_catmullromff
2934:__ZL22stbir__filter_mitchellff
2935:__ZL31stbir__filter_mitchell_modifiedff
2936:__ZN17PersistentManager14ReloadFromDiskER6Object
2937:__ZN17PersistentManager17IsObjectAvailableEi
2938:__ZNK14SerializedFile7GetTypeEx
2939:__ZN9Texture3D8TransferI14SafeBinaryReadEEvRT_
2940:__ZN14SafeBinaryRead16TransferTypelessEPjPKc17TransferMetaFlags
2941:__ZN14SafeBinaryRead20TransferTypelessDataEjPvi
2942:__ZN14SafeBinaryRead21TransferResourceImageE19ActiveResourceImagePKcR13StreamingInfoPvjiPKN5Unity4TypeE
2943:__ZN13StreamingInfo8TransferI14SafeBinaryReadEEvRT_
2944:__ZN12CachedReader4ReadEPvj
2945:__ZN9Texture3D8TransferI24GenerateTypeTreeTransferEEvRT_
2946:__ZN24GenerateTypeTreeTransfer16TransferTypelessEPjPKc17TransferMetaFlags
2947:__ZN24GenerateTypeTreeTransfer20TransferTypelessDataEjPvi
2948:__ZN24GenerateTypeTreeTransfer21TransferResourceImageE19ActiveResourceImagePKcR13StreamingInfoPvjiPKN5Unity4TypeE
2949:__ZN29SerializeTraitsForStringTypesIN4core12basic_stringIcNS0_20StringStorageDefaultIcEEEEE8TransferI24GenerateTypeTreeTransferEEvRS4_RT_
2950:__ZN9Texture3D8TransferI18StreamedBinaryReadILb0EEEEvRT_
2951:__ZN18StreamedBinaryReadILb0EE16TransferTypelessEPjPKc17TransferMetaFlags
2952:__ZN18StreamedBinaryReadILb0EE20TransferTypelessDataEjPvi
2953:__ZN18StreamedBinaryReadILb0EE21TransferResourceImageE19ActiveResourceImagePKcR13StreamingInfoPvjiPKN5Unity4TypeE
2954:__ZN12CachedReader4SkipEj
2955:__ZN9Texture3D8TransferI19StreamedBinaryWriteILb0EEEEvRT_
2956:__ZN19StreamedBinaryWriteILb0EE16TransferTypelessEPjPKc17TransferMetaFlags
2957:__ZN19StreamedBinaryWriteILb0EE20TransferTypelessDataEjPvi
2958:__ZN19StreamedBinaryWriteILb0EE21TransferResourceImageE19ActiveResourceImagePKcR13StreamingInfoPvjiPKN5Unity4TypeE
2959:__ZN12CachedWriter5WriteEPKvj
2960:__ZN7Texture34CreateFileTextureUploadInstructionE18TextureUploadFlagsj
2961:__ZN18AsyncUploadManager17CreateInstructionEv
2962:__ZN18AsyncUploadManager22UploadStreamingTextureEP28FileTextureUploadInstruction
2963:__ZNK9Transform13GetLocalScaleEv
2964:__ZN21LightProbeProxyVolume27ValidateBoundingBoxSettingsEv
2965:__ZN26LightProbeProxyVolumeUtilsL27ComputeLocalAABBOnHierarchyERK10Matrix4x4fR9TransformR10MinMaxAABB
2966:__ZN26LightProbeProxyVolumeUtilsL28ComputeGlobalAABBOnHierarchyER9TransformR10MinMaxAABB
2967:__Z17TransformAABBSlowRK4AABBRK10Matrix4x4fRS_
2968:__ZN8Renderer29GetTransformInfoAndUpdateSlowEv
2969:__Z16GetRendererScenev
2970:__ZN21RendererUpdateManager20UpdateSingleRendererER8RendererR13RendererScene
2971:__ZN9Transform18GetTransformAccessEv
2972:__ZN23TransformChangeDispatch19GetSystemInterestedE23TransformAccessReadOnly27TransformChangeSystemHandle
2973:__ZNK4AABB17CalculateVerticesEP8Vector3f
2974:__ZN21LightProbeProxyVolume18HasHardwareSupportEv
2975:__ZN23TransformChangeDispatch40GetAndClearChangedAsBatchedJobs_InternalE27TransformChangeSystemHandlePFvPvjPK23TransformAccessReadOnlyjES1_PFvS1_EP19ProfilerInformation
2976:__ZN13RendererScene23UpdatePreviousFrameDataEii
2977:__Z40ConfigureBlockRangesWithMinIndicesPerJobP10BlockRangeii
2978:__ZN14BatchAllocator16AllocateInternalEPPvijjj
2979:__ZN14BatchAllocator6CommitE18MemLabelIdentifier
2980:__ZN18JobBatchDispatcher8KickJobsEv
2981:__ZN18BlockRangeInternal16PopLastNodeIndexEP10BlockRangeji
2982:__ZN18BlockRangeInternal25GetSizeFromLastBlockRangeEP10BlockRangej
2983:__ZL8BatchJobP18BatchJobDataSingle
2984:__ZN18JobBatchDispatcher26ScheduleJobDependsInternalER8JobFencePFvPvES2_RKS0_
2985:__Z9RecordJobPFvPvES_R21SingleThreadedJobInfo
2986:__Z23ExecuteJobInfoImmediateRK21SingleThreadedJobInfo
2987:__ZN18JobBatchDispatcherD2Ev
2988:__ZN18JobBatchDispatcherC2E11JobPriorityi
2989:__ZN14BatchAllocatorC2Ev
2990:__Z23CollectSceneGameObjectsR13dynamic_arrayIiLj4EE
2991:__ZN19RuntimeSceneManager43UnloadAllScenesWithoutDestroyingGameObjectsEv
2992:__Z12CollectPPtrsRK6ObjectRNSt3__23setIiNS2_4lessIiEENS2_9allocatorIiEEEE
2993:__ZN18IDCollectorFunctor18GenerateInstanceIDEi17TransferMetaFlags
2994:__ZN10UnityScene24ExtractLevelGameManagersER18AwakeFromLoadQueue
2995:__ZN18AwakeFromLoadQueue30PersistentManagerAwakeFromLoadEv
2996:__Z17GetManagerContextv
2997:__Z17dynamic_pptr_castIP16LevelGameManager6ObjectET_RK4PPtrIT0_E
2998:__ZN27TimeSliceAwakeFromLoadQueue19IntegrateTimeSlicedEi
2999:__ZN19RingbufferTemplates23PeekValueFromRingBufferIN27TimeSliceAwakeFromLoadQueue13AsyncInstanceE17GrowingRingbufferEEbRT0_RPKT_
3000:__ZN19RingbufferTemplates23PeekValueFromRingBufferIi17GrowingRingbufferEEbRT0_RPKT_
3001:__ZN17PersistentManager30GetInstanceIDFromPathAndFileIDERKN4core12basic_stringIcNS0_20StringStorageDefaultIcEEEEx
3002:__ZN18AssetBundleManager30CollectPreloadDataDependenciesEPK11AssetBundleRKNSt3__26vectorI14ConstantStringNS3_9allocatorIS5_EEEER13dynamic_arrayIiLj4EEb
3003:__ZN17PersistentManager27GetLoadErrorMessageFromPathERKN4core12basic_stringIcNS0_20StringStorageDefaultIcEEEE
3004:__ZN17PersistentManager29GetAllFileIDsAndTypesFromPathERKN4core12basic_stringIcNS0_20StringStorageDefaultIcEEEER13dynamic_arrayIxLj8EERS7_IPKN5Unity4TypeELj4EE
3005:__Z48AddToTimeSliceAwakeFromLoadQueueProgressCallbackR6ObjectPv
3006:__ZN17PersistentManager19LoadObjectsThreadedEPiiR12LoadProgress
3007:__ZN17PersistentManager26LoadFileCompletelyThreadedERKN4core12basic_stringIcNS0_20StringStorageDefaultIcEEEEPxPiibR12LoadProgress
3008:__ZN17PersistentManager34ExtractTimeSliceAwakeFromLoadQueueER27TimeSliceAwakeFromLoadQueue
3009:__ZN17PersistentManager25GetSerializedFileInternalERKN4core12basic_stringIcNS0_20StringStorageDefaultIcEEEE
3010:__ZN17PersistentManager25ExtractAwakeFromLoadQueueEPKijR18AwakeFromLoadQueue
3011:__ZN17PersistentManager31HasMemoryOrCachedSerializedFileERKN4core12basic_stringIcNS0_20StringStorageDefaultIcEEEE
3012:__ZN17PersistentManager12UnloadStreamERKN4core12basic_stringIcNS0_20StringStorageDefaultIcEEEEb
3013:__ZN19RingbufferTemplates22WriteValueToRingBufferIi17GrowingRingbufferEEbRT0_RKT_
3014:__ZN17PersistentManager13GetAllFileIDsERKN4core12basic_stringIcNS0_20StringStorageDefaultIcEEEER13dynamic_arrayIxLj8EE
3015:__ZN17PersistentManager22CheckInstanceIDsLoadedEPii
3016:__ZNSt3__26__sortIRNS_4lessIiEEPiEEvT0_S5_T_
3017:__ZN6Object22CheckInstanceIDsLoadedEPii
3018:__ZNSt3__27__sort5IRNS_4lessIiEEPiEEjT0_S5_S5_S5_S5_T_
3019:__ZNSt3__227__insertion_sort_incompleteIRNS_4lessIiEEPiEEbT0_S5_T_
3020:__ZNK14SerializedFile13GetAllFileIDsER13dynamic_arrayIxLj8EE
3021:__ZN18AsyncUploadManager13GetAsyncFenceEP6Object
3022:__ZN19RingbufferTemplates22WriteValueToRingBufferIN27TimeSliceAwakeFromLoadQueue13AsyncInstanceE17GrowingRingbufferEEbRT0_RKT_
3023:__ZN18AssetBundleManager19PopulatePreloadDataERK13dynamic_arrayIiLj4EERS0_INS_11PreloadDataELj8EE
3024:__ZN18AssetBundleManager29CollectPreloadDataRecursivelyEPK11AssetBundleRKNSt3__26vectorI14ConstantStringNS3_9allocatorIS5_EEEERK13dynamic_arrayIiLj4EER19InstanceIDHashTableIPKNS0_9AssetInfoENS3_4pairIKiSI_EEEb
3025:__ZNSt3__26__sortIRN18AssetBundleManager27SortPreloadDataByIdentifierEPNS1_11PreloadDataEEEvT0_S6_T_
3026:__ZNSt3__27__sort3IRN18AssetBundleManager27SortPreloadDataByIdentifierEPNS1_11PreloadDataEEEjT0_S6_S6_T_
3027:__ZNSt3__27__sort4IRN18AssetBundleManager27SortPreloadDataByIdentifierEPNS1_11PreloadDataEEEjT0_S6_S6_S6_T_
3028:__ZNSt3__27__sort5IRN18AssetBundleManager27SortPreloadDataByIdentifierEPNS1_11PreloadDataEEEjT0_S6_S6_S6_S6_T_
3029:__ZNSt3__218__insertion_sort_3IRN18AssetBundleManager27SortPreloadDataByIdentifierEPNS1_11PreloadDataEEEvT0_S6_T_
3030:__ZNSt3__227__insertion_sort_incompleteIRN18AssetBundleManager27SortPreloadDataByIdentifierEPNS1_11PreloadDataEEEbT0_S6_T_
3031:__ZN18AssetBundleManager18CollectPreloadDataEiPK11AssetBundleRKNSt3__26vectorI14ConstantStringNS3_9allocatorIS5_EEEER13dynamic_arrayIiLj4EEb
3032:__ZNK11AssetBundle14GetPreloadDataEiR13dynamic_arrayIiLj4EE
3033:__ZN17PersistentManager32GetSerializedTypesAndIdentifiersERK13dynamic_arrayIiLj4EERS0_IPKN5Unity4TypeELj4EERS0_I26SerializedObjectIdentifierLj8EE
3034:__ZN17PersistentManager38GetSerializedTypeAndIdentifierInternalEiRPKN5Unity4TypeER26SerializedObjectIdentifier
3035:__ZNK14SerializedFile15GetTypeIfExistsEx
3036:__ZN13LoadOperationD2Ev
3037:__ZN13LoadOperationD0Ev
3038:__ZN13LoadOperation7PerformEv
3039:__ZN13LoadOperation19IntegrateTimeSlicedEi
3040:__ZN13LoadOperation19IntegrateMainThreadEv
3041:__ZN10UnitySceneD2Ev
3042:__ZN10UnitySceneD0Ev
3043:__ZNK10UnityScene7ReleaseEv
3044:__ZN19RuntimeSceneManager11CreateSceneEv
3045:__ZNSt3__26vectorI17ScriptingClassPtrNS_9allocatorIS1_EEE8__appendEjRKS1_
3046:__ZL30FindScriptingClassForClassNamePKc
3047:__ZN13sorted_vectorINSt3__24pairI17ScriptingClassPtrPKN5Unity4TypeEEEN10vector_mapIS2_S6_NS0_4lessIS2_EENS0_9allocatorIS7_EEE13value_compareESC_E21sort_clear_duplicatesEv
3048:__ZL40FindScriptingClassForNativeTypeRecursivePKN5Unity4TypeE17ScriptingClassPtr
3049:__ZNSt3__213__stable_sortIRN10vector_mapI17ScriptingClassPtrPKN5Unity4TypeENS_4lessIS2_EENS_9allocatorINS_4pairIS2_S6_EEEEE13value_compareENS_11__wrap_iterIPSB_EEEEvT0_SJ_T_NS_15iterator_traitsISJ_E15difference_typeEPNSM_10value_typeEi
3050:__ZNSt3__218__stable_sort_moveIRN10vector_mapI17ScriptingClassPtrPKN5Unity4TypeENS_4lessIS2_EENS_9allocatorINS_4pairIS2_S6_EEEEE13value_compareENS_11__wrap_iterIPSB_EEEEvT0_SJ_T_NS_15iterator_traitsISJ_E15difference_typeEPNSM_10value_typeE
3051:__ZNSt3__215__inplace_mergeIRN10vector_mapI17ScriptingClassPtrPKN5Unity4TypeENS_4lessIS2_EENS_9allocatorINS_4pairIS2_S6_EEEEE13value_compareENS_11__wrap_iterIPSB_EEEEvT0_SJ_SJ_T_NS_15iterator_traitsISJ_E15difference_typeESN_PNSM_10value_typeEi
3052:__ZNSt3__224__buffered_inplace_mergeIRN10vector_mapI17ScriptingClassPtrPKN5Unity4TypeENS_4lessIS2_EENS_9allocatorINS_4pairIS2_S6_EEEEE13value_compareENS_11__wrap_iterIPSB_EEEEvT0_SJ_SJ_T_NS_15iterator_traitsISJ_E15difference_typeESN_PNSM_10value_typeE
3053:__Z24InitializeEngineGraphicsb
3054:__ZNK12GraphicsCaps17CheckGPUSupportedEv
3055:__Z24PlayerLoadGlobalManagersPKcS0_j
3056:__ZN9ShaderLab28UpdateGlobalShaderPropertiesEf
3057:__ZNK11PreloadData18GetInstanceIDArrayER13dynamic_arrayIiLj4EE
3058:__ZN17PersistentManager18LoadFileCompletelyERKN4core12basic_stringIcNS0_20StringStorageDefaultIcEEEE
3059:__Z19InitializeGfxDevice20GfxCreateDeviceFlags
3060:__ZN9JobSystem15CreateJobSystemEv
3061:__ZN9ShaderLab13InitShaderLabEv
3062:__Z27ShaderPassContextInitializev
3063:__ZN11TypeManager23CallPostInitializeTypesEv
3064:__ZN14MessageHandler16ResolveCallbacksEv
3065:__ZN22BuiltinResourceManager22InitializeAllResourcesEv
3066:__Z33InitializeMeshVertexFormatManagerv
3067:__ZN6Shader18LoadDefaultShadersEv
3068:__Z22GetGraphicsSettingsPtrv
3069:__ZN16GraphicsSettings22WarmupPreloadedShadersEv
3070:__ZZ24InitializeEngineGraphicsbEN35exitPlayModeAfterOnEnableInEditMode7ForwardEv
3071:__ZN13RendererScene26ClearIntermediateRenderersEv
3072:__ZN23ShaderVariantCollection13WarmupShadersEv
3073:__ZN9GfxDevice13GetDynamicVBOEv
3074:__ZL20ShaderWarmupFuncImplP6ShaderiPN9ShaderLab4PassERK16ShaderKeywordSetP10DynamicVBOPvR17ShaderPassContext
3075:__ZN23ShaderVariantCollection17WarmupShadersImplEPFvP6ShaderiPN9ShaderLab4PassERK16ShaderKeywordSetP10DynamicVBOPvR17ShaderPassContextES9_SA_
3076:__ZN17ShaderPassContext8CopyFromERKS_
3077:__ZN6Shader25GetGlobalMaximumShaderLODEv
3078:__ZN16MeshVertexFormat20GetVertexDeclarationE17ShaderChannelMaskPKS_b
3079:__ZN16MeshVertexFormat23CreateVertexDeclarationE17ShaderChannelMaskPKS_b
3080:__ZNSt3__26vectorINS_4pairIyP17VertexDeclarationEENS_9allocatorIS4_EEE6insertENS_11__wrap_iterIPKS4_EERS9_
3081:__ZN22BuiltinResourceManager19InitializeResourcesEv
3082:__ZNSt3__26__sortIRNS_4lessIN22BuiltinResourceManager8ResourceEEEPS3_EEvT0_S7_T_
3083:__ZNSt3__27__sort3IRNS_4lessIN22BuiltinResourceManager8ResourceEEEPS3_EEjT0_S7_S7_T_
3084:__ZNSt3__27__sort4IRNS_4lessIN22BuiltinResourceManager8ResourceEEEPS3_EEjT0_S7_S7_S7_T_
3085:__ZNSt3__27__sort5IRNS_4lessIN22BuiltinResourceManager8ResourceEEEPS3_EEjT0_S7_S7_S7_S7_T_
3086:__ZNSt3__218__insertion_sort_3IRNS_4lessIN22BuiltinResourceManager8ResourceEEEPS3_EEvT0_S7_T_
3087:__ZNSt3__227__insertion_sort_incompleteIRNS_4lessIN22BuiltinResourceManager8ResourceEEEPS3_EEbT0_S7_T_
3088:__ZN16MessageForwarder15AddBaseMessagesERKS_
3089:__ZN14dynamic_bitset6resizeEjb
3090:__Z14CreateJobQueuePKcS0_i
3091:__Z7HasARGVRKN4core12basic_stringIcNS_20StringStorageDefaultIcEEEE
3092:__Z20GetFirstValueForARGVRKN4core12basic_stringIcNS_20StringStorageDefaultIcEEEE
3093:__Z19CreateGLESGfxDevice17GfxDeviceRenderer
3094:__ZN12GraphicsCaps24SharedCapsPostInitializeEv
3095:__ZN12TextureIdMap10InitializeEv
3096:__ZN16RenderTextureMap10InitializeEv
3097:__ZN13RenderTexture9SetActiveEPS_i11CubemapFaceiNS_14SetActiveFlagsE
3098:__ZZ19InitializeGfxDevice20GfxCreateDeviceFlagsEN38PreLateUpdateEndGraphicsJobsLatestruct7ForwardEv
3099:__ZN10DynamicVBO9NextFrameEv
3100:__ZN15dense_hashtableINSt3__24pairIKPK17RenderSurfaceBaseP13RenderTextureEES4_19PointerHashFunctionIS4_EN14dense_hash_mapIS4_S7_SA_NS0_8equal_toIS4_EE13stl_allocatorIS8_L18MemLabelIdentifier65ELi16EEE9SelectKeyESD_SG_E14squash_deletedEv
3101:__ZN15dense_hashtableINSt3__24pairIK9TextureIDiEES2_N12TextureIdMap20TextureIDHashFunctorEN14dense_hash_mapIS2_iS6_NS0_8equal_toIS2_EE13stl_allocatorIS4_L18MemLabelIdentifier65ELi16EEE9SelectKeyES9_SC_E14squash_deletedEv
3102:__ZN15dense_hashtableINSt3__24pairIK9TextureIDiEES2_N12TextureIdMap20TextureIDHashFunctorEN14dense_hash_mapIS2_iS6_NS0_8equal_toIS2_EE13stl_allocatorIS4_L18MemLabelIdentifier65ELi16EEE9SelectKeyES9_SC_E9copy_fromERKSF_j
3103:__ZN10systeminfo19GetPhysicalMemoryMBEv
3104:__ZN13GfxDeviceGLESC2E18MemLabelIdentifier
3105:__ZN9GfxDeviceC2E18MemLabelIdentifier
3106:__ZN22VertexDeclarationCacheD2Ev
3107:__ZN26VertexDeclarationCacheGLESD0Ev
3108:__ZN22VertexDeclarationCache13GetVertexDeclERK18VertexChannelsInfo
3109:__ZN26VertexDeclarationCacheGLES23CreateVertexDeclarationERK18VertexChannelsInfo
3110:__ZN26VertexDeclarationCacheGLES24DestroyVertexDeclarationEP17VertexDeclaration
3111:__ZNSt3__26__treeINS_12__value_typeI18VertexChannelsInfoP17VertexDeclarationEENS_19__map_value_compareIS2_S5_NS_4lessIS2_EELb1EEE13stl_allocatorIS5_L18MemLabelIdentifier14ELi16EEE7destroyEPNS_11__tree_nodeIS5_PvEE
3112:__ZN19ConstantBuffersGLESC2Ev
3113:__ZN7ApiGLESC2Ev
3114:__ZN7ApiGLES24InitGetTextureTargetFuncE16TextureDimensionj
3115:__ZN7ApiGLES23GetTextureTargetDefaultE16TextureDimensionj
3116:__ZNK13TranslateGLES21GetTextureTargetCountE16TextureDimension
3117:__ZNK13TranslateGLES16GetTextureTargetE16TextureDimensionj
3118:__ZN7ApiGLES13CreateTextureEjjN2gl9TexFormatEiiiii
3119:__ZNK13TranslateGLES25GetTextureTargetDimensionEj
3120:__ZNK13TranslateGLES23GetDefaultTextureTargetE16TextureDimension
3121:__ZN7ApiGLES13DeleteTextureERj
3122:__ZN7ApiGLES36GetTextureTargetViaSuccessfulBindingE16TextureDimensionj
3123:__ZN7ApiGLES36GetTextureTargetViaFrameBufferStatusE16TextureDimensionj
3124:__ZNK13TranslateGLES17FramebufferTargetEN2gl17FramebufferTargetE
3125:__ZN7ApiGLES30GetTextureTargetViaDirectQueryE16TextureDimensionj
3126:__ZNK13TranslateGLES13GetFormatDescEN2gl9TexFormatE
3127:__ZN9DebugGLESC2ERK7ApiGLES
3128:__ZN13GfxDeviceGLESD2Ev
3129:__ZN13GfxDeviceGLESD0Ev
3130:__ZN13GfxDeviceGLES15InvalidateStateEv
3131:__ZN13GfxDeviceGLES18BeforePluginRenderEv
3132:__ZN13GfxDeviceGLES17AfterPluginRenderEv
3133:__ZNK13GfxDeviceGLES14GetDeviceLevelEv
3134:__ZN9GfxDevice13SetActiveTierE12GraphicsTier
3135:__ZN9GfxDevice20SetMaxBufferedFramesEi
3136:__ZN13GfxDeviceGLES5ClearE13GfxClearFlagsRK10ColorRGBAffj
3137:__ZN13GfxDeviceGLES19RenderTargetBarrierEv
3138:__ZN9GfxDevice18GetNumGraphicsJobsEj
3139:__ZN9GfxDevice29GetMinimumNodesPerGraphicsJobEv
3140:__ZN13GfxDeviceGLES16CreateBlendStateERK13GfxBlendState
3141:__ZN13GfxDeviceGLES16CreateDepthStateERK13GfxDepthState
3142:__ZN13GfxDeviceGLES18CreateStencilStateERK15GfxStencilState
3143:__ZN13GfxDeviceGLES17CreateRasterStateERK14GfxRasterState
3144:__ZN13GfxDeviceGLES13SetBlendStateEPK16DeviceBlendState
3145:__ZN13GfxDeviceGLES14SetRasterStateEPK17DeviceRasterState
3146:__ZN13GfxDeviceGLES13SetDepthStateEPK16DeviceDepthState
3147:__ZN13GfxDeviceGLES15SetStencilStateEPK18DeviceStencilStatei
3148:__ZN9GfxDevice34SetStencilRefWhenStencilWasSkippedEi
3149:__ZN13GfxDeviceGLES12SetSRGBWriteEb
3150:__ZN13GfxDeviceGLES12GetSRGBWriteEv
3151:__ZN13GfxDeviceGLES19SetUserBackfaceModeEb
3152:__ZN13GfxDeviceGLES16SetForceCullModeE8CullMode
3153:__ZN9GfxDevice21SetWorldMatrixAndTypeERK10Matrix4x4f13TransformType
3154:__ZN13GfxDeviceGLES14SetWorldMatrixERK10Matrix4x4f
3155:__ZN13GfxDeviceGLES13SetViewMatrixERK10Matrix4x4f
3156:__ZN13GfxDeviceGLES19SetProjectionMatrixERK10Matrix4x4f
3157:__ZN13GfxDeviceGLES26UpdateViewProjectionMatrixEv
3158:__ZNK9GfxDevice18GetWorldViewMatrixEv
3159:__ZNK9GfxDevice14GetWorldMatrixEv
3160:__ZNK9GfxDevice13GetViewMatrixEv
3161:__ZNK9GfxDevice19GetProjectionMatrixEv
3162:__ZNK9GfxDevice25GetDeviceProjectionMatrixEv
3163:__ZNK9GfxDevice31CalculateDeviceProjectionMatrixER10Matrix4x4fbb
3164:__ZN13GfxDeviceGLES15SetBackfaceModeEb
3165:__ZN13GfxDeviceGLES11SetViewportERK5RectTIiE
3166:__ZNK13GfxDeviceGLES11GetViewportEv
3167:__ZN13GfxDeviceGLES14SetScissorRectERK5RectTIiE
3168:__ZN13GfxDeviceGLES14DisableScissorEv
3169:__ZNK13GfxDeviceGLES16IsScissorEnabledEv
3170:__ZNK13GfxDeviceGLES14GetScissorRectEv
3171:__ZN13GfxDeviceGLES11SetTexturesE10ShaderTypeiPK15GfxTextureParam
3172:__ZN13GfxDeviceGLES16SetTextureParamsE9TextureID16TextureDimension17TextureFilterMode15TextureWrapModeifb17TextureColorSpace18ShadowSamplingMode
3173:__ZN13GfxDeviceGLES25SetShaderPropertiesCopiedERK19ShaderPropertySheet
3174:__ZN9GfxDevice25SetShaderPropertiesSharedERK19ShaderPropertySheet
3175:__ZN9GfxDevice16CreateGpuProgramE20ShaderGpuProgramTypeRK13dynamic_arrayIhLj1EER22CreateGpuProgramOutput
3176:__ZN19GfxThreadableDevice20SetShadersMainThreadERKN9ShaderLab11SubProgramsEPK19ShaderPropertySheetS6_
3177:__ZNK13GfxDeviceGLES14IsShaderActiveE10ShaderType
3178:__ZN13GfxDeviceGLES17DestroySubProgramEPN9ShaderLab10SubProgramE
3179:__ZN13GfxDeviceGLES17DestroyGpuProgramEPK10GpuProgram
3180:__ZN13GfxDeviceGLES20UpdateConstantBufferEijPKv
3181:__ZN13GfxDeviceGLES12CreateBufferERK13GfxBufferDescPKv20GfxUpdateBufferFlags
3182:__ZN13GfxDeviceGLES12UpdateBufferEP9GfxBufferPKv20GfxUpdateBufferFlags
3183:__ZN13GfxDeviceGLES16BeginBufferWriteEP9GfxBufferjj
3184:__ZN13GfxDeviceGLES14EndBufferWriteEP9GfxBufferj
3185:__ZN13GfxDeviceGLES12DeleteBufferEP9GfxBuffer
3186:__ZN13GfxDeviceGLES20GetVertexDeclarationERK18VertexChannelsInfo
3187:__ZN13GfxDeviceGLES11DrawBuffersEP9GfxBufferPK18VertexStreamSourceiPK16DrawBuffersRangeiP17VertexDeclaration17ShaderChannelMask
3188:__ZN13GfxDeviceGLES19DrawBuffersIndirectEP9GfxBufferPK18VertexStreamSourceiP17VertexDeclaration17ShaderChannelMask16GfxPrimitiveType15ComputeBufferIDj
3189:__ZN9GfxDevice28ScheduleGeometryJobsInternalEPFvP15GeometryJobDataEPK22GeometryJobInstructionj
3190:__ZN9GfxDevice38ScheduleDynamicVBOGeometryJobsInternalEPFvP25DynamicVBOGeometryJobDatajEPFvS1_EPFvRK8JobFenceES1_j16GfxPrimitiveTypeP21DynamicVBOChunkHandle
3191:__ZN9GfxDevice19PutGeometryJobFenceE13UniqueSmallID
3192:__ZN9GfxDevice19EndGeometryJobFrameEv
3193:__ZN9GfxDevice16EndAsyncJobFrameEv
3194:__ZN9GfxDevice20BeginDynamicBatchingE17ShaderChannelMaskS0_jP17VertexDeclarationjj16GfxPrimitiveType
3195:__ZN9GfxDevice16DynamicBatchMeshERK10Matrix4x4fRK16VertexBufferDatajjPKtj25GfxTransformVerticesFlagsj
3196:__ZN9GfxDevice18EndDynamicBatchingE13TransformType
3197:__ZN9GfxDevice14AddSetPassStatEv
3198:__ZN9GfxDevice21ReleaseSharedMeshDataEP14SharedMeshData
3199:__ZN9GfxDevice24ReleaseSharedTextureDataEP17SharedTextureData
3200:__ZN9GfxDevice25ReleaseAsyncCommandHeaderEPN21GfxDeviceAsyncCommand3ArgE
3201:__ZN13GfxDeviceGLES23CreateGPUSkinPoseBufferEv
3202:__ZN13GfxDeviceGLES23DeleteGPUSkinPoseBufferEP17GPUSkinPoseBuffer
3203:__ZN13GfxDeviceGLES20UpdateSkinPoseBufferEP17GPUSkinPoseBufferP12SkinMeshInfo
3204:__ZN13GfxDeviceGLES9SkinOnGPUERK18VertexStreamSourceP9GfxBufferP17GPUSkinPoseBufferS4_ii17ShaderChannelMaskb
3205:__ZN9GfxDevice24CreateRenderColorSurfaceE9TextureIDiiii16TextureDimension19RenderTextureFormat18SurfaceCreateFlags
3206:__ZN9GfxDevice24CreateRenderDepthSurfaceE9TextureIDiiii16TextureDimension17DepthBufferFormat18SurfaceCreateFlags
3207:__ZN9GfxDevice20DestroyRenderSurfaceER12ObjectHandleI17RenderSurface_TagP17RenderSurfaceBaseE
3208:__ZN13GfxDeviceGLES19ResolveColorSurfaceE12ObjectHandleI17RenderSurface_TagP17RenderSurfaceBaseES4_
3209:__ZN13GfxDeviceGLES23ResolveDepthIntoTextureE12ObjectHandleI17RenderSurface_TagP17RenderSurfaceBaseES4_
3210:__ZN13GfxDeviceGLES15DiscardContentsER12ObjectHandleI17RenderSurface_TagP17RenderSurfaceBaseE
3211:__ZNK13GfxDeviceGLES27GetActiveRenderColorSurfaceEi
3212:__ZNK13GfxDeviceGLES27GetActiveRenderDepthSurfaceEv
3213:__ZNK13GfxDeviceGLES26GetActiveRenderTargetCountEv
3214:__ZNK9GfxDevice22GetActiveRenderTargetsERA8_12ObjectHandleI17RenderSurface_TagP17RenderSurfaceBaseERS4_
3215:__ZNK9GfxDevice27GetActiveRenderSurfaceWidthEv
3216:__ZNK9GfxDevice28GetActiveRenderSurfaceHeightEv
3217:__ZNK9GfxDevice23IsRenderingToBackBufferEv
3218:__ZN9GfxDevice25GetBackBufferColorSurfaceEv
3219:__ZN9GfxDevice25GetBackBufferDepthSurfaceEv
3220:__ZN13GfxDeviceGLES30SetBackBufferColorDepthSurfaceEP17RenderSurfaceBaseS1_
3221:__ZN13GfxDeviceGLES29RenderSurfaceStructMemorySizeEb
3222:__ZN9GfxDevice18AllocRenderSurfaceEb
3223:__ZN9GfxDevice20DeallocRenderSurfaceEP17RenderSurfaceBase
3224:__ZN13GfxDeviceGLES32CreateColorRenderSurfacePlatformEP17RenderSurfaceBase19RenderTextureFormat
3225:__ZN13GfxDeviceGLES32CreateDepthRenderSurfacePlatformEP17RenderSurfaceBase17DepthBufferFormat
3226:__ZN13GfxDeviceGLES28DestroyRenderSurfacePlatformEP17RenderSurfaceBase
3227:__ZN9GfxDevice21CopyRenderSurfaceDescEP17RenderSurfaceBasePKS0_
3228:__ZN13GfxDeviceGLES26AliasRenderSurfacePlatformEP17RenderSurfaceBase9TextureID
3229:__ZN9GfxDevice25IsRenderTargetConfigValidEjj19RenderTextureFormat17DepthBufferFormat
3230:__ZN9GfxDevice15CreateTextureIDEv
3231:__ZN13GfxDeviceGLES21RegisterNativeTextureE9TextureIDi16TextureDimension
3232:__ZN13GfxDeviceGLES23UnregisterNativeTextureE9TextureID
3233:__ZN13GfxDeviceGLES15UploadTexture2DE9TextureID16TextureDimensionPKhiii13TextureFormati18TextureUploadFlags16TextureUsageMode17TextureColorSpace
3234:__ZN13GfxDeviceGLES22UploadTextureSubData2DE9TextureIDPKhiiiiii13TextureFormat17TextureColorSpace
3235:__ZN13GfxDeviceGLES17UploadTextureCubeE9TextureIDPKhiii13TextureFormati18TextureUploadFlags17TextureColorSpace
3236:__ZN13GfxDeviceGLES15UploadTexture3DE9TextureIDPKhiiii13TextureFormati18TextureUploadFlags
3237:__ZN13GfxDeviceGLES13DeleteTextureE9TextureID
3238:__ZN13GfxDeviceGLES20UploadTexture2DArrayE9TextureIDPKhjiii13TextureFormati18TextureUploadFlags17TextureColorSpace
3239:__ZN13GfxDeviceGLES22UploadTextureCubeArrayE9TextureIDPKhjii13TextureFormati18TextureUploadFlags17TextureColorSpace
3240:__ZN13GfxDeviceGLES25GenerateRenderSurfaceMipsEP17RenderSurfaceBase
3241:__ZN13GfxDeviceGLES11CopyTextureE9TextureIDS0_
3242:__ZN13GfxDeviceGLES11CopyTextureE9TextureIDiiiS0_iii
3243:__ZN13GfxDeviceGLES11CopyTextureE9TextureIDiiiiiiiS0_iiiii
3244:__ZN13GfxDeviceGLES19CreateSparseTextureE9TextureIDii13TextureFormati17TextureColorSpace
3245:__ZN13GfxDeviceGLES23UploadSparseTextureTileE9TextureIDiiiPKhii
3246:__ZN13GfxDeviceGLES10BeginFrameEv
3247:__ZN13GfxDeviceGLES8EndFrameEv
3248:__ZN13GfxDeviceGLES12PresentFrameEv
3249:__ZN9GfxDevice12PresentFrameE17ShaderChannelMask
3250:__ZN9GfxDevice21SwapDynamicVBOBuffersEj
3251:__ZN13GfxDeviceGLES12IsValidStateEv
3252:__ZN13GfxDeviceGLES18HandleInvalidStateEv
3253:__ZN13GfxDeviceGLES5FlushEv
3254:__ZN13GfxDeviceGLES15FinishRenderingEv
3255:__ZN9GfxDevice15ImmediateVertexEfff
3256:__ZN9GfxDevice15ImmediateNormalEfff
3257:__ZN9GfxDevice14ImmediateColorEffff
3258:__ZN9GfxDevice20ImmediateTexCoordAllEfff
3259:__ZN9GfxDevice17ImmediateTexCoordEifff
3260:__ZN9GfxDevice14ImmediateBeginE16GfxPrimitiveType17ShaderChannelMask
3261:__ZN9GfxDevice12ImmediateEndEv
3262:__ZN13GfxDeviceGLES17CaptureScreenshotEiiiiPh
3263:__ZN13GfxDeviceGLES13ReadbackImageER14ImageReferenceiiiiii
3264:__ZN13GfxDeviceGLES21GrabIntoRenderTextureE12ObjectHandleI17RenderSurface_TagP17RenderSurfaceBaseES4_iiii
3265:__ZN13GfxDeviceGLES14BeforeDrawCallEv
3266:__ZN13GfxDeviceGLES16SetActiveContextEPv
3267:__ZN9GfxDevice15ResetFrameStatsEv
3268:__ZN9GfxDevice15BeginFrameStatsEv
3269:__ZN9GfxDevice13EndFrameStatsEv
3270:__ZN9GfxDevice13SaveDrawStatsEv
3271:__ZN9GfxDevice16RestoreDrawStatsEv
3272:__ZN9GfxDevice18SetGlobalDepthBiasEff
3273:__ZNK9GfxDevice18GetGlobalDepthBiasERfS0_
3274:__ZN13GfxDeviceGLES14SetTextureNameE9TextureIDPKc
3275:__ZN13GfxDeviceGLES20SetRenderSurfaceNameEP17RenderSurfaceBasePKc
3276:__ZN13GfxDeviceGLES13SetBufferNameEP9GfxBufferPKc
3277:__ZN13GfxDeviceGLES17SetGpuProgramNameEP10GpuProgramPKc
3278:__ZN9GfxDevice18SetNextComputeInfoEiRKN9ShaderLab16FastPropertyNameEiii
3279:__ZNK13GfxDeviceGLES18GetDefaultRTFormatEv
3280:__ZNK13GfxDeviceGLES21GetDefaultHDRRTFormatEv
3281:__ZN13GfxDeviceGLES23GetNativeTexturePointerE9TextureID
3282:__ZN13GfxDeviceGLES28GetNativeVertexBufferPointerEP9GfxBuffer
3283:__ZN13GfxDeviceGLES29GetNativeComputeBufferPointerE15ComputeBufferID
3284:__ZN9GfxDevice29GetNativeRenderSurfacePointerEP17RenderSurfaceBase
3285:__ZN9GfxDevice18InsertCustomMarkerEi
3286:__ZN9GfxDevice26InsertCustomMarkerCallbackEPFviEi
3287:__ZN9GfxDevice21CreateComputeBufferIDEv
3288:__ZN13GfxDeviceGLES20SetComputeBufferDataE15ComputeBufferIDPKvj
3289:__ZN13GfxDeviceGLES20GetComputeBufferDataE15ComputeBufferIDPvj
3290:__ZN13GfxDeviceGLES28SetComputeBufferCounterValueE15ComputeBufferIDj
3291:__ZN13GfxDeviceGLES22CopyComputeBufferCountE15ComputeBufferIDS0_j
3292:__ZN13GfxDeviceGLES27SetRandomWriteTargetTextureEi9TextureID
3293:__ZN13GfxDeviceGLES26SetRandomWriteTargetBufferEi15ComputeBufferID
3294:__ZN13GfxDeviceGLES23ClearRandomWriteTargetsEv
3295:__ZNK13GfxDeviceGLES26HasActiveRandomWriteTargetEv
3296:__ZN13GfxDeviceGLES20CreateComputeProgramEPKhj
3297:__ZN13GfxDeviceGLES21DestroyComputeProgramER12ObjectHandleI18ComputeProgram_TagPvE
3298:__ZN13GfxDeviceGLES30ResolveComputeProgramResourcesE12ObjectHandleI18ComputeProgram_TagPvER19ComputeShaderKernelRNSt3__26vectorI15ComputeShaderCBNS6_9allocatorIS8_EEEERNS7_I18ComputeShaderParamNS9_ISD_EEEEb
3299:__ZN13GfxDeviceGLES28CreateComputeConstantBuffersEjPKjP12ObjectHandleI18ConstantBuffer_TagPvE
3300:__ZN13GfxDeviceGLES29DestroyComputeConstantBuffersEjP12ObjectHandleI18ConstantBuffer_TagPvE
3301:__ZN13GfxDeviceGLES19CreateComputeBufferE15ComputeBufferIDjj18ComputeBufferFlags
3302:__ZN13GfxDeviceGLES20DestroyComputeBufferE15ComputeBufferID
3303:__ZN13GfxDeviceGLES17SetComputeUniformE12ObjectHandleI18ComputeProgram_TagPvER18ComputeShaderParamjPKv
3304:__ZN13GfxDeviceGLES28UpdateComputeConstantBuffersEjP12ObjectHandleI18ConstantBuffer_TagPvEjjPKhPKjS8_PKi
3305:__ZN13GfxDeviceGLES22UpdateComputeResourcesEjPK9TextureIDPK16TextureDimensionPKijPKjjPK15ComputeBufferIDS7_PK20ComputeBufferCounterjSC_S2_S5_S9_SF_
3306:__ZN13GfxDeviceGLES22DispatchComputeProgramE12ObjectHandleI18ComputeProgram_TagPvEjjj
3307:__ZN13GfxDeviceGLES22DispatchComputeProgramE12ObjectHandleI18ComputeProgram_TagPvE15ComputeBufferIDj
3308:__ZN13GfxDeviceGLES16DrawNullGeometryE16GfxPrimitiveTypeii
3309:__ZN13GfxDeviceGLES24DrawNullGeometryIndirectE16GfxPrimitiveType15ComputeBufferIDj
3310:__ZN13GfxDeviceGLES23DrawIndexedNullGeometryE16GfxPrimitiveTypeP9GfxBufferiii
3311:__ZN13GfxDeviceGLES31DrawIndexedNullGeometryIndirectE16GfxPrimitiveTypeP9GfxBuffer15ComputeBufferIDj
3312:__ZN13GfxDeviceGLES15SetStereoTargetE15StereoscopicEye
3313:__ZN9GfxDevice23SetStereoScaleAndOffsetERK8Vector2fS2_
3314:__ZN9GfxDevice17SendVRDeviceEventEjj
3315:__ZN9GfxDevice19AsyncResourceUploadEii9TextureID
3316:__ZN9GfxDevice23SyncAsyncResourceUploadE9TextureID10AsyncFencei
3317:__ZNK9GfxDevice16StoreContextDataEP14GfxContextData
3318:__ZN9GfxDevice16ApplyContextDataEP14GfxContextData
3319:__ZN9GfxDevice19CopyContextDataFromEPKS_
3320:__ZN9GfxDevice12ExecuteAsyncEiPFvPN21GfxDeviceAsyncCommand10ArgScratchEPKNS0_3ArgEEPS2_S5_RK8JobFence
3321:__ZN9GfxDevice26UpdateRenderSurfaceWrapperER12ObjectHandleI17RenderSurface_TagP17RenderSurfaceBaseES3_17DepthBufferFormat
3322:__ZN9GfxDevice27CleanupRenderSurfaceWrapperER12ObjectHandleI17RenderSurface_TagP17RenderSurfaceBaseE
3323:__ZN13GfxDeviceGLES16CreateDynamicVBOEv
3324:__ZN13GfxDeviceGLES20SetRenderTargetsImplERK20GfxRenderTargetSetup
3325:__ZN13GfxDeviceGLES20SetShadersThreadableEPP10GpuProgramPPK20GpuProgramParametersPKPKh
3326:__ZN13GfxDeviceGLES4InitE16GfxDeviceLevelGL
3327:__ZN13GfxDeviceGLES15ReloadResourcesEv
3328:__Z20GetBufferManagerGLESv
3329:__ZN17BufferManagerGLES13InvalidateAllEv
3330:__ZN25TransformFeedbackSkinning31CleanupTransformFeedbackShadersEv
3331:__ZN9GfxDevice16DeleteDynamicVBOEv
3332:__ZN9GfxDevice21CommonReloadResourcesEj
3333:__ZN14GfxContextGLES10InvalidateER7ApiGLES
3334:__ZN18GfxFramebufferGLES10InvalidateEv
3335:__ZN7ApiGLES15BindVertexArrayEN2gl6HandleILNS0_10ObjectTypeE3EEE
3336:__ZNSt3__26__treeINS_12__value_typeI21GLESRenderTargetSetupN2gl6HandleILNS3_10ObjectTypeE9EEEEENS_19__map_value_compareIS2_S7_NS_4lessIS2_EELb1EEENS_9allocatorIS7_EEE7destroyEPNS_11__tree_nodeIS7_PvEE
3337:__ZN18GfxFramebufferGLES22EnsureDefaultFBOInitedEv
3338:__ZN4gles27UninitializeBlitFramebufferERNS_23BlitFramebufferDrawQuadE
3339:__ZN7ApiGLES13DeleteProgramERj
3340:__ZN7ApiGLES12DeleteBufferERj
3341:__ZNSt3__23mapI21GLESRenderTargetSetupN2gl6HandleILNS2_10ObjectTypeE9EEENS_4lessIS1_EENS_9allocatorINS_4pairIKS1_S5_EEEEEixERSA_
3342:__ZNK21GLESRenderTargetSetupltERKS_
3343:__ZN7Texture9ReloadAllEbbb
3344:__ZN13RenderTexture10ReleaseAllEv
3345:__ZN7ApiGLES12DeleteShaderERj
3346:__ZNSt3__26__treeINS_12__value_typeIjP14DataBufferGLESEENS_19__map_value_compareIjS4_NS_4lessIjEELb1EEENS_9allocatorIS4_EEE7destroyEPNS_11__tree_nodeIS4_PvEE
3347:__ZN11ContextGLES6CreateEi
3348:__ZN7ApiGLES4InitERK14GfxContextGLESR16GfxDeviceLevelGL
3349:__ZNK9DebugGLES3LogEPKc
3350:__Z23GetGfxDeviceLevelString16GfxDeviceLevelGL
3351:__ZNK7ApiGLES10GetContextEv
3352:__ZN13GfxDeviceGLES15InitCommonStateER15DeviceStateGLES
3353:__Z24PluginsSetGraphicsDevicePvi18GfxDeviceEventType
3354:__ZN4gles16CreateDepthStateER15DeviceStateGLES13GfxDepthState
3355:__ZN4gles16CreateBlendStateER15DeviceStateGLESRK13GfxBlendState
3356:__ZN4gles24InvalidatePipelineStatesERK14GfxContextGLESR15DeviceStateGLES
3357:__ZN7ApiGLES10InvalidateERK14GfxContextGLES
3358:__ZN4gles18CreateStencilStateER15DeviceStateGLESRK15GfxStencilState
3359:__ZN4gles17CreateRasterStateER15DeviceStateGLESRK14GfxRasterState
3360:__ZN22DeviceStencilStateGLESC2ERK15GfxStencilState
3361:__ZNK13TranslateGLES4FuncE15CompareFunction
3362:__ZNK13TranslateGLES16StencilOperationE9StencilOp
3363:__ZN2gl17GetCurrentContextEv
3364:__ZNK13TranslateGLES6EnableEN2gl10EnabledCapE
3365:__ZNK14GfxContextGLES13GetDefaultFBOEv
3366:__ZNK14GfxContextGLES21GetDefaultVertexArrayEv
3367:__ZN7ApiGLES13IsVertexArrayEN2gl6HandleILNS0_10ObjectTypeE3EEE
3368:__ZN7ApiGLES17CreateVertexArrayEv
3369:__ZN2gl22WebGLGetCurrentContextEv
3370:__ZN20DeviceBlendStateGLESC2ERK13GfxBlendState
3371:__ZNK13TranslateGLES11BlendFactorE9BlendMode
3372:__ZNK13TranslateGLES13BlendEquationE7BlendOp
3373:__ZN7ApiGLES4LoadE16GfxDeviceLevelGL
3374:__ZN4gles8InitCapsEP7ApiGLESP12GraphicsCapsR16GfxDeviceLevelGL
3375:__ZN13TranslateGLES4InitERK12GraphicsCaps16GfxDeviceLevelGL
3376:__ZN12_GLOBAL__N_137BuggyBindElementArrayBufferWorkaround17BindBufferWrapperEjj
3377:__ZN4gles30InitRenderTextureFormatSupportEP7ApiGLESP12GraphicsCaps
3378:__ZNK7ApiGLES14QueryExtensionEPKc
3379:__ZN12_GLOBAL__N_123CheckRTFormatRenderableEP7ApiGLESRK12GraphicsCaps19RenderTextureFormat
3380:__ZNK13TranslateGLES9GetFormatE19RenderTextureFormat17TextureColorSpace
3381:__ZN7ApiGLES13CreateTextureEjN2gl9TexFormatEiiiii
3382:__ZN7ApiGLES17CreateFramebufferEv
3383:__ZN7ApiGLES15BindFramebufferEN2gl17FramebufferTargetENS0_6HandleILNS0_10ObjectTypeE9EEE
3384:__ZN7ApiGLES16CheckFramebufferEN2gl6HandleILNS0_10ObjectTypeE9EEEb
3385:__ZN7ApiGLES11BindTextureEjj
3386:__ZN7ApiGLES17DeleteFramebufferERN2gl6HandleILNS0_10ObjectTypeE9EEES3_
3387:__ZN13TranslateGLES10InitFormatERK12GraphicsCaps
3388:__ZNSt3__26vectorINS_4pairIj16TextureDimensionEENS_9allocatorIS3_EEE6insertENS_11__wrap_iterIPKS3_EERS8_
3389:__ZNK7ApiGLES15GetDriverStringEN2gl11DriverQueryE
3390:__Z5SplitRKN4core12basic_stringIcNS_20StringStorageDefaultIcEEEEcRNSt3__26vectorIS3_NS6_9allocatorIS3_EEEEi
3391:__ZNK7ApiGLES3GetEj
3392:__ZNK7ApiGLES18GetExtensionStringEv
3393:__Z19DebugTextLineByLinePKci
3394:__ZNK7ApiGLES18GetFramebufferInfoEv
3395:__ZN4gles14GetProcAddressEPKc
3396:__ZN14GfxContextGLESC2Ev
3397:__ZN18GlslGpuProgramGLES19ApplyGpuProgramGLESERK20GpuProgramParametersPKh
3398:__ZN19ConstantBuffersGLES6BindCBENS_8BufferIDEii
3399:__ZN4gles14UseGLSLProgramER15DeviceStateGLESjbij
3400:__ZN19ConstantBuffersGLES10ResetBindsEv
3401:__ZNK20GpuProgramParameters14GetValueParamsEv
3402:__ZN10GpuProgram20ApplyValueParametersI21GLESGpuProgramApplierEEPKhRT_RK13dynamic_arrayIN20GpuProgramParameters14ValueParameterELj4EES3_
3403:__ZN10GpuProgram22ApplyTextureParametersEPKhR9GfxDevice10ShaderType
3404:__ZN13GfxDeviceGLES16SetComputeBufferE15ComputeBufferIDi20ComputeBufferCounterbb
3405:__Z29TextureIdMapGLES_QueryOrAlloc9TextureID
3406:__ZN7ApiGLES10GenTextureEj
3407:__ZN7ApiGLES19CreateBufferTextureEjN2gl9TexFormatEj
3408:__ZNK13TranslateGLES17MemoryBarrierBitsEN2gl17MemoryBarrierTypeE
3409:__ZN4gles10SetTextureER15DeviceStateGLESjjj19BuiltinSamplerState
3410:__ZN13GfxDeviceGLES15SetImageTextureE9TextureIDi
3411:__ZN7ApiGLES23BindShaderStorageBufferEjj
3412:__ZN14DataBufferGLES12RecordRenderEv
3413:__ZN14DataBufferGLES12RecordUpdateEv
3414:__ZN17BufferManagerGLES13AcquireBufferEjN14DataBufferGLES11BufferUsageEb
3415:__ZN14DataBufferGLES11CopySubDataEPKS_jjj
3416:__ZN7ApiGLES23BindAtomicCounterBufferEjj
3417:__ZN14DataBufferGLES16RecreateWithDataEjPKv
3418:__ZN7ApiGLES17CopyBufferSubDataEjjlll
3419:__ZNK13TranslateGLES15GetBufferTargetEN2gl12BufferTargetE
3420:__ZN7ApiGLES12CreateBufferEN2gl12BufferTargetElPKvj
3421:__ZN7ApiGLES14RecreateBufferEjN2gl12BufferTargetElPKvj
3422:__ZN7ApiGLES18ClearBufferSubDataEjN2gl12BufferTargetEll
3423:__ZN14DataBufferGLESC2ER17BufferManagerGLESjNS_11BufferUsageEb
3424:__ZN7ApiGLES9MapBufferEjN2gl12BufferTargetEllj
3425:__ZN7ApiGLES11UnmapBufferEjN2gl12BufferTargetE
3426:__ZN7ApiGLES17ActiveTextureUnitEj
3427:__ZN7ApiGLES13CreateSamplerE17TextureFilterMode15TextureWrapModei
3428:__ZN7ApiGLES11BindSamplerEij
3429:__ZNK13TranslateGLES4WrapE15TextureWrapMode
3430:__ZNK13TranslateGLES9FilterMagE17TextureFilterMode
3431:__ZNK13TranslateGLES9FilterMinE17TextureFilterModeb
3432:__ZN12TextureIdMap13UpdateTextureE9TextureIDi
3433:__ZN15dense_hashtableINSt3__24pairIK9TextureIDiEES2_N12TextureIdMap20TextureIDHashFunctorEN14dense_hash_mapIS2_iS6_NS0_8equal_toIS2_EE13stl_allocatorIS4_L18MemLabelIdentifier65ELi16EEE9SelectKeyES9_SC_E12resize_deltaEjj
3434:__ZN15dense_hashtableINSt3__24pairIK9TextureIDiEES2_N12TextureIdMap20TextureIDHashFunctorEN14dense_hash_mapIS2_iS6_NS0_8equal_toIS2_EE13stl_allocatorIS4_L18MemLabelIdentifier65ELi16EEE9SelectKeyES9_SC_E12maybe_shrinkEv
3435:__ZN21GLESGpuProgramApplier10ApplyFloatERKN20GpuProgramParameters14ValueParameterEPKft
3436:__ZN21GLESGpuProgramApplier11ApplyVectorERKN20GpuProgramParameters14ValueParameterEPK8Vector4ft
3437:__ZN21GLESGpuProgramApplier11ApplyMatrixERKN20GpuProgramParameters14ValueParameterEPK10Matrix4x4ft
3438:__ZN19ConstantBuffersGLES13SetCBConstantEiiPKvi
3439:__ZN10Matrix3x3faSERK10Matrix4x4f
3440:__ZN7ApiGLES11BindProgramEjb
3441:__ZN7ApiGLES16SetPatchVerticesEi
3442:__ZN7ApiGLES16EnableClipPlanesEj
3443:__ZN14GfxContextGLES14GetFramebufferEv
3444:__ZN18GfxFramebufferGLES8ActivateERK20GfxRenderTargetSetup
3445:__ZN18GfxFramebufferGLES7PrepareEv
3446:__ZN7ApiGLES6EnableEN2gl10EnabledCapE
3447:__ZN7ApiGLES7DisableEN2gl10EnabledCapE
3448:__ZN18GfxFramebufferGLES22MakeCurrentFramebufferENS_7BuiltinE
3449:__ZN13GfxDeviceGLES21ProcessPendingMipGensEv
3450:__ZN13GfxDeviceGLES16AddPendingMipGenEP17RenderSurfaceBase
3451:__ZN18GfxFramebufferGLES21InvalidateAttachmentsEPKbb
3452:__ZN4gles23ClearCurrentFramebufferEP7ApiGLESbbbRK10ColorRGBAffi
3453:__ZN12_GLOBAL__N_113SetBlendStateER7ApiGLESR15DeviceStateGLESPK20DeviceBlendStateGLESi
3454:__ZN7ApiGLES5ClearEjRK10ColorRGBAfbfi
3455:__ZN7ApiGLES14GenerateMipmapEjj
3456:__ZN7ApiGLES26BindFramebufferDrawBuffersEN2gl6HandleILNS0_10ObjectTypeE9EEEiPKj
3457:__ZN4gles14IsDummySurfaceEP17RenderSurfaceBase
3458:__ZN18GfxFramebufferGLES18GetFramebufferNameERK20GfxRenderTargetSetup
3459:__ZNK7ApiGLES21GetFramebufferBindingEN2gl17FramebufferTargetE
3460:__ZN12_GLOBAL__N_119AttachToFramebufferER7ApiGLESRK20GfxRenderTargetSetupP17RenderSurfaceGLESjP11GLESTexturejb
3461:__ZN2gl20IsFormatDepthStencilENS_9TexFormatE
3462:__ZNK7ApiGLES13GetDebugLabelEN2gl10ObjectTypeEjiPiPc
3463:__ZNK7ApiGLES10DebugLabelEN2gl10ObjectTypeEjiPKc
3464:__ZNK13TranslateGLES10ObjectTypeEN2gl10ObjectTypeE
3465:__ZN17GenericDynamicVBOC2ER9GfxDevice13GfxBufferModejj
3466:__ZN17GenericDynamicVBOD2Ev
3467:__ZN17GenericDynamicVBOD0Ev
3468:__ZN10DynamicVBO8GetChunkEjjj16GfxPrimitiveTypeP21DynamicVBOChunkHandle
3469:__ZN10DynamicVBO12ReleaseChunkER21DynamicVBOChunkHandlejj
3470:__ZN10DynamicVBO9DrawChunkERK21DynamicVBOChunkHandle17ShaderChannelMaskS3_P17VertexDeclarationPKNS_10DrawParamsEi
3471:__ZN17GenericDynamicVBO11SwapBuffersEj
3472:__ZN17GenericDynamicVBO13HandleToChunkERK21DynamicVBOChunkHandleb
3473:__ZN17GenericDynamicVBO10AllocateVBEjR21DynamicVBOChunkHandle
3474:__ZN17GenericDynamicVBO10AllocateIBEjR21DynamicVBOChunkHandle
3475:__ZN17GenericDynamicVBO17DrawChunkInternalERK21DynamicVBOChunkHandle17ShaderChannelMaskS3_P17VertexDeclarationP16DrawBuffersRangeij
3476:__ZN17GenericDynamicVBO20ReleaseChunkInternalERK21DynamicVBOChunkHandlejj
3477:__Z30AddDefaultStreamsToMeshBuffersR9GfxDeviceR11MeshBuffersj17ShaderChannelMaskS3_
3478:__ZN9GfxDevice22GetDefaultVertexBufferE26GfxDefaultVertexBufferTypej
3479:__ZN17GenericDynamicVBO12EnsureBufferEjj15GfxBufferTargetR13dynamic_arrayIP9GfxBufferLj4EE
3480:__ZN16GeometryJobTasks29PutDynamicVBOGeometryJobFenceER9GfxDevice
3481:__ZNK10DynamicVBO13IsHandleValidERK21DynamicVBOChunkHandle
3482:__ZN10DynamicVBO19FillQuadIndexBufferER21DynamicVBOChunkHandle
3483:__ZN10DynamicVBOD2Ev
3484:__ZN10DynamicVBOD0Ev
3485:__ZN10DynamicVBO11SwapBuffersEj
3486:__ZN18AsyncUploadManager19AsyncResourceUploadER9GfxDeviceii9TextureID
3487:__ZN18AsyncUploadManager23HandleAsyncReadCommandsEv
3488:__ZN15TextureSettings38ClearUnsupportedSettingsForColorFormatE13TextureFormat
3489:__ZN7Texture21GetMasterTextureLimitEv
3490:__Z19UploadTexture2DDataRK23UploadTextureDataParams
3491:__ZNK15TextureSettings5ApplyER9GfxDevice9TextureID16TextureDimensionb17TextureColorSpace18ShadowSamplingModeb
3492:__Z16DecompressCrunchPKhRjR13TextureFormatiiii18MemLabelIdentifier
3493:__ZN18AsyncUploadManager35ManageTextureUploadRingBufferMemoryEi
3494:__ZN18AsyncUploadManager18ScheduleAsyncReadsEv
3495:__ZN18AsyncUploadManager17ScheduleAsyncReadEP10AtomicNodeP16AsyncReadCommand
3496:__Z19GetBytesForOnePixel13TextureFormat
3497:__ZN4crnd17crnd_unpack_beginEPKvj
3498:__ZN4crnd21crnd_get_texture_infoEPKvjPNS_16crn_texture_infoE
3499:__Z24CalculateImageMipMapSizeii13TextureFormat
3500:__ZN4crnd17crnd_unpack_levelEPvPS0_jjj
3501:__Z18CalculateImageSizeii13TextureFormat
3502:__ZN4crnd12crn_unpackerD2Ev
3503:__ZN4crndL20crnd_default_reallocEPvjPjbS0_
3504:__ZN4crnd11crnd_deleteINS_13prefix_coding14decoder_tablesEEEvPT_
3505:__Z29GetRowBytesFromWidthAndFormati13TextureFormat
3506:__ZN4crnd12crn_unpacker12unpack_levelEPKvjPPvjjj
3507:__ZN4crnd12crn_unpacker11unpack_dxt5EPPhjjjjjj
3508:__ZN4crnd12crn_unpacker12unpack_dxt5aEPPhjjjjjj
3509:__ZN4crnd12crn_unpacker10unpack_dxnEPPhjjjjjj
3510:__ZN4crnd12crn_unpacker11unpack_dxt1EPPhjjjjjj
3511:__ZN4crnd12symbol_codec6decodeERKNS_25static_huffman_data_modelE
3512:__ZN4crnd12crn_unpacker11init_tablesEv
3513:__ZN4crnd12crn_unpacker22decode_color_endpointsEv
3514:__ZN4crnd12crn_unpacker22decode_color_selectorsEv
3515:__ZN4crnd12crn_unpacker22decode_alpha_endpointsEv
3516:__ZN4crnd12crn_unpacker22decode_alpha_selectorsEv
3517:__ZN4crnd12symbol_codec32decode_receive_static_data_modelERNS_25static_huffman_data_modelE
3518:__ZN4crnd16elemental_vector17increase_capacityEjbjPFvPvS1_jE
3519:__ZN4crnd11crnd_mallocEjPj
3520:__ZN4crnd12symbol_codec11decode_bitsEj
3521:__ZN4crnd25static_huffman_data_model22prepare_decoder_tablesEv
3522:__ZN4crnd13prefix_coding14decoder_tables4initEjPKhj
3523:__Z29SkipMipLevelsForTextureUploadi13TextureFormatiPPKhPiS3_S3_
3524:__ZN18AsyncUploadManager17DoScaledPaddedJobEP28FileTextureUploadInstruction
3525:__Z19ScheduleJobInternalR8JobFencePFvPvES1_11JobPriority
3526:__ZN9TextureOpI11TextureDataE15ExtractMipLevelEPS0_S2_iibb
3527:__ZN18AsyncUploadManager15DoDeCruncherJobEP28FileTextureUploadInstruction
3528:__Z21CalculateMipMapOffsetii13TextureFormati
3529:__Z21SourceMipLevelForBlitiiii
3530:__Z23BlitCopyCompressedImage13TextureFormatPKhiiPhiib
3531:__ZN11TextureData17GetImageReferenceEii
3532:__ZN9TextureOpI11TextureDataE12ExtractImageEPS0_P14ImageReferenceNS3_8BlitModeEbi
3533:__ZN17SharedTextureData32GetCrunchDecompressedTextureDataI11TextureDataEEbRKT_
3534:__ZN9TextureOpI17SharedTextureDataE12ExtractImageEPS0_P14ImageReferenceNS3_8BlitModeEbi
3535:__ZN5Image8SetImageERK14ImageReferenceb
3536:__Z41DecompressNativeTextureFormatWithMipLevel13TextureFormatS_iiiPKjiiPj
3537:__ZNK14ImageReference9ClipImageEiiii
3538:__Z14PadImageBorderR14ImageReferenceii
3539:__Z29DecompressNativeTextureFormat13TextureFormatS_iiPKjiiPj
3540:__Z19GetColorBlockColorsPK11DXTColBlockP9Color8888
3541:__Z16DecodeColorBlockPjRK11DXTColBlockiPKj
3542:__Z14DecompressDXT3iiiPKjPj
3543:__Z21DecodeAlpha3BitLinearPjRK23DXTAlphaBlock3BitLineariji
3544:__Z14DecompressBC6HiiiPKjPj13TextureFormat
3545:__Z13DecompressBC7iiiPKjPj
3546:__Z14DecodeBC7BlockP9HDRColorAPKh
3547:__Z15DecodeBC6HBlockP9HDRColorAPKh
3548:__ZN5Image8SetImageEii13TextureFormatb
3549:__ZN17SharedTextureDataD2Ev
3550:__ZN17SharedTextureDataD0Ev
3551:__ZN17SharedTextureData32GetCrunchDecompressedTextureDataIS_EEbRKT_
3552:__ZN17SharedTextureDataC2E18MemLabelIdentifier
3553:__ZN7ApiGLES22BindElementArrayBufferEj
3554:__ZN7ApiGLES20DrawElementsIndirectE16GfxPrimitiveTypejj
3555:__ZNK13TranslateGLES8TopologyE16GfxPrimitiveType
3556:__ZN7ApiGLES12DrawElementsE16GfxPrimitiveTypePKvjjj
3557:__ZN7ApiGLES18DrawArraysIndirectE16GfxPrimitiveTypejj
3558:__ZN7ApiGLES10DrawArraysE16GfxPrimitiveTypejjj
3559:__ZN7ApiGLES16DispatchIndirectEjj
3560:__ZN7ApiGLES8DispatchEjjj
3561:__Z27BufferUpdateCausesStallGLESPK14DataBufferGLES
3562:__ZN14DataBufferGLES7ReleaseEv
3563:__ZN14DataBufferGLES6UploadEjjPKv
3564:__ZN7ApiGLES17BindUniformBufferEjj
3565:__ZN7ApiGLES19UploadBufferSubDataEjN2gl12BufferTargetEllPKv
3566:__ZN17BufferManagerGLES13ReleaseBufferEP14DataBufferGLES
3567:__ZL18ProgramUniform1uivPK7ApiGLESjiihPKv
3568:__ZL18ProgramUniform2uivPK7ApiGLESjiihPKv
3569:__ZL18ProgramUniform3uivPK7ApiGLESjiihPKv
3570:__ZL18ProgramUniform4uivPK7ApiGLESjiihPKv
3571:__ZL17ProgramUniform1ivPK7ApiGLESjiihPKv
3572:__ZL17ProgramUniform2ivPK7ApiGLESjiihPKv
3573:__ZL17ProgramUniform3ivPK7ApiGLESjiihPKv
3574:__ZL17ProgramUniform4ivPK7ApiGLESjiihPKv
3575:__ZL17ProgramUniform1fvPK7ApiGLESjiihPKv
3576:__ZL17ProgramUniform2fvPK7ApiGLESjiihPKv
3577:__ZL17ProgramUniform3fvPK7ApiGLESjiihPKv
3578:__ZL17ProgramUniform4fvPK7ApiGLESjiihPKv
3579:__ZL23ProgramUniformMatrix2fvPK7ApiGLESjiihPKv
3580:__ZL25ProgramUniformMatrix2x3fvPK7ApiGLESjiihPKv
3581:__ZL25ProgramUniformMatrix2x4fvPK7ApiGLESjiihPKv
3582:__ZL25ProgramUniformMatrix3x2fvPK7ApiGLESjiihPKv
3583:__ZL23ProgramUniformMatrix3fvPK7ApiGLESjiihPKv
3584:__ZL25ProgramUniformMatrix3x4fvPK7ApiGLESjiihPKv
3585:__ZL25ProgramUniformMatrix4x2fvPK7ApiGLESjiihPKv
3586:__ZL25ProgramUniformMatrix4x3fvPK7ApiGLESjiihPKv
3587:__ZL23ProgramUniformMatrix4fvPK7ApiGLESjiihPKv
3588:__Z18FillParamsBaseGLESjR20GpuProgramParametersP16PropertyNamesSet
3589:__ZNSt3__26vectorI18ComputeShaderParamNS_9allocatorIS1_EEE21__push_back_slow_pathIKS1_EEvRT_
3590:__Z15FindOrAddByNameI15ComputeShaderCBERT_RNSt3__26vectorIS1_NS3_9allocatorIS1_EEEERKS1_
3591:__ZNSt3__26vectorI15ComputeShaderCBNS_9allocatorIS1_EEE21__push_back_slow_pathIKS1_EEvRT_
3592:__ZNSt3__26vectorIN20GpuProgramParameters14ConstantBufferENS_9allocatorIS2_EEE7reserveEj
3593:__ZNSt3__26vectorIN20GpuProgramParameters14ConstantBufferENS_9allocatorIS2_EEE21__push_back_slow_pathIKS2_EEvRT_
3594:__ZN4glsl22IsShaderParameterArrayEPKciiPb
3595:__ZN20GpuProgramParameters14AddVectorParamEPKcii15ShaderParamTypeiiP16PropertyNamesSet
3596:__ZN20GpuProgramParameters23AddMatrixParamWithFlagsEPKcii15ShaderParamTypeiiihP16PropertyNamesSet
3597:__ZNK13TranslateGLES26GetTextureSamplerDimensionEj
3598:__ZN20GpuProgramParameters14AddBufferParamEPKciP16PropertyNamesSetii
3599:__ZN20GpuProgramParameters15AddTextureParamEPKcii16TextureDimensionP16PropertyNamesSet
3600:__ZN20GpuProgramParameters21UpdateParamBufferSizeEv
3601:__ZNSt3__26__sortIR25ValueParameterArraySorterPN20GpuProgramParameters14ValueParameterEEEvT0_S6_T_
3602:__ZNSt3__27__sort3IR25ValueParameterArraySorterPN20GpuProgramParameters14ValueParameterEEEjT0_S6_S6_T_
3603:__ZNSt3__27__sort4IR25ValueParameterArraySorterPN20GpuProgramParameters14ValueParameterEEEjT0_S6_S6_S6_T_
3604:__ZNSt3__27__sort5IR25ValueParameterArraySorterPN20GpuProgramParameters14ValueParameterEEEjT0_S6_S6_S6_S6_T_
3605:__ZNSt3__218__insertion_sort_3IR25ValueParameterArraySorterPN20GpuProgramParameters14ValueParameterEEEvT0_S6_T_
3606:__ZNSt3__227__insertion_sort_incompleteIR25ValueParameterArraySorterPN20GpuProgramParameters14ValueParameterEEEbT0_S6_T_
3607:__ZNSt3__26vectorIN20GpuProgramParameters16TextureParameterENS_9allocatorIS2_EEE21__push_back_slow_pathIKS2_EEvRT_
3608:__ZN7ApiGLES12CreateShaderEN2gl11ShaderStageEPKc
3609:__ZN7ApiGLES11CheckShaderERjb
3610:__ZN7ApiGLES20CreateComputeProgramEj
3611:__ZN7ApiGLES12CheckProgramERj
3612:__ZNK13TranslateGLES14GetShaderStageEN2gl11ShaderStageE
3613:__ZN14DataBufferGLES3MapEjjj
3614:__ZN14DataBufferGLES5UnmapEv
3615:__Z19PluginsRenderMarkeri
3616:__Z11IsGfxDevicev
3617:__ZN14GfxContextGLES11MakeCurrentER7ApiGLESN2gl13ContextHandleE
3618:__ZN4gles10InvalidateERK14GfxContextGLESR15DeviceStateGLES
3619:__ZN18GfxFramebufferGLES20ActiveContextChangedEPP17RenderSurfaceBaseS2_
3620:__ZN18GfxFramebufferGLES23SetupDefaultFramebufferEPP17RenderSurfaceBaseS2_N2gl6HandleILNS3_10ObjectTypeE9EEE
3621:__ZN18GfxFramebufferGLES32ProcessInvalidatedRenderSurfacesEv
3622:__ZN18GfxFramebufferGLES25CleanupFBOMapForTextureIDERK9TextureID
3623:__ZN18GfxFramebufferGLES20CleanupFBOMapForRBIDERKj
3624:__ZN7ApiGLES15ActivateContextEN2gl13ContextHandleE
3625:__ZN18GfxFramebufferGLESC2ER7ApiGLESPv
3626:__Z25InvertMatrix4x4_General3DPKfPf
3627:__ZN19ConstantBuffersGLES13UpdateBuffersEv
3628:__ZN18GfxFramebufferGLES21GrabIntoRenderTextureEP17RenderSurfaceGLESiiii
3629:__ZN2gl15IsFormatIEEE754ENS_9TexFormatE
3630:__ZN13GfxDeviceGLES22MemoryBarrierImmediateEyN2gl17MemoryBarrierTypeE
3631:__ZN18GfxFramebufferGLES19ReadbackResolveMSAAEP17RenderSurfaceGLESS1_
3632:__ZN12_GLOBAL__N_127PrepareReadback_ResolveMSAAER18GfxFramebufferGLESR7ApiGLESP17RenderSurfaceGLESS5_
3633:__ZN2gl15IsFormatIntegerENS_9TexFormatE
3634:__ZN18GfxFramebufferGLES37GetFramebufferNameFromColorAttachmentEP17RenderSurfaceBase
3635:__ZN18GfxFramebufferGLES8BlitQuadEv
3636:__ZN4gles15BlitFramebufferERNS_23BlitFramebufferDrawQuadER9GfxDeviceii9TextureIDiiiiiiii
3637:__ZN7ApiGLES15BlitFramebufferEN2gl6HandleILNS0_10ObjectTypeE9EEENS0_15FramebufferReadES3_S3_iiiiiiiiNS0_15FramebufferMaskE
3638:__ZN7ApiGLES12TextureImageEjjiN2gl9TexFormatEiiiiiPKv
3639:__ZN18GfxFramebufferGLES18ReleaseFramebufferEP17RenderSurfaceBaseP14GfxContextGLES
3640:__ZN14GfxContextGLES43AddRenderSurfaceToDeferredFBOInvalidateListEPK17RenderSurfaceGLES
3641:__ZN13GfxDeviceGLES19CancelPendingMipGenEP17RenderSurfaceBase
3642:__ZN4gles20DestroyRenderSurfaceEP7ApiGLESP17RenderSurfaceGLES
3643:__ZN7ApiGLES18DeleteRenderbufferERj
3644:__ZN18GfxFramebufferGLES43AddRenderSurfaceToDeferredFBOInvalidateListEPK17RenderSurfaceGLES
3645:__ZNK13TranslateGLES15FramebufferMaskEN2gl15FramebufferMaskE
3646:__ZNK13TranslateGLES15FramebufferReadEN2gl15FramebufferReadE
3647:__ZL19BlitFramebufferImplRN4gles23BlitFramebufferDrawQuadER9GfxDevice9TextureIDRK8Vector4f
3648:__ZN7ApiGLES23EnableVertexArrayAttribEjjN2gl21VertexArrayAttribKindEi19VertexChannelFormatiPKv
3649:__ZNK13TranslateGLES23VertexArrayKindBitfieldEN2gl21VertexArrayAttribKindE
3650:__ZNK13TranslateGLES23VertexArraySizeBitfieldEi
3651:__ZNK13TranslateGLES23VertexArrayTypeBitfieldE19VertexChannelFormat
3652:__ZNK13TranslateGLES10VertexTypeE19VertexChannelFormat
3653:__ZN4gles25InitializeBlitFramebufferERNS_23BlitFramebufferDrawQuadENS_24BlitFramebufferAlphaModeENS_35BlitFramebufferColorSpaceConversionE
3654:__ZN7ApiGLES21CreateGraphicsProgramEjjjjj
3655:__ZN7ApiGLES11LinkProgramEj
3656:__ZN4gles24CreateColorRenderSurfaceEP7ApiGLESP17RenderSurfaceGLESN2gl9TexFormatE
3657:__ZN4gles20EnsureTextureCreatedEP7ApiGLESP17RenderSurfaceGLES
3658:__ZN4gles21InitRenderSurfaceGLESEP7ApiGLESR17RenderSurfaceGLESN2gl17TextureSrgbDecodeE
3659:__ZN7ApiGLES14TextureSamplerEjj17TextureFilterMode15TextureWrapModeifb18ShadowSamplingModeN2gl17TextureSrgbDecodeE
3660:__ZN7ApiGLES18CreateRenderbufferEiN2gl9TexFormatEii
3661:__ZNK13TranslateGLES20GetTextureSRGBDecodeEN2gl17TextureSrgbDecodeE
3662:__ZN7ApiGLES15BlitFramebufferEN2gl6HandleILNS0_10ObjectTypeE9EEENS0_15FramebufferReadES3_iiNS0_15FramebufferMaskE
3663:__ZN18GfxFramebufferGLES21InvalidateAttachmentsEv
3664:__ZN18GfxFramebufferGLES13ReadbackImageER14ImageReferenceiiiiii
3665:__ZNK13TranslateGLES13GetFormatDescE13TextureFormat17TextureColorSpace
3666:__ZN13DrawImmediate11FlushBufferEv
3667:__ZN13DrawImmediate6VertexEfff
3668:__ZN7ApiGLES6SubmitEN2gl10SubmitModeE
3669:__ZN11ContextGLES18HandleInvalidStateEPb
3670:__ZN18GfxFramebufferGLES32UpdateDefaultFramebufferViewportEv
3671:__ZN11ContextGLES7PresentEv
3672:__ZN18GfxFramebufferGLES36TryInvalidateDefaultFramebufferDepthEv
3673:__ZN17BufferManagerGLES12AdvanceFrameEv
3674:__ZN17BufferManagerGLES24UpdateLiveSetFromPendingEv
3675:__ZN17BufferManagerGLES16PruneFreeBuffersEv
3676:__ZN18GfxFramebufferGLES8ActivateENS_7BuiltinEb
3677:__Z27UploadSparseTextureTileGLES9TextureIDiiiPKhii
3678:__ZN7ApiGLES24CommitSparseTexturePagesEjjiiiiiiih
3679:__ZN7ApiGLES15TextureSubImageEjjN2gl9TexFormatEiiiiiiiiPKv
3680:__ZNK13TranslateGLES9GetFormatE13TextureFormat17TextureColorSpace
3681:__Z23CreateSparseTextureGLES9TextureIDiiN2gl9TexFormatEi
3682:__ZN7ApiGLES19CreateSparseTextureEjjN2gl9TexFormatEiiiiRiS2_S2_
3683:__ZL25CheckCopyTextureArgumentsRK7ApiGLESP11GLESTextureS3_
3684:__ZN7ApiGLES16CopyTextureImageEjjN2gl9TexFormatEiiiiijjS1_iiiiiiiiii
3685:__ZN4gles13UploadTextureEP7ApiGLESR11GLESTexture13TextureFormatPKvjiiiij17TextureColorSpace16TextureUsageMode
3686:__ZN7ApiGLES14TextureSwizzleEjjN2gl18TextureSwizzleFuncE
3687:__Z29NeedToDecompressTextureFormat13TextureFormat
3688:__ZN12_GLOBAL__N_112UploadFormatE13TextureFormat
3689:__Z37PrintWarningAboutDecompressingTexture13TextureFormat
3690:__Z33GetMinimumTextureMipSizeForFormat13TextureFormat
3691:__ZN12_GLOBAL__N_127ConvertUncompressedMipLevelE13TextureFormatS0_iiiPKvPv
3692:__ZNK13TranslateGLES17GetTextureSwizzleEN2gl18TextureSwizzleFuncE
3693:__Z23DeleteSparseTextureGLES9TextureID
3694:__ZN4gles10InvalidateER20TextureUnitStateGLES
3695:__ZN4gles22UploadTexture2DSubDataEP7ApiGLESj13TextureFormatPKviiiii17TextureColorSpace
3696:__ZN7ApiGLES16GetTextureTargetE16TextureDimensionj
3697:__ZN4gles18AliasRenderSurfaceEP17RenderSurfaceGLES9TextureID
3698:__ZNK13TranslateGLES9GetFormatE17DepthBufferFormat
3699:__ZN4gles24CreateDepthRenderSurfaceEP7ApiGLESP17RenderSurfaceGLESN2gl9TexFormatE
3700:__ZN18GfxFramebufferGLES30SetBackBufferColorDepthSurfaceEP17RenderSurfaceBaseS1_
3701:__ZN9GfxDevice30SetBackBufferColorDepthSurfaceEP17RenderSurfaceBaseS1_
3702:__ZNK18GfxFramebufferGLES15DiscardContentsER12ObjectHandleI17RenderSurface_TagP17RenderSurfaceBaseE
3703:__ZN18GfxFramebufferGLES30ReadbackDepthIntoRenderTextureEP17RenderSurfaceGLES
3704:__ZN18GfxFramebufferGLES37GetFramebufferNameFromDepthAttachmentEP17RenderSurfaceBase
3705:__ZN25TransformFeedbackSkinning8SkinMeshERK18VertexStreamSourceP9GfxBufferP17GPUSkinPoseBufferS4_ii17ShaderChannelMaskb
3706:__ZL33GetTransformFeedbackShaderProgram17ShaderChannelMaskjj12TFMethodTypeb
3707:__ZN10BufferGLES12EnsureBufferEj
3708:__ZN7ApiGLES27BindTransformFeedbackBufferEjj
3709:__Z18SetVertexStateGLES17ShaderChannelMaskP21VertexDeclarationGLESPK18VertexStreamSourcejjj
3710:__ZN7ApiGLES11DrawCaptureE16GfxPrimitiveTypej
3711:__ZN7ApiGLES24DisableVertexArrayAttribEj
3712:__ZN14DataBufferGLES13EnsureStorageEj
3713:__ZN4core13StringBuilder6appendEj
3714:__ZN4core13StringBuilder6appendEi
3715:__Z11IntToStringi
3716:__Z19UnsignedIntToStringj
3717:__ZN31TransformFeedbackSkinPoseBuffer6UpdateEPK10Matrix4x4fi
3718:__ZN12SkinMeshInfo10DeallocateEPS_
3719:__ZN15TextureTFMethodD2Ev
3720:__ZN15TextureTFMethodD0Ev
3721:__ZN15TextureTFMethod13MapBoneBufferEj
3722:__ZN15TextureTFMethod15UnmapBoneBufferEv
3723:__ZN15TextureTFMethod16BindForRenderingEj
3724:__ZN15TextureTFMethod13DoneRenderingEv
3725:__ZN15TextureTFMethod20IsBoneCountSupportedEi
3726:__ZNSt3__26vectorIfNS_9allocatorIfEEE8__appendEj
3727:__ZN21UniformBufferTFMethodD2Ev
3728:__ZN21UniformBufferTFMethodD0Ev
3729:__ZN21UniformBufferTFMethod13MapBoneBufferEj
3730:__ZN21UniformBufferTFMethod15UnmapBoneBufferEv
3731:__ZN21UniformBufferTFMethod16BindForRenderingEj
3732:__ZN21UniformBufferTFMethod13DoneRenderingEv
3733:__ZN21UniformBufferTFMethod20IsBoneCountSupportedEi
3734:__ZN15UniformTFMethodD2Ev
3735:__ZN15UniformTFMethodD0Ev
3736:__ZN15UniformTFMethod13MapBoneBufferEj
3737:__ZN15UniformTFMethod16BindForRenderingEj
3738:__ZN15UniformTFMethod20IsBoneCountSupportedEi
3739:__ZN31TransformFeedbackSkinPoseBufferD2Ev
3740:__ZN31TransformFeedbackSkinPoseBufferD0Ev
3741:__Z17TransformVerticesPhRK10Matrix4x4fRK16VertexBufferDatajj17ShaderChannelMask25GfxTransformVerticesFlagsj
3742:__Z20GetChannelFormatSizeh
3743:__Z27TransformVerticesStridedREFPhRK10Matrix4x4fjPKhiiiS4_ii25GfxTransformVerticesFlagsj
3744:__ZN10Matrix3x3f15InvertTransposeEv
3745:__Z26TransformVerticesInnerLoopILb0ELb0ELb0EEvPhRK10Matrix4x4fRK10Matrix3x3fjPKhiiiS8_ii25GfxTransformVerticesFlagsj
3746:__Z26TransformVerticesInnerLoopILb1ELb0ELb0EEvPhRK10Matrix4x4fRK10Matrix3x3fjPKhiiiS8_ii25GfxTransformVerticesFlagsj
3747:__Z26TransformVerticesInnerLoopILb0ELb1ELb0EEvPhRK10Matrix4x4fRK10Matrix3x3fjPKhiiiS8_ii25GfxTransformVerticesFlagsj
3748:__Z26TransformVerticesInnerLoopILb1ELb1ELb0EEvPhRK10Matrix4x4fRK10Matrix3x3fjPKhiiiS8_ii25GfxTransformVerticesFlagsj
3749:__Z26TransformVerticesInnerLoopILb0ELb0ELb1EEvPhRK10Matrix4x4fRK10Matrix3x3fjPKhiiiS8_ii25GfxTransformVerticesFlagsj
3750:__Z26TransformVerticesInnerLoopILb1ELb0ELb1EEvPhRK10Matrix4x4fRK10Matrix3x3fjPKhiiiS8_ii25GfxTransformVerticesFlagsj
3751:__Z26TransformVerticesInnerLoopILb0ELb1ELb1EEvPhRK10Matrix4x4fRK10Matrix3x3fjPKhiiiS8_ii25GfxTransformVerticesFlagsj
3752:__Z26TransformVerticesInnerLoopILb1ELb1ELb1EEvPhRK10Matrix4x4fRK10Matrix3x3fjPKhiiiS8_ii25GfxTransformVerticesFlagsj
3753:__ZN10Matrix4x4f5ScaleERK8Vector3f
3754:__Z20InvertMatrix4x4_FullPKfPf
3755:__ZN10Matrix3x3fC2ERK10Matrix4x4f
3756:__ZN17UniqueIDGenerator17DestroyAllIndicesEv
3757:__ZNK17UniqueIDGenerator6ExistsE13UniqueSmallID
3758:__ZN17UniqueIDGenerator9DestroyIDE13UniqueSmallID
3759:__ZN16GeometryJobTasks30ScheduleDynamicVBOGeometryJobsER9GfxDevicePFvP25DynamicVBOGeometryJobDatajEPFvS3_EPFvRK8JobFenceES3_j16GfxPrimitiveTypeP21DynamicVBOChunkHandle
3760:__ZN16GeometryJobTasks20ScheduleGeometryJobsER9GfxDevicePFvP15GeometryJobDataEPK22GeometryJobInstructionjb
3761:__ZN19ConstantBuffersGLES12RecordRenderEv
3762:__ZN13GfxDeviceGLES16DrawBufferRangesEP9GfxBufferPK18VertexStreamSourceiPK16DrawBuffersRangeiP17VertexDeclaration17ShaderChannelMaskjb
3763:__ZN9GfxDevice14OnDeleteBufferEP9GfxBuffer
3764:__ZN10BufferGLES8EndWriteEj
3765:__ZN14DataBufferGLES16FlushMappedRangeEjj
3766:__ZN7ApiGLES11FlushBufferEjN2gl12BufferTargetEll
3767:__ZN10BufferGLES10BeginWriteEjj
3768:__ZN10BufferGLES6UpdateEPKv
3769:__ZN9GfxDevice14OnCreateBufferEP9GfxBuffer
3770:__ZN10BufferGLESD2Ev
3771:__ZN10BufferGLESD0Ev
3772:__ZN19ConstantBuffersGLES8UpdateCBENS_8BufferIDEiPKv
3773:__ZN9ShaderLab10SubProgramD2Ev
3774:__Z16CreateGpuProgram20ShaderGpuProgramTypeRK13dynamic_arrayIhLj1EER22CreateGpuProgramOutput
3775:__ZN18GlslGpuProgramGLESC2E20ShaderGpuProgramTypeRK13dynamic_arrayIhLj1EER22CreateGpuProgramOutput
3776:__ZN10GpuProgramC2Ev
3777:__ZN18GlslGpuProgramGLES6CreateE20ShaderGpuProgramTypeRK13dynamic_arrayIhLj1EER17ShaderChannelMask
3778:__ZN22CreateGpuProgramOutput12CreateParamsEv
3779:__ZN16UniformCacheGLES6CreateERK20GpuProgramParameters
3780:__ZN4glsl18ExtractDefineBlockERKN4core12basic_stringIcNS0_20StringStorageDefaultIcEEEES6_PS4_
3781:__Z4TrimRKN4core12basic_stringIcNS_20StringStorageDefaultIcEEEES5_
3782:__ZN18GlslGpuProgramGLES14CompileProgramERKN4core12basic_stringIcNS0_20StringStorageDefaultIcEEEES6_S6_S6_S6_R17ShaderChannelMask
3783:__Z19GetCachedBinaryNameRKN4core12basic_stringIcNS_20StringStorageDefaultIcEEEES5_S5_S5_S5_R11fixed_arrayIcLj33EE
3784:__ZN18GlslGpuProgramGLES25LoadFromBinaryShaderCacheERKN4core12basic_stringIcNS0_20StringStorageDefaultIcEEEER17ShaderChannelMaskPKc
3785:__ZL39PatchShaderSourceForAdrenoES3WorkaroundRKN4core12basic_stringIcNS_20StringStorageDefaultIcEEEEPS3_
3786:__ZL21CompileFragmentShaderRKN4core12basic_stringIcNS_20StringStorageDefaultIcEEEEb
3787:__ZL27BindVertexProgramAttributesRKN4core12basic_stringIcNS_20StringStorageDefaultIcEEEEjR17ShaderChannelMask
3788:__ZN18GlslGpuProgramGLES24StoreInBinaryShaderCacheEPKc
3789:__ZN7ApiGLES13CreateProgramEv
3790:__ZN18GlslGpuProgramGLESD2Ev
3791:__ZN18GlslGpuProgramGLESD0Ev
3792:__ZNK10GpuProgram11IsSupportedEv
3793:__ZNK20GpuProgramParameters23PrepareOverridingValuesERK19ShaderPropertySheetR13dynamic_arrayIhLj4EE
3794:__ZL22PrepareValueParametersI27OverridingParameterPreparerEvRK13dynamic_arrayIN20GpuProgramParameters14ValueParameterELj4EEjjjRS1_IhLj4EERKT_
3795:__ZN18GfxFramebufferGLES10SetScissorERK5RectTIiE
3796:__ZN18GfxFramebufferGLES11SetViewportERK5RectTIiE
3797:__ZN9GfxDevice26UpdateViewProjectionMatrixEv
3798:__ZN9GfxDevice19SetProjectionMatrixERK10Matrix4x4f
3799:__ZN9GfxDevice13SetViewMatrixERK10Matrix4x4f
3800:__ZN9GfxDevice14SetWorldMatrixERK10Matrix4x4f
3801:__ZN7ApiGLES16BindStencilStateEPK15GfxStencilStatei
3802:__ZN7ApiGLES11SetCullModeE8CullMode
3803:__ZN18GfxFramebufferGLES5ClearE13GfxClearFlagsRK10ColorRGBAffib
3804:__Z14CheckErrorGLESPK7ApiGLESPKcS3_l
3805:__Z7LogGLESPKcS0_S0_l
3806:__ZN9GfxDevice15InvalidateStateEv
3807:__ZN18GfxFramebufferGLES32InvalidateActiveFramebufferStateEv
3808:__ZN9GfxDevice20CleanupSharedBuffersEv
3809:__ZN19ConstantBuffersGLES5ClearEv
3810:__Z24ReleaseBufferManagerGLESv
3811:__ZN22VertexDeclarationCache5ClearEv
3812:__ZN7ApiGLES13DeleteSamplerERj
3813:__ZN11ContextGLES7DestroyEv
3814:__ZNSt3__26__treeINS_12__value_typeI15ComputeBufferIDP14DataBufferGLESEENS_19__map_value_compareIS2_S5_NS_4lessIS2_EELb1EEENS_9allocatorIS5_EEE7destroyEPNS_11__tree_nodeIS5_PvEE
3815:__ZNSt3__26__treeINS_12__value_typeI15ComputeBufferIDP17ComputeBufferGLESEENS_19__map_value_compareIS2_S5_NS_4lessIS2_EELb1EEENS_9allocatorIS5_EEE7destroyEPNS_11__tree_nodeIS5_PvEE
3816:__ZN15DeviceStateGLESD2Ev
3817:__ZN9GfxDeviceD2Ev
3818:__ZNSt3__26__treeINS_12__value_typeI9TextureIDjEENS_19__map_value_compareIS2_S3_NS_4lessIS2_EELb1EEENS_9allocatorIS3_EEE7destroyEPNS_11__tree_nodeIS3_PvEE
3819:__ZN9GfxDeviceD0Ev
3820:__ZN9GfxDevice18BeforePluginRenderEv
3821:__ZN9GfxDevice25SetInvertProjectionMatrixEb
3822:__ZN9GfxDevice11DrawBuffersEP9GfxBufferPK18VertexStreamSourceiPK16DrawBuffersRangeiP17VertexDeclaration17ShaderChannelMask
3823:__ZN9GfxDevice19DrawBuffersIndirectEP9GfxBufferPK18VertexStreamSourceiP17VertexDeclaration17ShaderChannelMask16GfxPrimitiveType15ComputeBufferIDj
3824:__ZN9GfxDevice21RegisterNativeTextureE9TextureIDi16TextureDimension
3825:__ZN9GfxDevice23UnregisterNativeTextureE9TextureID
3826:__ZN9GfxDevice20UploadTexture2DArrayE9TextureIDPKhjiii13TextureFormati18TextureUploadFlags17TextureColorSpace
3827:__ZN9GfxDevice22UploadTextureCubeArrayE9TextureIDPKhjii13TextureFormati18TextureUploadFlags17TextureColorSpace
3828:__ZN9GfxDevice11CopyTextureE9TextureIDiiiiiiiS0_iiiii
3829:__ZN9GfxDevice19CreateSparseTextureE9TextureIDii13TextureFormati17TextureColorSpace
3830:__ZN9GfxDevice19CreateComputeBufferE15ComputeBufferIDjj18ComputeBufferFlags
3831:__ZN9GfxDevice22UpdateComputeResourcesEjPK9TextureIDPK16TextureDimensionPKijPKjjPK15ComputeBufferIDS7_PK20ComputeBufferCounterjSC_S2_S5_S9_SF_
3832:__ZN7ApiGLESD2Ev
3833:__ZN11fixed_arrayI13dynamic_arrayIjLj4EELj6EED2Ev
3834:__ZNSt3__26__treeI17DeviceRasterState11memcmp_lessIS1_S1_ENS_9allocatorIS1_EEE7destroyEPNS_11__tree_nodeIS1_PvEE
3835:__ZNSt3__26__treeI20DeviceBlendStateGLES11memcmp_lessIS1_16DeviceBlendStateENS_9allocatorIS1_EEE7destroyEPNS_11__tree_nodeIS1_PvEE
3836:__ZNSt3__26__treeI22DeviceStencilStateGLES11memcmp_lessIS1_18DeviceStencilStateENS_9allocatorIS1_EEE7destroyEPNS_11__tree_nodeIS1_PvEE
3837:__ZNSt3__26__treeI20DeviceDepthStateGLES11memcmp_lessIS1_S1_ENS_9allocatorIS1_EEE7destroyEPNS_11__tree_nodeIS1_PvEE
3838:__ZN14GfxContextGLESD2Ev
3839:__ZNSt3__26__treeINS_12__value_typeIN2gl13ContextHandleEPN14GfxContextGLES8InstanceEEENS_19__map_value_compareIS3_S7_NS_4lessIS3_EELb1EEENS_9allocatorIS7_EEE7destroyEPNS_11__tree_nodeIS7_PvEE
3840:__ZN22VertexDeclarationCache6CommitEv
3841:__ZN17BufferManagerGLESD2Ev
3842:__ZN17BufferManagerGLES5ClearEv
3843:__ZN16MeshVertexFormatD2Ev
3844:__ZN24BuiltinShaderParamValuesC2Ev
3845:__ZN9GfxDevice8OnCreateEv
3846:__ZN16MeshVertexFormatC2EjRK18VertexChannelsInfob
3847:__ZN14GfxDeviceStats15SetScreenParamsEiiiii
3848:__Z16GetValuesForARGVRKN4core12basic_stringIcNS_20StringStorageDefaultIcEEEE
3849:__Z36GiveDebuggerChanceToAttachIfRequiredv
3850:__ZN4File19SetCurrentDirectoryERKN4core12basic_stringIcNS0_20StringStorageDefaultIcEEEE
3851:__Z29InitPathNamePersistentManagerv
3852:__Z32AddPathRemapsForBuiltinResourcesRKN4core12basic_stringIcNS_20StringStorageDefaultIcEEEE
3853:__Z26InitializeEngineNoGraphicsv
3854:__ZN10FileSystem25MountDataFolderFileSystemERKN4core12basic_stringIcNS0_20StringStorageDefaultIcEEEES6_
3855:__Z26PlayerLoadSettingsAndInputRKN4core12basic_stringIcNS_20StringStorageDefaultIcEEEE
3856:__ZN17ArchiveFileSystem12MountArchiveEPKcS1_
3857:__ZN20ArchiveStorageReaderC2Ev
3858:__ZN20ArchiveStorageReader10InitializeER15FileSystemEntryy
3859:__ZN15dense_hashtableINSt3__24pairIKN4core12basic_stringIcNS2_20StringStorageDefaultIcEEEEP20ArchiveStorageReaderEES6_20StringHash32FunctionIS6_EN14dense_hash_mapIS6_S9_SC_NS0_8equal_toIS6_EE13stl_allocatorISA_L18MemLabelIdentifier54ELi16EEE9SelectKeyESF_SI_E12resize_deltaEjj
3860:__ZN15dense_hashtableINSt3__24pairIKN4core12basic_stringIcNS2_20StringStorageDefaultIcEEEEP20ArchiveStorageReaderEES6_20StringHash32FunctionIS6_EN14dense_hash_mapIS6_S9_SC_NS0_8equal_toIS6_EE13stl_allocatorISA_L18MemLabelIdentifier54ELi16EEE9SelectKeyESF_SI_E15insert_noresizeERKSA_
3861:__ZN17ArchiveFileSystem10AddStorageEP20ArchiveStorageReader
3862:__ZN20ArchiveStorageReader18DestroyCachedBlockEPNS_11CachedBlockE
3863:__Z18CreateDecompressor15CompressionType18MemLabelIdentifier
3864:__ZNK15Lz4Decompressor16DecompressMemoryEPKvPjPvS2_
3865:__ZNK15Lz4Decompressor16DecompressStreamEPvPKvPjS0_S3_b
3866:_UNITY_LZ4_decompress_safe
3867:__ZNSt3__23mapIN4core12basic_stringIcNS1_20StringStorageDefaultIcEEEEN17ArchiveFileSystem11ArchiveItemENS_4lessIS5_EE13stl_allocatorINS_4pairIKS5_S7_EEL18MemLabelIdentifier54ELi16EEEixERSC_
3868:__ZNK15dense_hashtableINSt3__24pairIKN4core12basic_stringIcNS2_20StringStorageDefaultIcEEEEP20ArchiveStorageReaderEES6_20StringHash32FunctionIS6_EN14dense_hash_mapIS6_S9_SC_NS0_8equal_toIS6_EE13stl_allocatorISA_L18MemLabelIdentifier54ELi16EEE9SelectKeyESF_SI_E23find_position_with_hashERS7_j
3869:__ZN15dense_hashtableINSt3__24pairIKN4core12basic_stringIcNS2_20StringStorageDefaultIcEEEEP20ArchiveStorageReaderEES6_20StringHash32FunctionIS6_EN14dense_hash_mapIS6_S9_SC_NS0_8equal_toIS6_EE13stl_allocatorISA_L18MemLabelIdentifier54ELi16EEE9SelectKeyESF_SI_EC2ERKSL_j
3870:__ZN15dense_hashtableINSt3__24pairIKN4core12basic_stringIcNS2_20StringStorageDefaultIcEEEEP20ArchiveStorageReaderEES6_20StringHash32FunctionIS6_EN14dense_hash_mapIS6_S9_SC_NS0_8equal_toIS6_EE13stl_allocatorISA_L18MemLabelIdentifier54ELi16EEE9SelectKeyESF_SI_ED2Ev
3871:__ZN15dense_hashtableINSt3__24pairIKN4core12basic_stringIcNS2_20StringStorageDefaultIcEEEEP20ArchiveStorageReaderEES6_20StringHash32FunctionIS6_EN14dense_hash_mapIS6_S9_SC_NS0_8equal_toIS6_EE13stl_allocatorISA_L18MemLabelIdentifier54ELi16EEE9SelectKeyESF_SI_E9copy_fromERKSL_j
3872:__ZN15dense_hashtableINSt3__24pairIKN4core12basic_stringIcNS2_20StringStorageDefaultIcEEEEP20ArchiveStorageReaderEES6_20StringHash32FunctionIS6_EN14dense_hash_mapIS6_S9_SC_NS0_8equal_toIS6_EE13stl_allocatorISA_L18MemLabelIdentifier54ELi16EEE9SelectKeyESF_SI_E5clearEv
3873:__ZN15dense_hashtableINSt3__24pairIKN4core12basic_stringIcNS2_20StringStorageDefaultIcEEEEP20ArchiveStorageReaderEES6_20StringHash32FunctionIS6_EN14dense_hash_mapIS6_S9_SC_NS0_8equal_toIS6_EE13stl_allocatorISA_L18MemLabelIdentifier54ELi16EEE9SelectKeyESF_SI_E12expand_arrayEjN21dense_hash_map_traits17integral_constantIbLb0EEE
3874:__ZN20ArchiveStorageReader15MakeStorageUsedEv
3875:__ZN20ArchiveStorageReader10ReadHeaderEy
3876:__ZN12FileAccessor4SeekEx10FileOrigin
3877:__ZN20ArchiveStorageHeader19ReadHeaderSignatureER12FileAccessorRNS_6HeaderE
3878:__ZN20ArchiveStorageHeader7ReadAllER12FileAccessorRNS_6HeaderERNS_10BlocksInfoERNS_13DirectoryInfoE
3879:__ZL43ReadHeaderAndBlocksInfo_UnityWebAndUnityRawR12FileAccessorRN20ArchiveStorageHeader6HeaderERNS1_10BlocksInfoE
3880:__ZN20ArchiveStorageHeader10ReadHeaderER12FileAccessorRNS_6HeaderE
3881:__ZN12FileAccessor4ReadEyPvPy
3882:__ZN10MemoryFile21CreateFileSystemEntryE18MemLabelIdentifier14FilePermissionPvjb
3883:__ZN20ArchiveStorageHeader14ReadBlocksInfoER12FileAccessorRKNS_6HeaderERNS_10BlocksInfoE
3884:__ZN20ArchiveStorageHeader17ReadDirectoryInfoER12FileAccessorRKNS_6HeaderERNS_13DirectoryInfoE
3885:__ZNK12FileAccessor8PositionEv
3886:__Z37ReadDirectoryInfo_UnityWebAndUnityRawR12FileAccessorRKN20ArchiveStorageHeader6HeaderERNS1_13DirectoryInfoE
3887:__ZNSt3__26vectorIN20ArchiveStorageHeader4NodeE13stl_allocatorIS2_L18MemLabelIdentifier54ELi16EEE8__appendEj
3888:__ZN12_GLOBAL__N_110ReadStringIN4core12basic_stringIcNS1_20StringStorageDefaultIcEEEEEEbR12FileAccessorPT_
3889:__ZN4core12basic_stringIcNS_20StringStorageDefaultIcEEE6resizeEj
3890:__ZN4core12basic_stringIcNS_20StringStorageDefaultIcEEE9push_backEc
3891:__Z20GetPathNameExtensionRKN4core12basic_stringIcNS_20StringStorageDefaultIcEEEE
3892:__ZNSt3__26vectorIN20ArchiveStorageHeader12StorageBlockE13stl_allocatorIS2_L18MemLabelIdentifier54ELi16EEE8__appendEj
3893:__ZN25SingleBlockMemoryFileDataC2E18MemLabelIdentifierPvjb
3894:__ZN10MemoryFileC2E18MemLabelIdentifierP14MemoryFileData14FilePermission
3895:__ZN15FileSystemEntryC2ERK13FileEntryData
3896:__ZN12IFileAdapter4OpenER13FileEntryData14FilePermission16FileAutoBehavior
3897:__ZN12IFileAdapter4ReadER13FileEntryDatayyPvPy
3898:__ZN12IFileAdapter4ReadER13FileEntryDatayPvPy
3899:__ZN12IFileAdapter5WriteER13FileEntryDatayPvPy
3900:__ZN12IFileAdapter5CloseER13FileEntryData
3901:__ZN12IFileAdapter4SeekER13FileEntryDatax10FileOrigin
3902:__ZNK12IFileAdapter8PositionERK13FileEntryData
3903:__ZN12IFileAdapter9SetLengthER13FileEntryDatay
3904:__ZNK12IFileAdapter4SizeERK13FileEntryData
3905:__ZN25MultiBlocksMemoryFileDataD2Ev
3906:__ZN25MultiBlocksMemoryFileDataD0Ev
3907:__ZN25MultiBlocksMemoryFileData4LockEPPv
3908:__ZN25MultiBlocksMemoryFileData6UnlockEPv
3909:__ZNK25MultiBlocksMemoryFileData4ReadEyyPv
3910:__ZN25MultiBlocksMemoryFileData5WriteEyyPKv
3911:__ZN25MultiBlocksMemoryFileData9SetLengthEy
3912:__ZNK25MultiBlocksMemoryFileData4SizeEv
3913:__ZNK25MultiBlocksMemoryFileData5CloneEv
3914:__ZN25MultiBlocksMemoryFileData17AdjustBlocksCountEj
3915:__ZN10MemoryFileD2Ev
3916:__ZN10MemoryFileD0Ev
3917:__ZNK10MemoryFile6IsOpenEv
3918:__ZN10MemoryFile5CloseEv
3919:__ZN10MemoryFile4ReadEyyPvPy
3920:__ZN10MemoryFile4ReadEyPvPy
3921:__ZN10MemoryFile5WriteEyyPKvPy
3922:__ZN10MemoryFile5WriteEyPKvPy
3923:__ZN10MemoryFile4SeekEx10FileOrigin
3924:__ZNK10MemoryFile8PositionEv
3925:__ZN10MemoryFile9SetLengthEy
3926:__ZNK10MemoryFile4SizeEv
3927:__ZN25SingleBlockMemoryFileDataD2Ev
3928:__ZN25SingleBlockMemoryFileDataD0Ev
3929:__ZN25SingleBlockMemoryFileData4LockEPPv
3930:__ZNK25SingleBlockMemoryFileData4ReadEyyPv
3931:__ZN25SingleBlockMemoryFileData5WriteEyyPKv
3932:__ZN25SingleBlockMemoryFileData9SetLengthEy
3933:__ZNK25SingleBlockMemoryFileData4SizeEv
3934:__ZNK25SingleBlockMemoryFileData5CloneEv
3935:__ZN15FileSystemEntryC2Ev
3936:__ZN20ArchiveStorageReaderD2Ev
3937:__ZN20ArchiveStorageReaderD0Ev
3938:__ZN12HandlerChainD2Ev
3939:__ZN12HandlerChainD0Ev
3940:__ZN12HandlerChain4OpenER13FileEntryData14FilePermission16FileAutoBehavior
3941:__ZN12HandlerChain4ReadER13FileEntryDatayyPvPy
3942:__ZN12HandlerChain4ReadER13FileEntryDatayPvPy
3943:__ZN12HandlerChain4SeekER13FileEntryDatax10FileOrigin
3944:__ZNK12HandlerChain8PositionERK13FileEntryData
3945:__ZN12HandlerChain9SetLengthER13FileEntryDatay
3946:__ZNK12HandlerChain4SizeERK13FileEntryData
3947:__ZNK12HandlerChain9CanHandleEPKc
3948:__ZN12HandlerChain10ToAbsoluteEPKc
3949:__ZN12HandlerChain18IsAbsoluteFilePathEPKc
3950:__ZN12HandlerChain4NameEv
3951:__ZNK12HandlerChain6ParentERK13FileEntryDataRN4core12basic_stringIcNS3_20StringStorageDefaultIcEEEE
3952:__ZNK12HandlerChain8FilenameERK13FileEntryData
3953:__ZNK12HandlerChain5IsDirERK13FileEntryData
3954:__ZNK12HandlerChain8IsHiddenERK13FileEntryData
3955:__ZNK12HandlerChain9IsSymLinkERK13FileEntryData
3956:__ZNK12HandlerChain12LastModifiedERK13FileEntryData
3957:__ZN12HandlerChain8IsLockedERK13FileEntryData
3958:__ZN12HandlerChain11HasFastHashERK13FileEntryDataR7Hash128
3959:__ZN12HandlerChain8SetFlagsER13FileEntryDatajj
3960:__ZN12HandlerChain12CreateAsFileER13FileEntryData
3961:__ZN12HandlerChain11CreateAsDirER13FileEntryData
3962:__ZN12HandlerChain6DeleteER13FileEntryDatab
3963:__ZN12HandlerChain11MoveToTrashER13FileEntryData
3964:__ZNK12HandlerChain6TargetERK13FileEntryDataR15FileSystemEntry
3965:__ZN12HandlerChain4LockER13FileEntryData12FileLockMode
3966:__ZN12HandlerChain4CopyER13FileEntryDataS1_
3967:__ZN12HandlerChain10AtomicMoveER13FileEntryDataS1_
3968:__ZNK12HandlerChain12GetAssetGUIDERK13FileEntryData
3969:__ZN12HandlerChain9MakeLocalER13FileEntryDatab
3970:__ZNK12HandlerChain9EnumerateEPKcP13dynamic_arrayI13FileEntryInfoLj8EEbPPv19FileEnumerationFlag
3971:__ZNK12HandlerChain6ExistsERK13FileEntryData
3972:__ZN17ArchiveFileSystemC2EPKc
3973:__ZN15dense_hashtableINSt3__24pairIKN4core12basic_stringIcNS2_20StringStorageDefaultIcEEEEP20ArchiveStorageReaderEES6_20StringHash32FunctionIS6_EN14dense_hash_mapIS6_S9_SC_NS0_8equal_toIS6_EE13stl_allocatorISA_L18MemLabelIdentifier54ELi16EEE9SelectKeyESF_SI_E13set_empty_keyERKSA_
3974:__ZN14dense_hash_mapIN4core12basic_stringIcNS0_20StringStorageDefaultIcEEEEP20ArchiveStorageReader20StringHash32FunctionIS4_ENSt3__28equal_toIS4_EE13stl_allocatorINS9_4pairIKS4_S6_EEL18MemLabelIdentifier54ELi16EEE15set_deleted_keyERSE_
3975:__ZN17ArchiveFileSystemD2Ev
3976:__ZN17ArchiveFileSystemD0Ev
3977:__ZN17ArchiveFileSystem4OpenER13FileEntryData14FilePermission16FileAutoBehavior
3978:__ZN17ArchiveFileSystem4ReadER13FileEntryDatayyPvPy
3979:__ZN17ArchiveFileSystem4ReadER13FileEntryDatayPvPy
3980:__ZN17ArchiveFileSystem5WriteER13FileEntryDatayyPvPy
3981:__ZN17ArchiveFileSystem5WriteER13FileEntryDatayPvPy
3982:__ZN17ArchiveFileSystem5CloseER13FileEntryData
3983:__ZN17ArchiveFileSystem4SeekER13FileEntryDatax10FileOrigin
3984:__ZNK17ArchiveFileSystem8PositionERK13FileEntryData
3985:__ZNK17ArchiveFileSystem4SizeERK13FileEntryData
3986:__ZNK17ArchiveFileSystem9CanHandleEPKc
3987:__ZN17ArchiveFileSystem10ToAbsoluteEPKc
3988:__ZN17ArchiveFileSystem18IsAbsoluteFilePathEPKc
3989:__ZN17ArchiveFileSystem4NameEv
3990:__ZNK17ArchiveFileSystem6ParentERK13FileEntryDataRN4core12basic_stringIcNS3_20StringStorageDefaultIcEEEE
3991:__ZNK17ArchiveFileSystem5IsDirERK13FileEntryData
3992:__ZNK17ArchiveFileSystem12LastModifiedERK13FileEntryData
3993:__ZN17ArchiveFileSystem8SetFlagsER13FileEntryDatajj
3994:__ZN17FileSystemHandler10AtomicMoveER13FileEntryDataS1_
3995:__ZNK17ArchiveFileSystem9EnumerateEPKcP13dynamic_arrayI13FileEntryInfoLj8EEbPPv19FileEnumerationFlag
3996:__ZNK17ArchiveFileSystem6ExistsERK13FileEntryData
3997:__ZNK17ArchiveFileSystem14FindItemByPathEPKc
3998:__Z16FlaggedAsSkippedIN4core12basic_stringIcNS0_20StringStorageDefaultIcEEEEEbRK13FileEntryInfoRKT_19FileEnumerationFlag
3999:__ZN15ArchiveReadFileD2Ev
4000:__ZN15ArchiveReadFileD0Ev
4001:__ZN15ArchiveReadFile5CloseEv
4002:__ZN15ArchiveReadFile4ReadEyyPvPy
4003:__ZN15ArchiveReadFile5WriteEyyPKvPy
4004:__ZN15ArchiveReadFile5WriteEyPKvPy
4005:__ZN15ArchiveReadFile4SeekEx10FileOrigin
4006:__ZN15ArchiveReadFile9SetLengthEy
4007:__ZNK15ArchiveReadFile4SizeEv
4008:__ZN20ArchiveStorageReader4ReadEyyPvPy
4009:__ZN20ArchiveStorageReader9ReadBlockEjyyPvPy
4010:__ZN20ArchiveStorageReader31TryToReadDirectoryFromBlockDataEyPKvj
4011:__ZN20ArchiveStorageReader28TryReadDirectoryInfoFromFileEP5IFile
4012:__ZN25MultiBlocksMemoryFileDataC2E18MemLabelIdentifierj
4013:__ZN20ArchiveStorageReader15ReadFromStorageEyyPvPy
4014:__ZN20ArchiveStorageReader18AcquireCachedBlockEjj
4015:__ZN20ArchiveStorageReader28AcquireAndPrefillUnusedBlockEjPNS_11CacheResultE
4016:__ZN20ArchiveStorageReader21FillStreamCachedBlockEPNS_11CachedBlockE
4017:__ZN20ArchiveStorageReader17ReinitCachedBlockEPNS_11CachedBlockEj
4018:__ZN20ArchiveStorageReader20FillChunkCachedBlockEPNS_11CachedBlockE
4019:__ZNSt3__26__treeINS_12__value_typeIN4core12basic_stringIcNS2_20StringStorageDefaultIcEEEEN17ArchiveFileSystem11ArchiveItemEEENS_19__map_value_compareIS6_S9_NS_4lessIS6_EELb1EEE13stl_allocatorIS9_L18MemLabelIdentifier54ELi16EEE7destroyEPNS_11__tree_nodeIS9_PvEE
4020:__ZNSt3__26__treeINS_12__value_typeIPKvNS_4pairIjP20ArchiveStorageReaderEEEENS_19__map_value_compareIS3_S8_NS_4lessIS3_EELb1EEENS_9allocatorIS8_EEE7destroyEPNS_11__tree_nodeIS8_PvEE
4021:__ZN11TypeManager18InitializeAllTypesEv
4022:__ZN21ExecutionOrderManager15InitializeClassEv
4023:__ZN23ManagedAttributeManager15InitializeClassEv
4024:__Z26InitializeAsyncReadManagerv
4025:__ZN14MessageHandler10InitializeEP11TypeManagerPKN5Unity4TypeE
4026:__Z31ManagerContextInitializeClassesv
4027:__ZN19RenderBufferManager23InitRenderBufferManagerEv
4028:__ZN13ModuleManager3GetEv
4029:__ZN13ModuleManager4LoadEv
4030:__Z17InitScreenManagerv
4031:__ZN11TypeManager19CallInitializeTypesEv
4032:__Z23InitPlayerLoopCallbacksv
4033:__ZZ23InitPlayerLoopCallbacksvEN36InitializationPlayerUpdateTimestruct7ForwardEv
4034:__ZZ23InitPlayerLoopCallbacksvEN38EarlyUpdateExecuteMainThreadJobsstruct7ForwardEv
4035:__ZZ23InitPlayerLoopCallbacksvEN37EarlyUpdateProcessMouseInWindowstruct7ForwardEv
4036:__ZZ23InitPlayerLoopCallbacksvEN36EarlyUpdatePresentBeforeUpdatestruct7ForwardEv
4037:__ZZ23InitPlayerLoopCallbacksvEN44EarlyUpdateResetFrameStatsAfterPresentstruct7ForwardEv
4038:__ZZ23InitPlayerLoopCallbacksvEN41EarlyUpdateUpdateAllUnityWebStreamsstruct7ForwardEv
4039:__ZZ23InitPlayerLoopCallbacksvEN33EarlyUpdateUpdatePreloadingstruct7ForwardEv
4040:__ZZ23InitPlayerLoopCallbacksvEN40EarlyUpdateRendererNotifyInvisiblestruct7ForwardEv
4041:__ZZ23InitPlayerLoopCallbacksvEN40EarlyUpdatePlayerCleanupCachedDatastruct7ForwardEv
4042:__ZZ23InitPlayerLoopCallbacksvEN35EarlyUpdateUpdateInputManagerstruct7ForwardEv
4043:__ZZ23InitPlayerLoopCallbacksvEN33PreUpdateCheckTexFieldInputstruct7ForwardEv
4044:__ZZ23InitPlayerLoopCallbacksvEN34PostLateUpdateResetInputAxisstruct7ForwardEv
4045:__ZZ23InitPlayerLoopCallbacksvEN30PreUpdateSendMouseEventsstruct7ForwardEv
4046:__ZZ23InitPlayerLoopCallbacksvEN42PostLateUpdatePlayerSendFrameStartedstruct7ForwardEv
4047:__ZZ23InitPlayerLoopCallbacksvEN40PostLateUpdatePlayerUpdateCanvasesstruct7ForwardEv
4048:__ZZ23InitPlayerLoopCallbacksvEN46PostLateUpdateUpdateCustomRenderTexturesstruct7ForwardEv
4049:__ZZ23InitPlayerLoopCallbacksvEN38PostLateUpdateUpdateAllRenderersstruct7ForwardEv
4050:__ZZ23InitPlayerLoopCallbacksvEN44PostLateUpdatePlayerEmitCanvasGeometrystruct7ForwardEv
4051:__ZZ23InitPlayerLoopCallbacksvEN40PostLateUpdateFinishFrameRenderingstruct7ForwardEv
4052:__ZZ23InitPlayerLoopCallbacksvEN35PostLateUpdateBatchModeUpdatestruct7ForwardEv
4053:__ZZ23InitPlayerLoopCallbacksvEN43PostLateUpdatePlayerSendFrameCompletestruct7ForwardEv
4054:__ZZ23InitPlayerLoopCallbacksvEN46PostLateUpdatePlayerSendFramePostPresentstruct7ForwardEv
4055:__ZZ23InitPlayerLoopCallbacksvEN43PostLateUpdateUpdateCaptureScreenshotstruct7ForwardEv
4056:__ZZ23InitPlayerLoopCallbacksvEN36PostLateUpdatePresentAfterDrawstruct7ForwardEv
4057:__ZZ23InitPlayerLoopCallbacksvEN36PostLateUpdateUpdateResolutionstruct7ForwardEv
4058:__ZZ23InitPlayerLoopCallbacksvEN33PostLateUpdateInputEndFramestruct7ForwardEv
4059:__ZZ23InitPlayerLoopCallbacksvEN34PostLateUpdateGUIClearEventsstruct7ForwardEv
4060:__ZZ23InitPlayerLoopCallbacksvEN38PostLateUpdateShaderHandleErrorsstruct7ForwardEv
4061:__ZZ23InitPlayerLoopCallbacksvEN42PostLateUpdateMemoryFrameMaintenancestruct7ForwardEv
4062:__ZZ23InitPlayerLoopCallbacksvEN36PostLateUpdateProfilerEndFramestruct7ForwardEv
4063:__ZZ23InitPlayerLoopCallbacksvEN45EarlyUpdateScriptRunDelayedStartupFramestruct7ForwardEv
4064:__ZZ23InitPlayerLoopCallbacksvEN46FixedUpdateScriptRunBehaviourFixedUpdatestruct7ForwardEv
4065:__ZZ23InitPlayerLoopCallbacksvEN47FixedUpdateScriptRunDelayedFixedFrameRatestruct7ForwardEv
4066:__ZZ23InitPlayerLoopCallbacksvEN36UpdateScriptRunBehaviourUpdatestruct7ForwardEv
4067:__ZZ23InitPlayerLoopCallbacksvEN44UpdateScriptRunDelayedDynamicFrameRatestruct7ForwardEv
4068:__ZZ23InitPlayerLoopCallbacksvEN47PreLateUpdateScriptRunBehaviourLateUpdatestruct7ForwardEv
4069:__Z23GetLateBehaviourManagerv
4070:__Z19GetBehaviourManagerv
4071:__Z24GetFixedBehaviourManagerv
4072:__ZN13MemoryManager16FrameMaintenanceEb
4073:__ZN6Shader23HandleShadersWithErrorsEv
4074:__ZN9ShaderLab9IntShader27RemoveUnsupportedSubShadersEv
4075:__ZN8Material26ResetAllCachedMaterialDataEP6Shader
4076:__ZN9ShaderLab9IntShaderD2Ev
4077:__ZN9ShaderLab9IntShader27DeleteUnsupportedSubShadersEv
4078:__ZNSt3__26__treeINS_12__value_typeI11ShaderTagIDS2_EENS_19__map_value_compareIS2_S3_NS_4lessIS2_EELb1EEENS_9allocatorIS3_EEE7destroyEPNS_11__tree_nodeIS3_PvEE
4079:__ZN9ShaderLab4Pass7ReleaseEv
4080:__ZN9ShaderLab11ShaderStateD2Ev
4081:__ZN9ShaderLab9SubShader20IsSubShaderSupportedERKN4core12basic_stringIcNS1_20StringStorageDefaultIcEEEE
4082:__ZN9ShaderLab4Pass16SetupPassOptionsEv
4083:__ZN9ShaderLab4Pass15IsPassSupportedERKN4core12basic_stringIcNS1_20StringStorageDefaultIcEEEE
4084:__ZNK9ShaderLab11ShaderState22IsShaderStateSupportedEv
4085:__Z18GetGUIEventManagerv
4086:__ZN15GUIEventManager11ClearEventsEv
4087:__ZN12InputManager13InputEndFrameEv
4088:__Z20SetHasFrameToPresentb
4089:__Z15SetIsFirstFrameb
4090:__Z11IsBatchmodev
4091:__Z16PresentAfterDrawN9GfxDevice11PresentModeE
4092:__Z12IsFirstFramev
4093:__Z23UpdateCaptureScreenshotv
4094:__ZN6Camera25SetNormalizedViewportRectERK5RectTIfE
4095:__ZNK6Camera19GetProjectionMatrixEv
4096:__ZN6Camera19SetProjectionMatrixERK10Matrix4x4f
4097:__ZN13RenderManager13RenderCamerasEiPFvvE
4098:__Z21WriteImageAsyncThreadPv
4099:__ZN5Image13ReformatImageEii13TextureFormatN14ImageReference8BlitModeE
4100:__Z21ConvertImageToPNGFileRK14ImageReferenceRKN4core12basic_stringIcNS2_20StringStorageDefaultIcEEEE
4101:__Z23ConvertImageToPNGBufferRK14ImageReferenceR13dynamic_arrayIhLj1EE
4102:__Z16WriteBytesToFilePKvjRKN4core12basic_stringIcNS1_20StringStorageDefaultIcEEEE
4103:__ZN12FileAccessor5WriteEyPKvPy
4104:__ZL17WriteToBufferFuncPvPhj
4105:__Z24ConvertBufferToPNGBufferPKhjjj13TextureFormatPvPFvS2_PhjE
4106:_UNITY_png_create_write_struct
4107:_UNITY_png_create_info_struct
4108:_UNITY_png_destroy_write_struct
4109:_UNITY_png_set_longjmp_fn
4110:__ZL20PngWriteToMemoryFuncP14png_struct_defPhj
4111:_UNITY_png_set_write_fn
4112:_UNITY_png_set_compression_level
4113:_UNITY_png_set_IHDR
4114:_UNITY_png_write_info
4115:_UNITY_png_write_end
4116:_UNITY_png_write_row
4117:_UNITY_png_error
4118:_UNITY_png_write_start_row
4119:_UNITY_png_do_write_transformations
4120:_UNITY_png_do_check_palette_indexes
4121:_UNITY_png_write_find_filter
4122:_UNITY_png_compress_IDAT
4123:_UNITY_png_write_flush
4124:_UNITY_png_flush
4125:_UNITY_png_malloc
4126:_UNITY_png_free
4127:_UNITY_png_image_size
4128:_UNITY_png_deflate_claim
4129:_unity_z_deflate
4130:_UNITY_png_write_data
4131:_UNITY_png_reset_crc
4132:_UNITY_png_calculate_crc
4133:_UNITY_png_zstream_error
4134:_unity_z_crc32
4135:_unity_z_adler32
4136:_unity_z_tr_align
4137:_unity_z_tr_stored_block
4138:_deflate_stored
4139:_deflate_fast
4140:_deflate_slow
4141:_fill_window
4142:_longest_match
4143:_longest_match_fast
4144:_unity_z_tr_flush_block
4145:_build_tree
4146:_compress_block
4147:_send_tree
4148:_init_block
4149:_UNITY_png_safecat
4150:_unity_z_deflateEnd
4151:_unity_z_deflateInit2_
4152:_unity_z_deflateReset
4153:_unity_z_tr_init
4154:_unity_z_zcalloc
4155:_unity_z_zcfree
4156:_UNITY_png_do_strip_channel
4157:_UNITY_png_do_swap
4158:_UNITY_png_calloc
4159:_UNITY_png_longjmp
4160:_UNITY_png_benign_error
4161:_UNITY_png_write_iTXt
4162:_UNITY_png_write_zTXt
4163:_UNITY_png_write_tEXt
4164:_UNITY_png_write_IEND
4165:_UNITY_png_text_compress
4166:_UNITY_png_malloc_base
4167:_UNITY_png_chunk_error
4168:_UNITY_png_write_info_before_PLTE
4169:_UNITY_png_write_PLTE
4170:_UNITY_png_write_tRNS
4171:_UNITY_png_write_bKGD
4172:_UNITY_png_write_oFFs
4173:_UNITY_png_write_pCAL
4174:_UNITY_png_write_sCAL_s
4175:_UNITY_png_write_pHYs
4176:_UNITY_png_write_sPLT
4177:_UNITY_png_save_int_32
4178:_UNITY_png_app_warning
4179:_UNITY_png_write_sig
4180:_UNITY_png_write_IHDR
4181:_UNITY_png_write_gAMA_fixed
4182:_UNITY_png_write_iCCP
4183:_UNITY_png_write_sRGB
4184:_UNITY_png_write_sBIT
4185:_UNITY_png_write_cHRM_fixed
4186:_UNITY_png_check_IHDR
4187:_UNITY_png_default_write_data
4188:_UNITY_png_default_flush
4189:_UNITY_png_get_io_ptr
4190:_UNITY_png_malloc_warn
4191:_UNITY_png_destroy_info_struct
4192:_UNITY_png_free_buffer_list
4193:_UNITY_png_destroy_png_struct
4194:_UNITY_png_free_jmpbuf
4195:_UNITY_png_free_data
4196:_UNITY_png_create_png_struct
4197:_UNITY_png_set_mem_fn
4198:_UNITY_png_set_error_fn
4199:_UNITY_png_zalloc
4200:_UNITY_png_zfree
4201:__ZN5Image13ReformatImageERK14ImageReferenceii13TextureFormatNS0_8BlitModeE
4202:__ZN13RenderManager37RenderCamerasWithScriptableRenderLoopEi
4203:__Z16FindCameraStacksRKNSt3__24listI4PPtrI6CameraENS_9allocatorIS3_EEEERNS_6vectorI11CameraStackNS4_ISA_EEEE
4204:__ZN13RenderManager23AddRemoveCamerasDelayedEv
4205:__ZN25CameraStackRenderingState19BeginRenderingStackERK11CameraStackb
4206:__ZN25CameraStackRenderingState18EndStereoRenderingEv
4207:__ZN25CameraStackRenderingState16ReleaseResourcesEv
4208:__ZN13RendererScene17BeginCameraRenderEv
4209:__ZN25CameraStackRenderingState16SetCurrentCameraEP6Camera
4210:__ZN6Camera12RenderStereoENS_10RenderFlagE8CullFlagPNS_24PerformEyeRenderFunctionE
4211:__ZN6Camera4CullER11CullResults8CullFlag
4212:__ZN6Camera14UpdateVelocityEv
4213:__ZN6Camera6RenderER11CullResultsR17ShaderPassContextNS_10RenderFlagE
4214:__ZN6Camera26ClearIntermediateRenderersEj
4215:__ZN11CullResultsD2Ev
4216:__Z20SyncFenceCullResultsR11CullResults
4217:__ZN6Camera12CustomRenderER11CullResultsR17ShaderPassContextPK21CameraRenderingParamsNS_10RenderFlagEPNS_21PerformRenderFunctionE
4218:__ZN13RendererScene27SetPreventAddRemoveRendererEb
4219:__ZN6Camera26SetRenderTargetAndViewportEv
4220:__ZN11CullResults30GetOrCreateSharedRendererSceneEv
4221:__ZNK6Camera28ExtractCameraRenderingParamsEv
4222:__ZN23ScriptableRenderContext23ShouldUseRenderPipelineEv
4223:__ZN23ScriptableRenderContext31ExtractAndExecuteRenderPipelineERK13dynamic_arrayIP6CameraLj4EE
4224:__ZN6Camera19UpdateDepthTexturesERK11CullResultsRK19SharedRendererSceneNS_10RenderFlagE
4225:__ZN25CameraStackRenderingState16GetTargetTextureEv
4226:__ZN6Camera11SetupRenderER17ShaderPassContextRK21CameraRenderingParamsNS_10RenderFlagE
4227:__ZN6Camera8DoRenderER11CullResultsRK19SharedRendererSceneNS_10RenderFlagEPNS_21PerformRenderFunctionE
4228:__ZN6Camera18DoRenderPostLayersEPK11CullResultsR17ShaderPassContextNS_10RenderFlagE
4229:__Z18RenderImageFiltersR10RenderLoopb
4230:__ZN6Camera16DoRenderGUILayerER17ShaderPassContextNS_10RenderFlagE
4231:__ZNK19RenderEventsContext21ExecuteCommandBuffersEijR17ShaderPassContextR15RenderNodeQueueP19ProfilerInformationi
4232:__ZN6Camera21CleanupAfterRenderingEPK11CullResults
4233:__ZNK19RenderEventsContext21CleanupCommandBuffersEv
4234:__Z22CleanupAfterRenderLoopR10RenderLoop
4235:__Z19ClearShadowMapCacheP14ShadowMapCache
4236:__ZNSt3__26__treeINS_12__value_typeIi17ShadowCachingDataEENS_19__map_value_compareIiS3_NS_4lessIiEELb1EEE13stl_allocatorIS3_L18MemLabelIdentifier64ELi16EEE7destroyEPNS_11__tree_nodeIS3_PvEE
4237:__ZN9ShaderLab23ClearGrabPassFrameStateEv
4238:__ZN22RenderingCommandBuffer20CleanupCommandBufferEv
4239:__ZN15RenderNodeQueueD2Ev
4240:__ZN15RenderNodeQueue7CleanupEv
4241:__ZN19AtomicPageAllocatorD2Ev
4242:__ZN22RenderingCommandBuffer20ExecuteCommandBufferER17ShaderPassContextR15RenderNodeQueuejP13dynamic_arrayINSt3__24pairIN9ShaderLab16FastPropertyNameEP13RenderTextureEELj4EE
4243:__ZN6Camera23GetBuiltinRenderTextureE24BuiltinRenderTextureType
4244:__ZN8Material9GetShaderEv
4245:__ZN22RenderingCommandBuffer36AcquireAndRegisterSharedMaterialDataEP8Material
4246:__Z17SetupObjectMatrixRK10Matrix4x4fi
4247:__ZN4Mesh10CreateMeshEv
4248:__ZN22PerThreadPageAllocator14AcquireNewPageEj
4249:__ZN17MeshRenderingData4InitEP4MeshS1_iP15SharedGfxBufferS3_
4250:__ZN8DrawUtil31CleanupDrawMeshRawFromNodeQueueER15RenderNodeQueuej
4251:__Z20ComputeTransformTypeRK10Matrix4x4ff
4252:__ZNK17MeshRenderingData30ExtractMeshBuffersAndDrawRangeE17ShaderChannelMaskiR11MeshBuffersR16DrawBuffersRangeb
4253:__ZN8DrawUtil14DrawProceduralE16GfxPrimitiveTypeii
4254:__ZN8DrawUtil22DrawProceduralIndirectE16GfxPrimitiveType15ComputeBufferIDj
4255:__ZN17InstancedPropInfo9BuildFromERKN9ShaderLab11SubProgramsE
4256:__ZNK17InstancedPropInfo15RenderInstancesERK19ShaderPropertySheetRK11MeshBuffersRK16DrawBuffersRange17ShaderChannelMask
4257:__ZN13ComputeShader13SetValueParamERKN9ShaderLab16FastPropertyNameEiPKv
4258:__ZN22RenderingCommandBuffer13GetAndCheckRTE24BuiltinRenderTextureTypeRKN9ShaderLab16FastPropertyNameEPKcPP13RenderTexture
4259:__ZN13ComputeShader15SetTextureParamEjRKN9ShaderLab16FastPropertyNameE9TextureID16TextureDimension
4260:__ZN13ComputeShader14SetBufferParamEjRKN9ShaderLab16FastPropertyNameE15ComputeBufferID
4261:__ZN13ComputeShader21DispatchComputeShaderEjiii
4262:__ZN13ComputeShader21DispatchComputeShaderEj15ComputeBufferIDj
4263:__ZN13ComputeBuffer9CopyCountEPS_S0_j
4264:__Z28EnsureRenderTextureIsCreatedP13RenderTexture
4265:__Z11CopyTextureP7TextureS0_
4266:__Z11CopyTextureP7TextureiS0_i
4267:__Z11CopyTextureP7TextureiiS0_ii
4268:__Z11CopyTextureP7TextureiiiiiiS0_iiii
4269:__ZN8Material11HasPropertyEN9ShaderLab16FastPropertyNameE
4270:__ZN12ImageFilters4BlitER17ShaderPassContextP7TextureP13RenderTexture
4271:__ZN12ImageFilters4BlitER17ShaderPassContextP7TextureP13RenderTexturePK18SharedMaterialDataPKcP6ShaderiNS_9BlitFlagsE11CubemapFaceRK8Vector2fSH_
4272:__ZN19ShaderPropertySheet9SetMatrixEN9ShaderLab16FastPropertyNameERK10Matrix4x4fNS_8SetFlagsE
4273:__ZN19ShaderPropertySheet16SetArrayPropertyEN9ShaderLab16FastPropertyNameENS_12PropertyTypeEPKvj
4274:__ZN19ShaderPropertySheet16SetComputeBufferEN9ShaderLab16FastPropertyNameE15ComputeBufferIDNS_8SetFlagsE
4275:__Z27SetClippingPlaneShaderPropsR9GfxDevice
4276:__ZN13RenderTexture21SetShadowSamplingModeE18ShadowSamplingMode
4277:__ZL22SetCurrentRenderTargetP13RenderTextureNS_14SetActiveFlagsE11CubemapFace
4278:__ZN14GraphicsHelper8DrawQuadER9GfxDevice17ShaderChannelMaskbRK5RectTIfE
4279:__ZN16BlitStereoHelper16PrepareEyeRenderEiRK19ShaderPropertySheetRS0_bRK8Vector2fS6_
4280:__ZN19ShaderPropertySheet24SetTextureScaleAndOffsetEN9ShaderLab16FastPropertyNameE8Vector2fS2_
4281:__ZNK6Camera18GetRenderRectangleEv
4282:__ZN12ImageFilters24GetBlitCopyDepthMaterialEv
4283:__ZN12ImageFilters19GetBlitCopyMaterialEb
4284:__ZNK19ShaderPropertySheet11HasPropertyERKN9ShaderLab16FastPropertyNameE
4285:__ZL28CheckCopyTextureMipArgumentsP7TextureiiS0_ii
4286:__ZN9Texture2D18UnshareTextureDataEv
4287:__Z26CalculateImageMipLevelSizeii13TextureFormatj
4288:__ZN13ComputeShader14BeforeDispatchEj
4289:__ZN13ComputeShader20GetCompatibleVariantE17GfxDeviceRendereri
4290:__ZN19ComputeShaderKernelC2ERKS_
4291:__ZNSt3__26vectorI15ComputeShaderCBNS_9allocatorIS1_EEEC2ERKS4_
4292:__ZNSt3__26vectorI20ComputeShaderVariantNS_9allocatorIS1_EEE21__push_back_slow_pathIKS1_EEvRT_
4293:__ZN19ComputeShaderKernelD2Ev
4294:__ZNSt3__26vectorI20ComputeShaderVariantNS_9allocatorIS1_EEE26__swap_out_circular_bufferERNS_14__split_bufferIS1_RS3_EE
4295:__ZNSt3__214__split_bufferI20ComputeShaderVariantRNS_9allocatorIS1_EEED2Ev
4296:__ZNK22RenderingCommandBuffer10FindTempRTERKN9ShaderLab16FastPropertyNameE
4297:__ZNK17InstancedPropInfo14FindPropertiesER13dynamic_arrayINS_12PropertyDataELj4EERjS3_S4_RK19ShaderPropertySheet
4298:__ZN19ShaderPropertySheet18ReserveValueBufferEj
4299:__ZN19ShaderPropertySheet29PreallocateArrayUninitializedEN9ShaderLab16FastPropertyNameENS_12PropertyTypeEj
4300:__ZN13sorted_vectorINSt3__24pairIiN17InstancedPropInfo12PropertyTypeEEEN10vector_mapIiS3_NS0_4lessIiEE13stl_allocatorIS4_L18MemLabelIdentifier1ELi16EEE13value_compareESA_E21sort_clear_duplicatesEv
4301:__ZNSt3__213__stable_sortIRN10vector_mapIiN17InstancedPropInfo12PropertyTypeENS_4lessIiEE13stl_allocatorINS_4pairIiS3_EEL18MemLabelIdentifier1ELi16EEE13value_compareENS_11__wrap_iterIPS8_EEEEvT0_SH_T_NS_15iterator_traitsISH_E15difference_typeEPNSK_10value_typeEi
4302:__ZNSt3__218__stable_sort_moveIRN10vector_mapIiN17InstancedPropInfo12PropertyTypeENS_4lessIiEE13stl_allocatorINS_4pairIiS3_EEL18MemLabelIdentifier1ELi16EEE13value_compareENS_11__wrap_iterIPS8_EEEEvT0_SH_T_NS_15iterator_traitsISH_E15difference_typeEPNSK_10value_typeE
4303:__ZNSt3__215__inplace_mergeIRN10vector_mapIiN17InstancedPropInfo12PropertyTypeENS_4lessIiEE13stl_allocatorINS_4pairIiS3_EEL18MemLabelIdentifier1ELi16EEE13value_compareENS_11__wrap_iterIPS8_EEEEvT0_SH_SH_T_NS_15iterator_traitsISH_E15difference_typeESL_PNSK_10value_typeEi
4304:__ZNK17MeshRenderingData18ExtractMeshBuffersE17ShaderChannelMaskR11MeshBuffersbb
4305:__ZN17MeshRenderingData7ReleaseEv
4306:__ZN19AtomicPageAllocator12AllocatePageEj
4307:__Z11FormatBytesx
4308:__Z12FormatStringPKcz
4309:__Z13VFormatBufferPciPKcPi
4310:__ZN4Mesh15UnshareMeshDataEv
4311:__Z27ConvertSubMeshesToTrianglesR13dynamic_arrayI7SubMeshLj4EERS_ItLj2EE
4312:__ZN23SharedMeshRenderingData18UnloadVertexStreamEi
4313:__ZN23SharedMeshRenderingData25CreateOrUpdateIndexBufferERK13GfxBufferDescPKv20GfxUpdateBufferFlags
4314:__ZN23SharedMeshRenderingData17UnloadIndexBufferEv
4315:__ZN18VertexChannelsInfoC2ERA8_K11ChannelInfo
4316:__ZN13MemoryManager27GetCorrespondingThreadLabelE18MemLabelIdentifier
4317:__ZN14SharedMeshDataC2ERKS_
4318:__ZN16MeshSkinningDataC2ERKS_
4319:__ZN10VertexDataC2ERKS_17ShaderChannelMask18MemLabelIdentifier
4320:__ZN14VertexDataInfo13UpdateStreamsEj17ShaderChannelMaskS0_RK19VertexStreamsLayoutRK20VertexChannelsLayout
4321:__ZL12CopyChannelsj17ShaderChannelMaskRA4_K10StreamInfoRA8_K11ChannelInfoPKhS3_S7_Ph
4322:__Z43IsVertexFormatCompatibleWithDynamicBatchingRK14VertexDataInfo
4323:__ZN14SharedMeshDataD2Ev
4324:__ZN14SharedMeshDataD0Ev
4325:__ZN10VertexDataD2Ev
4326:__ZN8Material25AcquireSharedMaterialDataEv
4327:__ZN22PerThreadPageAllocatorC2ER19AtomicPageAllocator
4328:__ZN15RenderNodeQueueC2E18MemLabelIdentifier
4329:__ZN19AtomicPageAllocatorC2EPKc18MemLabelIdentifier
4330:__ZN8GUILayer14RenderGUILayerE5RectTIfEjR17ShaderPassContext
4331:__ZN11delayed_setI4PPtrI10GUIElementENSt3__23setIS2_NS3_4lessIS2_EE11memory_poolIS2_EEEE13apply_delayedEv
4332:__ZNSt3__26vectorIP10GUIElement13stl_allocatorIS2_L18MemLabelIdentifier1ELi16EEE18__construct_at_endINS_21__tree_const_iteratorI4PPtrIS1_EPNS_11__tree_nodeISA_PvEEiEEEENS_9enable_ifIXsr21__is_forward_iteratorIT_EE5valueEvE4typeESH_SH_j
4333:__Z14SortGUIByDepthP10GUIElementS0_
4334:__ZNSt3__26__sortIRPFbP10GUIElementS2_EPS2_EEvT0_S7_T_
4335:__ZNSt3__27__sort4IRPFbP10GUIElementS2_EPS2_EEjT0_S7_S7_S7_T_
4336:__ZNSt3__218__insertion_sort_3IRPFbP10GUIElementS2_EPS2_EEvT0_S7_T_
4337:__ZNSt3__227__insertion_sort_incompleteIRPFbP10GUIElementS2_EPS2_EEbT0_S7_T_
4338:__ZNK9Transform16GetLocalPositionEv
4339:__ZNSt3__26__treeI4PPtrI10GUIElementENS_4lessIS3_EE11memory_poolIS3_EE5eraseENS_21__tree_const_iteratorIS3_PNS_11__tree_nodeIS3_PvEEiEE
4340:__ZNK12ImageFilters23ApplyAfterOpaqueFiltersEv
4341:__ZNK12ImageFilters28ApplyAfterTransparentFiltersEv
4342:__ZN6Camera11SetupRenderER17ShaderPassContextNS_10RenderFlagE
4343:__ZNK25CameraStackRenderingState27GetStereoImageEffectTextureEb
4344:__ZNK19StereoRenderTexture13GetEyeTextureE15StereoscopicEye
4345:__ZNK25CameraStackRenderingState21GetImageEffectTextureEb
4346:__ZNK12ImageFilters8DoRenderER17ShaderPassContextP13RenderTextureS3_NSt3__26vectorI11ImageFilterNS4_9allocatorIS6_EEEE
4347:__ZNK25CameraStackRenderingState25GetAfterFinalCameraTargetEv
4348:__ZL13DiscardTargetP13RenderTexture
4349:__Z13IsHDRRTFormat19RenderTextureFormat
4350:__ZN19RenderBufferManager13GetTempBufferEii17DepthBufferFormat19RenderTextureFormatji22RenderTextureReadWrite14VRTextureUsagei
4351:__ZN10Matrix4x4f8SetScaleERK8Vector3f
4352:__ZNK9Transform28GetWorldToLocalMatrixNoScaleEv
4353:__ZN11HaloManager11RenderHalosEPK11CullResultsR17ShaderPassContextRK10Matrix4x4f
4354:__ZN12FlareManager12RenderFlaresERK10Matrix4x4f
4355:__ZN13RenderManager29InvokeOnRenderObjectCallbacksEv
4356:__ZN13MonoBehaviour20InvokeOnRenderObjectEv
4357:__ZN13MonoBehaviour30InvokeMethodOrCoroutineCheckedE18ScriptingMethodPtr18ScriptingObjectPtr
4358:__ZN13MonoBehaviour30InvokeMethodOrCoroutineCheckedE18ScriptingMethodPtr18ScriptingObjectPtrP21ScriptingExceptionPtr
4359:__Z11IsCoroutine18ScriptingMethodPtrRK22CommonScriptingClasses
4360:__ZN13MonoBehaviour24TryCreateAndRunCoroutineE18ScriptingObjectPtr18ScriptingMethodPtrPP9Coroutine
4361:__Z35scripting_object_get_virtual_method18ScriptingObjectPtr18ScriptingMethodPtr
4362:__ZN9Coroutine17SetMoveNextMethodE18ScriptingMethodPtr
4363:__ZN9Coroutine16SetCurrentMethodE18ScriptingMethodPtr
4364:__ZN9Coroutine3RunEPb
4365:__ZN9Coroutine16CleanupCoroutineEPv
4366:__ZN14AsyncOperation20SetCoroutineCallbackEPF15CallObjectStateP6ObjectPvES2_S3_PFS0_S3_E
4367:__ZN9Coroutine14InvokeMoveNextEP21ScriptingExceptionPtr
4368:__ZN9Coroutine23ProcessCoroutineCurrentEv
4369:__ZN9Coroutine17ContinueCoroutineEP6ObjectPv
4370:__Z11CallDelayedPF15CallObjectStateP6ObjectPvE4PPtrIS0_EfS2_fPFS_S2_EN18DelayedCallManager15DelayedCallModeE
4371:__ZN9Coroutine35HandleIEnumerableCurrentReturnValueE18ScriptingObjectPtr
4372:__ZN3WWW12CallWhenDoneEPF15CallObjectStateP6ObjectPvES2_S3_PFS0_S3_E
4373:__ZN12WWWDelayCall8CallbackEP6ObjectPv
4374:__ZN12WWWDelayCall7CleanupEPv
4375:__ZN12WWWDelayCall14MatchForCancelEPvS0_
4376:__ZN18DelayedCallManager17CancelCallDelayedE4PPtrI6ObjectEPF15CallObjectStatePS1_PvEPFbS5_S5_ES5_
4377:__ZN18DelayedCallManager6RemoveERKNS_8CallbackENSt3__221__tree_const_iteratorIS0_PNS3_11__tree_nodeIS0_PvEEiEE
4378:__ZN18ScriptingArguments9AddIntPtrEPv
4379:__ZN9CoroutineC2Ev
4380:__Z23scripting_type_get_type16ScriptingTypePtr
4381:__Z20scripting_object_new17ScriptingClassPtr
4382:__ZNK21BuiltinShaderSettings22CreateMaterialIfNeededEPP8Materiali
4383:__ZNK6Shader23GetActiveSubShaderIndexEv
4384:__ZN13RenderManager16GetCurrentCameraEv
4385:__ZN12FlareManager6UpdateEv
4386:__ZN12FlareManager17RenderGeometryJobEP25DynamicVBOGeometryJobDataj
4387:__ZN12FlareManager21ReleaseGeometryJobMemEP25DynamicVBOGeometryJobData
4388:__ZN14RenderSettings13CalcFogFactorEff
4389:__Z23SetupStereoFlareElementP11FlareVertexRK8Vector2fS3_S3_RK11ColorRGBA32RK10Matrix4x4fRK8Vector3fb
4390:__Z20LookRotationToMatrixRK8Vector3fS1_P10Matrix3x3f
4391:__ZN12FlareManager9UpdateJobEP25FlareManagerUpdateJobData
4392:__ZNK6Camera18WorldToScreenPointERK8Vector3fPb
4393:__Z31ScheduleDifferentJobsConcurrentR8JobFencePK3Jobi11JobPriority
4394:__ZNK6Camera20GetWorldToClipMatrixEv
4395:__Z13CameraProjectRK8Vector3fRK10Matrix4x4fS4_RK5RectTIiERS_b
4396:__ZN8Material9SetShaderEP6Shader
4397:__ZN11HaloManager17RenderGeometryJobEP25DynamicVBOGeometryJobDataj
4398:__Z28GetHaloVertexPositionsStereoP8Vector3fRKS_S2_f
4399:__Z34CalculateGlobalPositionAndRotation23TransformAccessReadOnlyRKN4math7_float3ERKNS0_7_float4E
4400:__Z27InitializeRenderLoopContextP6CameraRK19SharedRendererSceneP10RenderLoop
4401:__ZNK6Camera32ResolveLastTargetToCurrentTargetEv
4402:__ZN6Camera21PostMultiCustomRenderENS_10RenderFlagEb
4403:__ZN17RenderLoopContextD2Ev
4404:__ZN17RenderLoopContextD0Ev
4405:__ZN6Camera20SetCameraShaderPropsER17ShaderPassContextRK21CameraRenderingParams
4406:__ZN21BillboardBatchManager23SetBillboardShaderPropsER16ShaderKeywordSetR24BuiltinShaderParamValuesbRK10Matrix4x4fRK8Vector3f
4407:__ZL28CalculateBillboardPropertiesRK10Matrix4x4fR8Vector3fS3_Rf
4408:__ZN10Matrix4x4f9TransposeEv
4409:__ZNK19StereoRenderTexture7IsEmptyEv
4410:__ZN19StereoRenderTexture12AllocateTempER17RenderTextureDesc
4411:__ZNK6Camera22CalculateRenderingPathEv
4412:__Z16ShouldUseShadowsb
4413:__ZN6Camera18RenderDepthTextureERK11CullResultsRK19SharedRendererSceneR17ShaderPassContextNS_10RenderFlagE
4414:__ZN6Camera25RenderDepthNormalsTextureERK11CullResultsRK19SharedRendererSceneR17ShaderPassContextNS_10RenderFlagE
4415:__Z28RenderSceneShaderReplacementRK19SharedRendererSceneP6ShaderRKN4core12basic_stringIcNS4_20StringStorageDefaultIcEEEER17ShaderPassContext
4416:__ZN15ReplacementPass7PrepareER6CameraRK15RenderNodeQueueRK17ShaderReplaceData
4417:__ZN15ReplacementPass16PerformRenderingER17ShaderPassContext
4418:__ZN14qsort_internal18QSortSingleJobDataIP17RODataReplacementi19ROSorterReplacementE7SortJobEPS4_
4419:__Z26ScheduleJobDependsInternalR8JobFencePFvPvES1_RKS_11JobPriority
4420:__ZL18ReplacementPassJobPN21GfxDeviceAsyncCommand10ArgScratchEPKNS_3ArgE
4421:__ZN29DepthOrReplacementPassScratchD2Ev
4422:__ZN29DepthOrReplacementPassScratchD0Ev
4423:__ZN21GfxDeviceAsyncCommand10ArgScratch15ThreadedCleanupEv
4424:__ZN13BatchRendererD2Ev
4425:__Z12SetupLODFadeR9GfxDeviceR17ShaderPassContextf
4426:__Z21SetupOddNegativeScaleR9GfxDeviceb
4427:__ZN13BatchRenderer20RenderSingleWithPassER17ShaderPassContextPK18SharedMaterialDataP6ShaderPN9ShaderLab4PassEiPKNS7_10GrabPassesEjib15BatchBreakCause
4428:__ZN17InstancedPropInfo5ClearEv
4429:__Z37ApplyMaterialPassAndKeywordsWithCacheRK18SharedMaterialDataR17ShaderPassContextP6ShaderPN9ShaderLab4PassEibPKNS6_10GrabPassesEPNS6_11SubProgramsE
4430:__ZN20DynamicPropertySheet10FlushQueueEv
4431:__ZN20DynamicPropertySheetD2Ev
4432:__ZN20DynamicPropertySheetD0Ev
4433:__ZNK20DynamicPropertySheet7IsDirtyEv
4434:__ZN13BatchRendererC2ER15RenderLoopStatsRK15RenderNodeQueuebbb
4435:__ZN14qsort_internal5QSortIP17RODataReplacementi19ROSorterReplacementEEvT_S4_T0_T1_
4436:__ZN14qsort_internal13Partition3WayIP17RODataReplacementi19ROSorterReplacementEENSt3__24pairIT_S6_EES6_S6_T0_T1_
4437:__ZNSt3__211__sift_downIR19ROSorterReplacementP17RODataReplacementEEvT0_S5_T_NS_15iterator_traitsIS5_E15difference_typeES5_
4438:__ZN14qsort_internal30FindAndMovePivotToLastPositionIP17RODataReplacementi19ROSorterReplacementEEvT_S4_T0_T1_
4439:__ZN14qsort_internal17MedianOfThreeSwapIP17RODataReplacement19ROSorterReplacementEEvT_S4_S4_T0_
4440:__ZNK6Camera22GetWorldToCameraMatrixEv
4441:__ZN15ReplacementPass13PrepareSubsetEjRK10RenderNodeifRK17ShaderReplaceData
4442:__Z28CalculateSubShaderIndexToUsePK6ShaderRK17ShaderReplaceDataRK18SharedMaterialData
4443:__ZNK9ShaderLab9IntShader6GetTagE11ShaderTagIDb
4444:__ZNK6Shader24GetSubShaderWithTagValueE11ShaderTagIDS0_
4445:__ZN15ReplacementPassD2Ev
4446:__ZN15ReplacementPassD0Ev
4447:__Z20RenderSceneDepthPassRK19SharedRendererSceneRK17ShaderReplaceDatabR17ShaderPassContext
4448:__ZN9DepthPass7PrepareER6CameraRK15RenderNodeQueueRK17ShaderReplaceDatab
4449:__ZN9DepthPass16PerformRenderingER17ShaderPassContext
4450:__ZN14qsort_internal18QSortSingleJobDataIP15RODataDepthPassi17ROSorterDepthPassE7SortJobEPS4_
4451:__ZL12DepthPassJobPN21GfxDeviceAsyncCommand10ArgScratchEPKNS_3ArgE
4452:__Z18SetShadowsKeywordsR17ShaderPassContext9LightType10ShadowType16ShadowProjectionbb
4453:__ZN13BatchRenderer12EndLoopFlushEv
4454:__ZNK6Shader24GetShadowCasterPassToUseEiRi
4455:__ZN12LODFadeCache14ApplyValueOnlyEf
4456:__ZNK17InstancedPropInfo14IsInstanceableERK19ShaderPropertySheet
4457:__ZN13BatchRenderer5FlushE15BatchBreakCause
4458:__Z19SetupLODFadeKeywordR17ShaderPassContexti
4459:__ZN13BatchRenderer15ApplyShaderPassER17ShaderPassContextPK18SharedMaterialDataP6ShaderPN9ShaderLab4PassEi13BatchingFlagsbPKNS7_10GrabPassesE
4460:__ZN13BatchRenderer3AddERK17BatchInstanceData
4461:__ZN13BatchRenderer11RenderBatchEPK17BatchInstanceDataj17ShaderChannelMask
4462:__ZN20DynamicPropertySheet15SetVectorQueuedERKN9ShaderLab16FastPropertyNameERK8Vector4fN19ShaderPropertySheet8SetFlagsE
4463:__ZN20DynamicPropertySheet14SetValueQueuedEN9ShaderLab16FastPropertyNameEN19ShaderPropertySheet12PropertyTypeEjNS2_8SetFlagsE
4464:__ZN12LODFadeCacheC2ER13BatchRenderer
4465:__ZN14qsort_internal5QSortIP15RODataDepthPassi17ROSorterDepthPassEEvT_S4_T0_T1_
4466:__ZN14qsort_internal30FindAndMovePivotToLastPositionIP15RODataDepthPassi17ROSorterDepthPassEEvT_S4_T0_T1_
4467:__ZN9DepthPass13PrepareSubsetEjRK10RenderNodeifRK17ShaderReplaceData
4468:__ZN9DepthPassD2Ev
4469:__ZN9DepthPassD0Ev
4470:__ZN15QualitySettings29GetShadowDistanceForRenderingEv
4471:__ZN9Scripting32GetScriptingWrapperForInstanceIDEi
4472:__ZN23ScriptableRenderContextC2Ev
4473:__Z36CreateScriptingArrayFromUnityObjectsI13dynamic_arrayIP6CameraLj4EEE17ScriptingArrayPtrRKT_17ScriptingClassPtr
4474:__ZN18ScriptingArguments8AddArrayE17ScriptingArrayPtr
4475:__ZN23ScriptableRenderContextD2Ev
4476:__ZN22RenderingCommandBuffer23CleanupTemporaryRTArrayER13dynamic_arrayINSt3__24pairIN9ShaderLab16FastPropertyNameEP13RenderTextureEELj4EE
4477:__Z19scripting_array_new17ScriptingClassPtrjj
4478:__Z21GetScriptingArraySize17ScriptingArrayPtr
4479:__ZN9Scripting34SetScriptingArrayObjectElementImplE17ScriptingArrayPtri18ScriptingObjectPtr
4480:__Z27scripting_array_element_ptr17ScriptingArrayPtrij
4481:__ZN22PerThreadPageAllocator10InitializeER19AtomicPageAllocator
4482:__ZN22PerThreadPageAllocatorC2Ev
4483:__Z22ExtractRenderNodeQueueRK11CullResults15ExtractionFlagsR15RenderNodeQueue
4484:__Z16CopyActiveLightsRK12ActiveLightsRS_
4485:__Z22CullAllPerObjectLightsiRK15RenderNodeQueueRK12ActiveLightsR27PerObjectLightCullingOutput
4486:__Z19GetReflectionProbesv
4487:__ZN23ReflectionProbesContext8CopyFromERKS_
4488:__ZN28LightProbeProxyVolumeContext8CopyFromERKS_
4489:__ZNK16LightmapSettings17AcquireSharedDataEv
4490:__Z22GetSortingGroupManagerv
4491:__ZN19SortingGroupManager6CopyToER13dynamic_arrayI16SortingGroupDataLj4EE
4492:__ZL25CullAllPerObjectLightsJobP29CullAllPerObjectLightsJobDataj
4493:__ZL32CullAllPerObjectLightsCombineJobP29CullAllPerObjectLightsJobData
4494:__ZN13dynamic_arrayI11CulledLightLj4EE6insertEPS0_PKS0_S4_
4495:__Z29HasBakedDirectLightInLightmap21LightmapModeForRender
4496:__ZL8AddLightRK12ActiveLightsRK8Vector3fiR13dynamic_arrayI11CulledLightLj4EE
4497:__ZL17IsSpotLightCulledRK11ActiveLightibRK4AABBS4_RK10Matrix4x4f
4498:__Z19IntersectAABBSphereRK4AABBRK6Sphere
4499:__Z30IntersectTransformedAABBSphereRK4AABBRK10Matrix4x4f13TransformTypeRK6Sphere
4500:__ZNSt3__26__sortIRNS_6__lessI11CulledLightS2_EEPS2_EEvT0_S6_T_
4501:__ZNSt3__27__sort4IRNS_6__lessI11CulledLightS2_EEPS2_EEjT0_S6_S6_S6_T_
4502:__ZNSt3__227__insertion_sort_incompleteIRNS_6__lessI11CulledLightS2_EEPS2_EEbT0_S6_T_
4503:__ZN10Matrix4x4f8SetBasisERK8Vector3fS2_S2_
4504:__Z17IntersectAABBAABBRK4AABBS1_
4505:__ZN10Matrix4x4f19SetPerspectiveCotanEfff
4506:__Z24IntersectAABBFrustumFullRK4AABBPK5Plane
4507:__Z20LightAttenuateApproxRKfS0_
4508:__Z21GetRenderModeSortBias15LightRenderMode
4509:__Z26BeginRenderQueueExtractionR15RenderNodeQueuePK16RendererCullDataRK13CullingOutputPK12LODDataArray15ExtractionFlagsP18JobBatchDispatcher
4510:__Z24EndRenderQueueExtractionP29RenderNodeQueuePrepareContext
4511:__ZL40PrepareRenderNodesOnMainThreadDeprecatedR35RenderNodeQueuePrepareThreadContext
4512:__ZN9Projector17PrepareRenderNodeEjjPS_R15RenderNodeQueueR22PerThreadPageAllocator
4513:__ZNK6Camera20GetReplacementShaderEv
4514:__ZN9Projector22SetupProjectorSettingsEP8MaterialR23ProjectorRenderSettings
4515:__Z16Projector_RenderRK15RenderNodeQueuejR17ShaderPassContext
4516:__Z17Projector_CleanupR15RenderNodeQueuej
4517:__ZN10Matrix4x4f14SetPerspectiveEffff
4518:__ZN15LODGroupManager16CalculateLODFadeEjhf
4519:__ZN29RenderNodeQueuePrepareContextC2Ev
4520:__ZL21ExecuteRenderQueueJobP29RenderNodeQueuePrepareContextj
4521:__ZL20CopyNodesIntoJobGapsP29RenderNodeQueuePrepareContext
4522:__ZN18JobBatchDispatcher26ScheduleJobForEachInternalER8JobFencePFvPvjES2_iPFvS2_ERKS0_
4523:__Z16RecordForEachJobPFvPvjES_jPFvS_ER21SingleThreadedJobInfo
4524:__ZL35PrepareRenderNodesQueueToMainThreadR35RenderNodeQueuePrepareThreadContext
4525:__Z28QueuePrepareNodeToMainThreadR35RenderNodeQueuePrepareThreadContext
4526:__ZN28LightProbeProxyVolumeContextC2E18MemLabelIdentifier
4527:__ZN16ReflectionSampleC2Ev
4528:__ZN19SharedRendererSceneD2Ev
4529:__ZN19SharedRendererSceneD0Ev
4530:__ZN6Camera18ApplyRenderTextureEv
4531:__ZN6Camera28DefaultPerformRenderFunctionclEPS_13RenderingPathP11CullResults
4532:__Z12DoRenderLoopR10RenderLoop13RenderingPathR11CullResultsR14ShadowMapCacheb
4533:__ZN10RenderLoop12PrepareFrameEbb
4534:__Z19EvaluateObjectDepthRK17RenderLoopContextRK4AABBfRfS5_
4535:__ZNK9ShaderLab9IntShader14GetRenderQueueEi
4536:__Z19DoPrePassRenderLoopR17RenderLoopContextR13dynamic_arrayI16RenderObjectDataLj4EES4_RK11CullResultsRP13RenderTextureSA_Pb
4537:__ZL44RenderRemainingObjectsThatCantHandleDeferred13RenderingPathR17RenderLoopContextRK11CullResultsbP13RenderTextureS6_R13dynamic_arrayI16RenderObjectDataLj4EE
4538:__Z20DoDeferredRenderLoopR17RenderLoopContextR13dynamic_arrayI16RenderObjectDataLj4EES4_RK11CullResultsRP13RenderTextureSA_Pb
4539:__Z25DoForwardShaderRenderLoopR17RenderLoopContextR13dynamic_arrayI16RenderObjectDataLj4EERK11CullResultsbbbN6Camera10RenderFlagE
4540:__ZN6Camera12RenderSkyboxEv
4541:__Z24DoMotionVectorRenderLoopR17RenderLoopContext
4542:__ZNK6Camera16SetActiveVRUsageEv
4543:__ZNK6Camera30GetNonJitteredProjectionMatrixEv
4544:__ZL25UpdateCameraDepthTexturesR17RenderLoopContextP13RenderTextureS2_RK13dynamic_arrayI16RenderObjectDataLj4EEbbbR17ShaderPassContext
4545:__Z20RenderSceneDepthPassRK13dynamic_arrayI16RenderObjectDataLj4EERK19SharedRendererSceneRK17ShaderReplaceDatabR17ShaderPassContext
4546:__ZN16GraphicsSettings24GetBuiltinShaderSettingsENS_17BuiltinShaderTypeE
4547:__ZN15ReplacementPass7PrepareER6CameraRK13dynamic_arrayI16RenderObjectDataLj4EERK15RenderNodeQueueRK17ShaderReplaceData
4548:__ZN9DepthPass7PrepareER6CameraRK13dynamic_arrayI16RenderObjectDataLj4EERK15RenderNodeQueueRK17ShaderReplaceDatab
4549:__Z21SupportsMotionVectorsv
4550:__ZNK6Shader11IsSupportedEv
4551:__ZN25CameraStackRenderingState20GetOrCreateBuiltinRTE24BuiltinRenderTextureTypeii17DepthBufferFormat19RenderTextureFormatj22RenderTextureReadWrite14VRTextureUsagei
4552:__ZNK6Camera16GetProjectionFarEv
4553:__ZN8Material9SetMatrixEN9ShaderLab16FastPropertyNameERK10Matrix4x4f
4554:__ZNK6Camera17GetProjectionNearEv
4555:__Z20RenderFullScreenQuadR9GfxDeviceRK6Camera17ShaderChannelMaskRK5RectTIfEf21MonoOrStereoscopicEye
4556:__ZN14qsort_internal18QSortSingleJobDataIP18RPDataMotionVectoriN22MotionVectorRenderLoop18RenderObjectSorterEE7SortJobEPS5_
4557:__ZN22MotionVectorRenderLoop16PerformRenderingER8JobFence
4558:__Z20CompareApproximatelyRK10Matrix4x4fS1_f
4559:__ZL25MotionVectorRenderLoopJobPN21GfxDeviceAsyncCommand10ArgScratchEPKNS_3ArgE
4560:__ZN29MotionVectorRenderLoopScratchD2Ev
4561:__ZN29MotionVectorRenderLoopScratchD0Ev
4562:__ZN29MotionVectorRenderLoopScratch15ThreadedCleanupEv
4563:__ZN14qsort_internal5QSortIP18RPDataMotionVectoriN22MotionVectorRenderLoop18RenderObjectSorterEEEvT_S5_T0_T1_
4564:__ZN14qsort_internal13Partition3WayIP18RPDataMotionVectoriN22MotionVectorRenderLoop18RenderObjectSorterEEENSt3__24pairIT_S7_EES7_S7_T0_T1_
4565:__ZNSt3__211__sift_downIRN22MotionVectorRenderLoop18RenderObjectSorterEP18RPDataMotionVectorEEvT0_S6_T_NS_15iterator_traitsIS6_E15difference_typeES6_
4566:__ZN14qsort_internal13InsertionSortIP18RPDataMotionVectorN22MotionVectorRenderLoop18RenderObjectSorterEEEvT_S5_T0_
4567:__ZN14qsort_internal30FindAndMovePivotToLastPositionIP18RPDataMotionVectoriN22MotionVectorRenderLoop18RenderObjectSorterEEEvT_S5_T0_T1_
4568:__ZN14qsort_internal17MedianOfThreeSwapIP18RPDataMotionVectorN22MotionVectorRenderLoop18RenderObjectSorterEEEvT_S5_S5_T0_
4569:__ZN22MotionVectorRenderLoopD2Ev
4570:__ZN22MotionVectorRenderLoopD0Ev
4571:__ZN27DeviceViewProjMatricesStateD2Ev
4572:__ZNK6Camera21ViewportToCameraPointERK8Vector3f
4573:__ZN27DeviceViewProjMatricesStateC2ER9GfxDevice
4574:__ZNK6Camera17GetSkyboxMaterialEv
4575:__ZN6Skybox12RenderSkyboxEP8MaterialRK6Camera
4576:__ZNK6Camera6GetFarEv
4577:__ZNK6Camera11GetPositionEv
4578:__ZNK6Camera7GetNearEv
4579:__ZNK6Camera25GetSkyboxProjectionMatrixEfR10Matrix4x4f
4580:__ZN6Skybox8SetupSunERK6CameraR9GfxDevice
4581:__ZNK8Material12GetPassCountEv
4582:__ZN6Skybox16RenderSingleFaceEP8Materiali
4583:__ZN6Skybox14RenderAllFacesEP8Material
4584:__ZN15SkyboxGenerator18GetCubemapSkyboxVBEv
4585:__Z30AddDefaultStreamsToMeshBuffersR9GfxDeviceR11MeshBuffersRK16DrawBuffersRange17ShaderChannelMaskS6_
4586:__ZNK14RenderSettings6GetSunEv
4587:__Z28SetupVertexLightShaderParamsiPK14GfxVertexLightR17ShaderPassContext
4588:__ZN28ApplyBuiltinInstanceProperty4InitER9GfxDevice
4589:__Z14SetSHConstantsR28ApplyBuiltinInstancePropertyRK20SphericalHarmonicsL2
4590:__ZN28ApplyBuiltinInstanceProperty23PerformSubmitPropertiesEv
4591:__Z16ApplySHConstantsI28ApplyBuiltinInstancePropertyEvRT_RK20SphericalHarmonicsL2
4592:__ZN20SphericalHarmonicsL234GetShaderConstantsFromNormalizedSHERKS_RA7_8Vector4f
4593:__Z29FindBrightestDirectionalLightb
4594:__ZNK15SharedLightData29GetLightmappingMaskForRuntimeEv
4595:__ZN10Matrix4x4f16AdjustDepthRangeEfff
4596:__ZNK6Skybox11GetMaterialEv
4597:__ZNK6Camera21CalculateCanDoShadowsEv
4598:__Z23GetCurrentRenderOptionsv
4599:__ZN23ForwardShaderRenderLoop17PrepareShadowMapsEPK11ActiveLightRK11CullResults
4600:__Z30IsUsingLightProbesForRenderingRK18SharedRendererDatabb
4601:__Z33CalculateLightShadowCenterAndTypeRK13ShadowJobDataR8Vector4fRfS4_
4602:__Z24CalculateLightShadowFadeRK6CamerafffR8Vector4f
4603:__Z26FindForwardLightsForObjectR13dynamic_arrayIhLj1EEPK11CulledLightjRK12ActiveLightsRK10RenderNodebRK23FindForwardLightsParamsf
4604:__Z25IsObjectWithinShadowRangeRK13ShadowJobDataRK4AABB
4605:__ZL24PutAdditionalShadowLightRK4AABBRK11ActiveLightRK10Matrix4x4ffR13dynamic_arrayI16ForwardShadowMapLj4EE
4606:__ZN9ShaderLab10GrabPasses3AddEPNS_4PassEPK6Camera
4607:__ZN14qsort_internal18QSortSingleJobDataIP21ForwardRenderPassDataiN23ForwardShaderRenderLoop18RenderObjectSorterILb1EEEE7SortJobEPS6_
4608:__ZN14qsort_internal18QSortSingleJobDataIP21ForwardRenderPassDataiN23ForwardShaderRenderLoop18RenderObjectSorterILb0EEEE7SortJobEPS6_
4609:__ZN23ForwardShaderRenderLoop16PerformRenderingER8JobFencePK11ActiveLightRK13ShadowJobDatabbbN6Camera10RenderFlagE
4610:__ZN23ForwardShaderRenderLoop23RenderForwardShadowMapsEPK11ActiveLightbN6Camera10RenderFlagERK13ShadowJobDataR17ShaderPassContext
4611:__ZNK16LightmapSettings23GetLightmapDecodeValuesEv
4612:__ZNK16LightmapSettings31GetRealtimeLightmapDecodeValuesEv
4613:__Z14SetupLightmapsRK8Vector4fS1_R17ShaderPassContext
4614:__ZN6Camera13ClearNoSkyboxEb
4615:__ZNK14RenderSettings12SetupAmbientEv
4616:__ZN6Camera26InvokeRenderPlaneCallbacksENS_11RenderPlaneE
4617:__ZNK14RenderSettings20GetDefaultSpotCookieEv
4618:__ZN10builtintex21GetAttenuationTextureEv
4619:__ZN23ForwardShaderRenderLoop15StartRenderJobsER8JobFenceb14ShadowMaskModeR17ShaderPassContext
4620:__ZN23ForwardShaderRenderLoop21CleanupAfterRenderingEv
4621:__ZL24AssignProjectorQueuesJobP30AssignProjectorQueuesJobHeader
4622:__ZL20ForwardRenderLoopJobPN21GfxDeviceAsyncCommand10ArgScratchEPKNS_3ArgE
4623:__Z20SetNoShadowsKeywordsR17ShaderPassContext
4624:__Z16ClearScissorRectbRK5RectTIiER9GfxDevice
4625:__ZNK18ForwardLightsBlock7CompareERKS_
4626:__ZN15LightmapSTCache5ApplyERK10RenderNode
4627:__Z14SetSHConstantsR13BatchRendererRK20SphericalHarmonicsL2
4628:__Z25SetLightProbeProxyVolumesR13BatchRendererRK27LightProbeProxyVolumeSampleb
4629:__Z19GetReflectionSampleRK23ReflectionProbesContextRK10RenderNodeRK16ReflectionSamplePS5_
4630:__Z14SetReflectionsR13BatchRendererRK16ReflectionSample
4631:__Z20SetupForwardAddLightRK15SharedLightDatafR17ShaderPassContextRK10TextureRefS6_S6_
4632:__Z25SetupObjectBakedOcclusionbRK15SharedLightDataRK26SharedLightmapSettingsDataRK15LightmapIndicesR17ShaderPassContext
4633:__Z19SetLightScissorRectPK5RectTIfEbRS1_biiR9GfxDevice
4634:__ZNK23ForwardShaderRenderLoop19SetLightShadowPropsERK15SharedLightDataRK10TextureRefRK10Matrix4x4fR17ShaderPassContext
4635:__Z22SetupForwardBaseLightsRK18ForwardLightsBlockR17ShaderPassContextRK10TextureRefS6_
4636:__Z17SetupVertexLightsRK18ForwardLightsBlockR17ShaderPassContext
4637:__Z20SetupObjectLightmapsRK26SharedLightmapSettingsDataRK15LightmapIndicesR17ShaderPassContext
4638:__Z20CalculateLightMatrixRK15SharedLightDataP10Matrix4x4f
4639:__ZN19ShaderPropertySheet24SetTextureFromTextureRefEN9ShaderLab16FastPropertyNameEPK10TextureRef
4640:__ZN19ShaderPropertySheet17UpdateTextureInfoEiN9ShaderLab16FastPropertyNameEPK10TextureRef
4641:__Z27SetupBakedOcclusionForLightbRK15SharedLightDataR17ShaderPassContext
4642:__Z30SetupBakedOcclusionForGeometrybRK26SharedLightmapSettingsDataRK15LightmapIndicesR17ShaderPassContext
4643:__Z24GetLightmapModeForRenderRK15SharedLightData
4644:__Z32ApplyReflectionProbeVectorParamsI28ApplyBuiltinInstancePropertyEvRT_RK16ReflectionSample
4645:__ZN19ShaderPropertySheet35SetTextureWithNoAuxiliaryPropertiesEN9ShaderLab16FastPropertyNameE9TextureID16TextureDimension14VRTextureUsage
4646:__Z22SampleReflectionProbesRK23ReflectionProbesContextRK4AABBji20ReflectionProbeUsageR16ReflectionSample
4647:__ZL23CalculateProbeInfluenceRK4AABBS1_
4648:__ZNSt3__26__sortIR23CompareReflectionProbesP31RuntimeReflectionProbeBlendInfoEEvT0_S5_T_
4649:__Z17IsContainedInAABBRK4AABBS1_
4650:__ZNSt3__27__sort3IR23CompareReflectionProbesP31RuntimeReflectionProbeBlendInfoEEjT0_S5_S5_T_
4651:__ZNSt3__27__sort4IR23CompareReflectionProbesP31RuntimeReflectionProbeBlendInfoEEjT0_S5_S5_S5_T_
4652:__ZNSt3__27__sort5IR23CompareReflectionProbesP31RuntimeReflectionProbeBlendInfoEEjT0_S5_S5_S5_S5_T_
4653:__ZNSt3__218__insertion_sort_3IR23CompareReflectionProbesP31RuntimeReflectionProbeBlendInfoEEvT0_S5_T_
4654:__ZNSt3__227__insertion_sort_incompleteIR23CompareReflectionProbesP31RuntimeReflectionProbeBlendInfoEEbT0_S5_T_
4655:__Z20IntersectionAABBAABBRK10MinMaxAABBS1_PS_
4656:__ZN20ReflectionProbeCacheC2ER13BatchRendererR15RenderLoopStats
4657:__ZN15SHConstantCacheC2ER13BatchRendererR15RenderLoopStats
4658:__ZN30ForwardShaderRenderLoopScratchD2Ev
4659:__ZN30ForwardShaderRenderLoopScratchD0Ev
4660:__ZL16ClearFramebufferN6Camera9ClearModeE5RectTIfERK10ColorRGBAfbb
4661:__Z21GetSoftShadowsEnabledbbN15QualitySettings13ShadowQualityEf
4662:__ZN23ForwardShaderRenderLoop21RenderLightShadowMapsER16ForwardShadowMapbbR17ShaderPassContext
4663:__ZNK6Camera15SaveMatrixStateERNS_11MatrixStateE
4664:__ZN6Camera22SetWorldToCameraMatrixERK10Matrix4x4f
4665:__Z16RenderShadowMapsPK18ShadowMapJobHeaderR17ShaderPassContextN13RenderTexture14SetActiveFlagsE
4666:__ZN6Camera18RestoreMatrixStateERKNS_11MatrixStateE
4667:__ZN23ForwardShaderRenderLoop14CollectShadowsER17ShadowCachingDataRK15SharedLightDatabbR17ShaderPassContext
4668:__Z21StoreShadowMapInCacheP14ShadowMapCacheRK17ShadowCachingDatai
4669:__ZNK23ForwardShaderRenderLoop19SetLightShadowPropsERK15SharedLightDataP7TextureRK10Matrix4x4fR17ShaderPassContext
4670:__Z29SetCascadedShadowShaderParamsPK10Matrix4x4fiPKfPK8Vector4fRK8Vector2fR17ShaderPassContext
4671:__Z26SetupLightShaderPropertiesRK15SharedLightDatafR17ShaderPassContextRK10TextureRefS6_S6_
4672:__Z27ComputeScreenSpaceShadowMapRK6CameraRK15SharedLightDataP13RenderTexture10ShadowType16ShadowProjectionR17ShaderPassContextNS5_14SetActiveFlagsE
4673:__ZNK6Camera20ViewportToWorldPointERK8Vector3f
4674:__ZNK6Camera18ScreenToWorldPointERK8Vector3f
4675:__Z15CameraUnProjectRK8Vector3fRK10Matrix4x4fS4_RK5RectTIiERS_b
4676:__ZNSt3__26vectorI16ShadowCasterData13stl_allocatorIS1_L18MemLabelIdentifier2ELi16EEE6assignINS_11__wrap_iterIPKS1_EEEENS_9enable_ifIXaasr21__is_forward_iteratorIT_EE5valuesr16is_constructibleIS1_NS_15iterator_traitsISC_E9referenceEEE5valueEvE4typeESC_SC_
4677:__ZN21BillboardBatchManager24AutoBillboardShaderProps5ApplyEbRK10Matrix4x4fRK8Vector3f
4678:__ZL12ShadowMapJobPN21GfxDeviceAsyncCommand10ArgScratchEPKNS_3ArgE
4679:__ZN21BillboardBatchManager24AutoBillboardShaderPropsD2Ev
4680:__ZL13RenderCastersiRK8Vector3fS1_RK13ShadowJobDataR17ShaderPassContextRKNSt3__26vectorI16ShadowCasterData13stl_allocatorIS9_L18MemLabelIdentifier2ELi16EEEERKNS8_I20ShadowCasterPartDataSA_ISG_LSB_2ELi16EEEERK15RenderNodeQueuebPKj
4681:__Z20IntersectAABBFrustumRK4AABBPK5Planej
4682:__Z33GenerateShadowCasterPartsSortDataRK16ShadowCasterDatajRK15RenderNodeQueueRKNSt3__26vectorI20ShadowCasterPartData13stl_allocatorIS7_L18MemLabelIdentifier2ELi16EEEERK10Matrix4x4fRjP20ShadowCasterSortData
4683:__ZN14qsort_internal5QSortIP20ShadowCasterSortDatai26ShadowCasterSortDataSorterEEvT_S4_T0_T1_
4684:__ZN14qsort_internal30FindAndMovePivotToLastPositionIP20ShadowCasterSortDatai26ShadowCasterSortDataSorterEEvT_S4_T0_T1_
4685:__ZN21BillboardBatchManager24AutoBillboardShaderPropsC2ER16ShaderKeywordSetR24BuiltinShaderParamValues
4686:__ZN25ShadowMapJobHeaderScratchD2Ev
4687:__ZN25ShadowMapJobHeaderScratchD0Ev
4688:__ZN14qsort_internal5QSortIP21ForwardRenderPassDataiN23ForwardShaderRenderLoop18RenderObjectSorterILb0EEEEEvT_S6_T0_T1_
4689:__ZN14qsort_internal30FindAndMovePivotToLastPositionIP21ForwardRenderPassDataiN23ForwardShaderRenderLoop18RenderObjectSorterILb0EEEEEvT_S6_T0_T1_
4690:__ZNK23ForwardShaderRenderLoop18RenderObjectSorterILb0EEclERK21ForwardRenderPassDataS4_
4691:__ZNSt3__211__sift_downIRN23ForwardShaderRenderLoop18RenderObjectSorterILb0EEEP21ForwardRenderPassDataEEvT0_S7_T_NS_15iterator_traitsIS7_E15difference_typeES7_
4692:__ZN14qsort_internal5QSortIP21ForwardRenderPassDataiN23ForwardShaderRenderLoop18RenderObjectSorterILb1EEEEEvT_S6_T0_T1_
4693:__ZN14qsort_internal30FindAndMovePivotToLastPositionIP21ForwardRenderPassDataiN23ForwardShaderRenderLoop18RenderObjectSorterILb1EEEEEvT_S6_T0_T1_
4694:__ZNK23ForwardShaderRenderLoop18RenderObjectSorterILb1EEclERK21ForwardRenderPassDataS4_
4695:__ZNSt3__211__sift_downIRN23ForwardShaderRenderLoop18RenderObjectSorterILb1EEEP21ForwardRenderPassDataEEvT0_S7_T_NS_15iterator_traitsIS7_E15difference_typeES7_
4696:__ZNK13RenderTexture12FitGivenRectERiS0_S0_S0_
4697:__Z24IntersectAABBPlaneBoundsRK4AABBPK5Planei
4698:__Z30FindDirectAttenuationFromProbeP18ForwardLightsBlockbiRK10RenderNodeRK23FindForwardLightsParamsf
4699:__ZL12AddLightToSHRK4AABBRK15SharedLightDataP18ForwardLightsBlockf
4700:__Z28GetNonInterpolatedLightProbeRK17LightProbeContextjR20SphericalHarmonicsL2
4701:__ZN20SphericalHarmonicsL2pLERKS_
4702:__ZN20SphericalHarmonicsL219AddDirectionalLightERKN4math7_float3ERKNS0_7_float4E
4703:__ZN20SphericalHarmonicsL217AddToCoefficientsEPKN4math7_float4EPKf
4704:__Z32GetNonInterpolatedLightOcclusionRK17LightProbeContextji
4705:__Z29GetInterpolatedLightOcclusionRK17LightProbeContextRK29LightProbeSamplingCoordinatesi
4706:__Z20FindShadowMapInCacheP14ShadowMapCachei
4707:__Z17PrepareShadowMapsRK11CullResultsRK11ActiveLightRK10MinMaxAABB
4708:__Z20SendCullingCallbacksRK13CullingOutputRK14ShadowCullDataRK15SharedLightData
4709:__ZN13ShadowJobDataC2ERKS_
4710:__Z22CalculateShadowMapSizeRK13ShadowJobData9LightTypeRK8Vector2fii
4711:__ZL20PrepareShadowMapsJobP18ShadowMapJobHeader
4712:__ZNSt3__26vectorI20ShadowCasterPartData13stl_allocatorIS1_L18MemLabelIdentifier2ELi16EEE21__push_back_slow_pathIKS1_EEvRT_
4713:__ZNSt3__26vectorI16ShadowCasterData13stl_allocatorIS1_L18MemLabelIdentifier2ELi16EEE21__push_back_slow_pathIKS1_EEvRT_
4714:__ZN10Matrix4x4f18SetBasisTransposedERK8Vector3fS2_S2_
4715:__Z23CullDirectionalCascadesRNSt3__26vectorI16ShadowCasterData13stl_allocatorIS1_L18MemLabelIdentifier2ELi16EEEEPK17ShadowCascadeInfoiRK10Matrix4x4fRK8Vector3fRK13ShadowJobData16ShadowProjection
4716:__Z16GetFrustumPointsRK10Matrix4x4fP8Vector3f
4717:__Z17GetFrustumPortionPK8Vector3fffPS_
4718:__Z25CalculateFocusedLightHullPK8Vector3fRS0_RK10MinMaxAABBR13dynamic_arrayIS_Lj4EE
4719:__ZN10Matrix4x4f30SetPositionAndOrthoNormalBasisERK8Vector3fS2_S2_S2_
4720:__Z40CalculateBoundingSphereFromFrustumPointsPK8Vector3fRS_Rf
4721:__Z26CalculateSphereFrom4PointsPK8Vector3fRS_Rf
4722:__ZNK10Matrix4x4f14GetDeterminantEv
4723:__Z16ClipPolysByPlanehPK8Vector3fRK5PlanePhPS_S5_S6_
4724:__Z25CalculateShadowCasterCullbPK5PlaneRK10Matrix4x4fRK8Vector3fff9LightTypeS7_R16ShadowCasterCullPKb
4725:__ZL24AddShadowCasterCullPlanebPK5PlaneRK10Matrix4x4fRK8Vector3fffiii9LightTypeS7_RS_
4726:__ZN18ShadowMapJobHeaderD2Ev
4727:__ZN18ShadowMapJobHeaderD0Ev
4728:__ZN9ShaderLab10GrabPassesC2E18MemLabelIdentifier
4729:__ZN23ForwardShaderRenderLoopD2Ev
4730:__ZN23ForwardShaderRenderLoopD0Ev
4731:__ZN9ShaderLab10GrabPassesD2Ev
4732:__ZNSt3__26__treeINS_12__value_typeIiPN9ShaderLab10GrabPasses5EntryEEENS_19__map_value_compareIiS6_NS_4lessIiEELb1EEENS_9allocatorIS6_EEE7destroyEPNS_11__tree_nodeIS6_PvEE
4733:__ZN14qsort_internal18QSortSingleJobDataIP16RenderObjectDatai26RenderDeferredObjectSorterE7SortJobEPS4_
4734:__ZL24CollectForwardObjectsJobP27CollectForwardObjectsHeader
4735:__ZNK14RenderSettings19GetFlatAmbientColorEv
4736:__ZN18DeferredRenderLoop13RenderGBufferEP13RenderTexturePS1_b8JobFencePK25DeferredRenderLoopScratchRi
4737:__Z24SetupActiveLightsContextR21ActiveLightingContextRK12ActiveLightsRK11CullResultsP14ShadowMapCacheRK10MinMaxAABB
4738:__Z29RenderForwardObjectsIntoDepthRK17RenderLoopContextP13RenderTextureP13dynamic_arrayI16RenderObjectDataLj4EE12ObjectHandleI17RenderSurface_TagP17RenderSurfaceBaseESC_iib
4739:__Z31ResolveDepthIntoTextureIfNeededR9GfxDeviceR10RenderLoop17DepthBufferFormatRP13RenderTextureP9TextureIDPb
4740:__ZN19ShaderPropertySheet26SetTextureWithExplicitSizeEN9ShaderLab16FastPropertyNameE9TextureIDiiff
4741:__ZN18DeferredRenderLoop17RenderReflectionsEP13RenderTexturePS1_
4742:__ZN18DeferredRenderLoop24AddReflectionsToEmissionEP13RenderTextureS1_
4743:__ZN18DeferredRenderLoop14RenderLightingER21ActiveLightingContextP13RenderTexture9TextureIDPS3_iRK8Vector4fRK14LightingLayersR10MinMaxAABBb
4744:__ZN18DeferredRenderLoop15RenderFinalPassEP13RenderTextureS1_
4745:__Z26CombineDepthNormalsTextureRK17RenderLoopContextR13dynamic_arrayI16RenderObjectDataLj4EE
4746:__ZN12ImageFilters4BlitER17ShaderPassContextP7TextureP13RenderTextureP8MaterialiNS_9BlitFlagsE11CubemapFaceRK8Vector2fSC_
4747:__Z15InitLightMeshesv
4748:__ZL19RenderLightDeferredRK17RenderLoopContextRK15LightingContextN15QualitySettings13ShadowQualityE16ShadowProjectionP13RenderTextureS9_iiPK18DeviceStencilStateRK22DeviceMVPMatricesStateRK8Vector4fRK14LightingLayersbR17ShaderPassContext
4749:__Z23SetupLightShaderKeywordRK15SharedLightDataR17ShaderPassContext
4750:__Z22AssignCookieToMaterialRK15SharedLightDataP8Material
4751:__ZL31SetRenderStateForStencilMarkingR9GfxDeviceR17ShaderPassContextjj
4752:__Z15RenderLightGeomR9GfxDeviceRK6CameraRK11ActiveLightRK8Vector3fRK10Matrix4x4fb17ShaderChannelMask
4753:__ZN8Material8SetFloatEN9ShaderLab16FastPropertyNameEf
4754:__ZN8DrawUtil8DrawMeshE17ShaderChannelMaskR4MeshRK10Matrix4x4fi
4755:__ZN8DrawUtil8DrawMeshE17ShaderChannelMaskR4MeshiRK10Matrix4x4f13TransformType
4756:__ZN8DrawUtil11DrawMeshRawE17ShaderChannelMaskR4MeshiiPS1_
4757:__ZNK4Mesh15GetSubMeshCountEv
4758:__ZN4Mesh14GetMeshBuffersER11MeshBuffers17ShaderChannelMaskPS_b
4759:__ZNK4Mesh26GetSubMeshDrawBuffersRangeEib
4760:__ZN8Material23GetStencilWriteMaterialEv
4761:__ZNK6Camera22GetCameraToWorldMatrixEv
4762:__ZNK16ReflectionProbes17GetDefaultTextureEPb
4763:__ZNK16ReflectionProbes41CalculateHDRDecodeValuesForDefaultTextureEP7Texture
4764:__ZNSt3__26__sortIR15ReflProbeSorterPP15ReflectionProbeEEvT0_S6_T_
4765:__ZNK15ReflectionProbe13GetGlobalAABBEv
4766:__ZNK15ReflectionProbe10GetTextureEv
4767:__ZNK15ReflectionProbe24CalculateHDRDecodeValuesEv
4768:__Z35GetTextureDecodeValuesWithIntensity16TextureUsageMode17TextureColorSpace10ColorSpacef
4769:__ZN15ReflProbeSorterclEPK15ReflectionProbeS2_
4770:__ZNSt3__27__sort3IR15ReflProbeSorterPP15ReflectionProbeEEjT0_S6_S6_T_
4771:__ZNSt3__27__sort4IR15ReflProbeSorterPP15ReflectionProbeEEjT0_S6_S6_S6_T_
4772:__ZNSt3__27__sort5IR15ReflProbeSorterPP15ReflectionProbeEEjT0_S6_S6_S6_S6_T_
4773:__ZNSt3__227__insertion_sort_incompleteIR15ReflProbeSorterPP15ReflectionProbeEEbT0_S6_T_
4774:__ZNK15ReflectionProbe16GetGlobalExtentsEv
4775:__ZN10builtintex12GetBlackCubeEv
4776:__ZL21DeferredRenderLoopJobPN21GfxDeviceAsyncCommand10ArgScratchEPKNS_3ArgE
4777:__ZN10builtintex21GetBlackCubeTextureIDEv
4778:__Z7ApplySHR15SHConstantCacheRK17LightProbeContextRK10RenderNodeb
4779:__Z18ApplyOcclusionMaskR19ProbeOcclusionCacheRK17LightProbeContextRK10RenderNodeb
4780:__ZN25DeferredRenderLoopScratchD2Ev
4781:__ZN25DeferredRenderLoopScratchD0Ev
4782:__ZN14qsort_internal5QSortIP16RenderObjectDatai26RenderDeferredObjectSorterEEvT_S4_T0_T1_
4783:__ZN14qsort_internal30FindAndMovePivotToLastPositionIP16RenderObjectDatai26RenderDeferredObjectSorterEEvT_S4_T0_T1_
4784:__ZNK26RenderDeferredObjectSorterclERK16RenderObjectDataS2_
4785:__ZNSt3__211__sift_downIR26RenderDeferredObjectSorterP16RenderObjectDataEEvT0_S5_T_NS_15iterator_traitsIS5_E15difference_typeES5_
4786:__ZN18DeferredRenderLoopD2Ev
4787:__ZN18DeferredRenderLoopD0Ev
4788:__ZN14RenderSettings16SetUseFogNoDirtyEb
4789:__ZN14RenderSettings14ApplyFogParamsEv
4790:__ZN14qsort_internal5QSortIP16RenderObjectDatai25RenderPrePassObjectSorterEEvT_S4_T0_T1_
4791:__ZN17PrePassRenderLoop14RenderBasePassEP13RenderTextureRK14LightingLayersR13dynamic_arrayI16RenderObjectDataLj4EERbR10MinMaxAABB
4792:__Z19RenderBasePassDepthRK17RenderLoopContextR13dynamic_arrayI16RenderObjectDataLj4EERS2_I17PrePassRenderDataLj4EER17ShaderPassContext
4793:__ZN17PrePassRenderLoop14RenderLightingER21ActiveLightingContextP13RenderTexture9TextureIDS3_RS3_RK8Vector4fRK14LightingLayersR10MinMaxAABBb
4794:__ZN17PrePassRenderLoop15RenderFinalPassEP13RenderTextureS1_b
4795:__ZN10builtintex15GetBlackTextureEv
4796:__ZL11RenderLightRK17RenderLoopContextRK15LightingContextN15QualitySettings13ShadowQualityE16ShadowProjectionRP13RenderTextureS9_iiPK18DeviceStencilStateRK10MinMaxAABBRK22DeviceMVPMatricesStateRK8Vector4fRK14LightingLayersbR17ShaderPassContext
4797:__ZN14qsort_internal30FindAndMovePivotToLastPositionIP16RenderObjectDatai25RenderPrePassObjectSorterEEvT_S4_T0_T1_
4798:__ZNK25RenderPrePassObjectSorterclERK16RenderObjectDataS2_
4799:__ZNSt3__211__sift_downIR25RenderPrePassObjectSorterP16RenderObjectDataEEvT0_S5_T_NS_15iterator_traitsIS5_E15difference_typeES5_
4800:__ZN6Camera10CustomCullERK23CameraCullingParametersR11CullResults
4801:__ZN13RenderManager29SetCurrentCameraAndStackStateEP6CameraP25CameraStackRenderingState
4802:__ZN6Camera24PrepareCullingParametersERK23CameraCullingParameters13RenderingPathR11CullResults
4803:__Z24CullStaticSceneWithUmbraR8JobFenceRK22SceneCullingParametersR13CullingOutput
4804:__ZN19CullingGroupManager17CullAndSendEventsERK22SceneCullingParameters4PPtrI6CameraERK13CullingOutputRK8JobFence
4805:__ZN6Camera38PrepareCullingParametersRendererArraysERKS_R11CullResults
4806:__Z19SetupShadowCullDataR6CameraRK17ShaderReplaceDataPK22SceneCullingParametersf16ShadowProjectionR14ShadowCullData
4807:__Z9CullSceneR22SceneCullingParametersPK6CameraR11CullResults
4808:__Z16CullDynamicSceneR8JobFenceS0_RK22SceneCullingParametersR13CullingOutput
4809:__Z17PrepareSceneNodesP11CullResults
4810:__ZL10CullLightsRK22SceneCullingParametersR11CullResults
4811:__Z15GetLightManagerv
4812:__Z16FindActiveLightsR13dynamic_arrayIPK5LightLj4EEPS2_P8Vector4fRS_IhLj1EERK14ShadowCullDataRj
4813:__Z20AddDirectionalLightsPPK5LightjR12ActiveLights
4814:__Z31InitLocalLightCullingParametersRK11CullResultsR27LocalLightCullingParameters
4815:__Z21AddActiveCustomLightsRK27LocalLightCullingParametersR11CullResultsR12ActiveLights
4816:__Z15CullLocalLightsR8JobFenceS0_RK22SceneCullingParametersiPK8Vector4fRK13dynamic_arrayIhLj1EER9IndexListSC_PfP5RectTIfEP13TargetEyeMaskPPK5LightRK14ShadowCullData
4817:__Z28CullDirectionalShadowCastersiRK22SceneCullingParametersR11CullResults
4818:__ZL17AddLocalLightsJobP21AddLocalLightsJobInfo
4819:__Z20AddActiveLocalLightsR11CullResultsR27LocalLightCullingParametersPPK5LightPK8Vector4fRK9IndexListPfRSA_R12ActiveLightsSG_P5RectTIfEP13TargetEyeMask
4820:__Z27CullLocalLightShadowCastersiibR11CullResults
4821:__Z34PrepareParametersCullShadowCastersRK11ActiveLightRK14ShadowCullDataR22SceneCullingParametersR13ShadowedLight
4822:__Z32CountListsWithValidRendererCountPK16RendererCullData
4823:__ZL25CullLocalShadowCastersJobP25LocalShadowCullingJobDataj
4824:__ZL54CombineLocalShadowCasterCullingIndexListsAndDestroyJobP25LocalShadowCullingJobData
4825:__Z32ScheduleJobForEachJobSetInternalR8JobFencePFvPvjES1_iRKS_PFvS1_E11JobPriority
4826:__Z29CullShadowCastersWithoutUmbraR9IndexListRK17CullingParametersPK4AABBjj
4827:__Z41ProcessShadowsIndexListIsNodeVisibleInOutRK22SceneCullingParametersPK9SceneNodePK4AABBR9IndexList
4828:__Z16CullPointShadowsR9IndexListPK9SceneNodePK4AABBR16PointCullContext
4829:__Z15CullSpotShadowsR9IndexListPK9SceneNodePK4AABBR15SpotCullContext
4830:__Z22CombineBoundingVolumesPK4AABBRK9IndexList
4831:__Z13IsNodeVisibleRK9SceneNodeRK4AABBRK22SceneCullingParameters
4832:__Z22PrepareOptimizedPlanesPK5PlaneiPKN4math7_float4Ei
4833:__Z33IntersectAABBPlaneBoundsOptimizedRK4AABBPKN4math7_float4Ei
4834:__Z22PrepareOptimizedPlanesPK5PlaneiPKN4math7_float4E
4835:__Z19CreateCullingOutputPK16RendererCullDataR13CullingOutput
4836:__Z32CalculateCustomCullingParametersR17CullingParametersRK13LODParametersjPK5Planei
4837:__Z21SetupActiveLocalLightRK27LocalLightCullingParametersRK13ShadowJobDataRK8Vector4fPK5RectTIfEbbfR11ActiveLight
4838:__Z24CalculateSpotLightBoundsffRK10Matrix4x4fR15SpotLightBounds
4839:__Z37GenerateCombinedDynamicVisibleListJobP11CullResults
4840:__Z21CreateShadowCullerJobP30CreateUmbraShadowCullerJobData
4841:__Z31CullDirectionalShadowCastersJobP20ShadowCullingJobDataj
4842:__ZL60CombineDirectionalShadowCasterCullingIndexListsAndDestroyJobP20ShadowCullingJobData
4843:__Z22CullDirectionalShadowsR9IndexListPK9SceneNodePK4AABBR22DirectionalCullContext
4844:__ZL38FrustumAndOcculusionCullLocalLightsJobP21LocalLightCullJobDataj
4845:__ZL45FrustumAndOcculusionCullLocalLightsCombineJobP21LocalLightCullJobData
4846:__Z22PointDistanceToFrustumRK8Vector4fPK5Planei
4847:__Z26CalculateLightScreenBoundsRK13ShadowJobDataRK15SharedLightDataP5RectTIfER13TargetEyeMask
4848:__Z14CalcHullBoundsPK8Vector3fPKhhRK5PlaneRK10Matrix4x4fR10MinMaxAABB
4849:__ZL27SetupActiveDirectionalLightRK5LightR11ActiveLight
4850:__ZL16PresizeOutputJobP25ScheduleSceneNodesJobData
4851:__ZL22ScheduleSceneNodesJobsP25ScheduleSceneNodesJobDataj
4852:__ZL27PrepareSceneNodesJobCombineP25ScheduleSceneNodesJobData
4853:__ZN25ScheduleSceneNodesJobDataD2Ev
4854:__ZL20PrepareSceneNodesJobP24PrepareSceneNodesJobDataj
4855:__Z20ConfigureBlockRangesP10BlockRangeii
4856:__ZL21CullDynamicObjectsJobP14CullingJobDataj
4857:__ZL26CullDynamicSceneCombineJobP14CullingJobData
4858:__Z40ProcessCameraIndexListIsNodeVisibleInOutRK22SceneCullingParametersPK9SceneNodePK4AABBR9IndexList
4859:__Z40ProcessCameraIndexListIsNodeVisibleStep1RK22SceneCullingParametersPK9SceneNodejjR9IndexList
4860:__Z23CullDynamicObjectsUmbraPK4AABBPKN5Umbra15OcclusionBufferER9IndexList
4861:__Z23CullObjectsWithoutUmbraRK17CullingParametersPK4AABBR9IndexList
4862:__Z34ProcessIndexListIsNodeVisibleStep2RK22SceneCullingParametersPK9SceneNodePK4AABBR9IndexList
4863:__ZNK6Camera16GetCullingMatrixEv
4864:__ZNK6Camera6GetFovEv
4865:__ZNK6Camera9GetAspectEv
4866:__ZNK6Camera27GetImplicitProjectionMatrixEffffR10Matrix4x4f
4867:__ZNK6Camera26GetStereoWorldToClipMatrixE15StereoscopicEye
4868:__ZNK6Camera22CalculateFrustumPlanesEP5PlaneRK10Matrix4x4ffRfb
4869:__ZNK13RendererScene22GetStaticBoundingBoxesEv
4870:__ZNK13RendererScene20GetStaticObjectCountEv
4871:__ZNK13RendererScene23GetDynamicBoundingBoxesEv
4872:__ZNK13RendererScene20GetDynamicSceneNodesEv
4873:__ZNK13RendererScene21GetDynamicObjectCountEv
4874:__ZN11CullResults11InitDynamicEPK16RendererCullData
4875:__ZN6Camera21PrepareLODCullingDataER11CullResultsPKS_
4876:__ZN15LODGroupManager26CollectAllLODGroupManagersEPK6CameraR13dynamic_arrayIPS_Lj4EEb
4877:__ZN15LODGroupManager21CalculateLODDataArrayERK13LODParametersPK6Cameraf
4878:__ZN15LODGroupManager27GarbageCollectCameraLODDataEv
4879:__ZNK15LODGroupManager17CalculateLODMasksERK13LODParametersfPhPf
4880:__ZN15LODGroupManager16CalculateLODMaskERKNS_12LODGroupDescEfjhfPhPfRb
4881:__Z24ScheduleCullingAllGroupsR8JobFenceRK22SceneCullingParameters4PPtrI6CameraERK13CullingOutputRK13dynamic_arrayIP12CullingGroupLj4EERKS_
4882:__ZN12CullingGroup13NotifyVisibleEv
4883:__ZN12CullingGroup15NotifyInvisibleEv
4884:__ZN12CullingGroup10SendEventsEPK17CullingGroupEventj
4885:__ZN18ScriptingArguments6AddIntEi
4886:__ZNK12CullingGroup34GetEffectiveDistanceReferencePointEv
4887:__ZL12CullGroupJobP20CullingGroupsJobDataj
4888:__ZL10CleanUpJobP20CullingGroupsJobData
4889:__Z18AddGroupToWorkloadR26BlockRangeBalancedWorkloadjR13dynamic_arrayI10BlockRangeLj4EERS1_IjLj4EE
4890:__Z35IntersectSpherePlaneBoundsOptimizedRKN4math7_float4EPS1_i
4891:__ZL24CalculateDistanceIndicesR16CullingGroupDataR10BlockRangeR20CullingGroupsJobData
4892:__ZL24QueryPortalVisibilityJobP28QueryPortalVisibilityJobDataj
4893:__ZL31QueryPortalVisibilityCombineJobP28QueryPortalVisibilityJobData
4894:__ZNK6Camera26CalculateCullingParametersER17CullingParameters
4895:__ZN11CullResultsC2Ev
4896:__ZN6Camera31DefaultPerformEyeRenderFunctionclEPS_P11CullResultsNS_10RenderFlagE
4897:__ZN6Camera6RenderER11CullResultsR17ShaderPassContextPK21CameraRenderingParamsNS_10RenderFlagE
4898:__ZN13RendererScene15InitializeUmbraEv
4899:__Z30GetOcclusionCullingSettingsPtrv
4900:__ZNK20OcclusionCullingData22GetStaticRendererCountEv
4901:__ZN19RuntimeSceneManager15GetLoadedScenesER13dynamic_arrayIP10UnitySceneLj4EE
4902:__ZNK20OcclusionCullingData8GetSceneERK9UnityGUID
4903:__ZN13RendererScene19AddRendererInternalEP8Rendereri
4904:__ZN19StereoRenderTextureD2Ev
4905:__ZN19StereoRenderTexture11ReleaseTempEv
4906:__ZNK25CameraStackRenderingState24ResolveTempToEyeTexturesEv
4907:__ZN13RenderTexture25ResolveAntiAliasedSurfaceEPKS_
4908:__ZN25CameraStackRenderingState19SetupLastEyeCamerasERK11CameraStack
4909:__ZNK25CameraStackRenderingState31CalculateStereoCameraTargetTypeEv
4910:__ZN25CameraStackRenderingStateC2Ev
4911:__ZN19StereoRenderTextureC2Ev
4912:__ZL20GetTargetsFromCameraRK6CameraR20CameraTargetsAndRect
4913:__ZNSt3__26vectorI11CameraStackNS_9allocatorIS1_EEE8__appendEj
4914:__ZNK20CameraTargetsAndRecteqERKS_
4915:__Z25GetRenderLoopImageFiltersR10RenderLoop
4916:__ZN13RenderManager15BatchModeUpdateEv
4917:__Z12PlayerRenderb
4918:__ZN13RenderManager22RenderOffscreenCamerasEv
4919:__Z23DrawSplashAndWatermarksv
4920:__ZN7Cursors20RenderSoftwareCursorEv
4921:__ZN7Cursors17GetSoftwareCursorEv
4922:__ZN7Cursors16GetCursorHotspotEv
4923:__Z14DrawGUITextureRK5RectTIfEP7Texture11ColorRGBA32P8Materiali
4924:__Z14DrawGUITextureRK5RectTIfEP7TextureS2_iiiif11ColorRGBA32P8Materiali
4925:__ZN24MaterialDisplayListCache22InvalidateDisplayListsER18SharedMaterialData
4926:__Z21HandleGUITexturePropsP19ShaderPropertySheetP7Texture
4927:__ZN19ShaderPropertySheet18SetTextureUnscaledEN9ShaderLab16FastPropertyNameEP7Texture8Vector2fS4_
4928:__ZN10systeminfo18GetRuntimePlatformEv
4929:__ZN10systeminfo19IsPlatformWebPlayerE15RuntimePlatform
4930:__Z13DrawWaterMarkb
4931:__ZL19DrawSimpleWatermark13WatermarkEnumff
4932:__ZN11TimeManager11GetRealtimeEv
4933:__ZN15ReflectionProbe14ScheduleRenderENS_15TimeSlicingModeE4PPtrI13RenderTextureEb
4934:__ZN16ReflectionProbes16UpdateSampleDataEv
4935:__ZN16ReflectionProbes40UpdateRealtimeReflectionProbesTimeslicedEv
4936:__ZN18ReflectionProbeJob3RunEv
4937:__ZN16ReflectionProbes16RenderProbeFacesEP15ReflectionProbei
4938:__ZN16ReflectionProbes15AcquireRendererEPK15ReflectionProbe
4939:__Z21CubemapGPUConvolutionP13RenderTextureS0_bijjb
4940:__ZN15ReflectionProbe17UseRendererResultEP13ProbeRenderer
4941:__ZN16ReflectionProbes11UpdateProbeER15ReflectionProbej
4942:__Z15CubemapGPUBlendP7TextureS0_fP13RenderTexture
4943:__ZN16ReflectionProbes21AllocateRenderTextureERK15ReflectionProbeb
4944:__ZN13RenderTexture8SetWidthEi
4945:__ZN13RenderTexture9SetHeightEi
4946:__ZN13RenderTexture14SetDepthFormatE17DepthBufferFormat
4947:__ZN13RenderTexture16SetSRGBReadWriteEb
4948:__ZN13RenderTexture19SetAutoGenerateMipsEb
4949:__ZN7Texture13SetAnisoLevelEi
4950:__ZN13RenderTextureC2E18MemLabelIdentifier18ObjectCreationMode
4951:__ZNK13RenderTexture32CalculateNeedsInvertedProjectionEv
4952:__ZL10RenderFaceR9GfxDeviceR18MaterialStateCacheP13RenderTextureiif
4953:__ZN10SpookyHash7Hash128EPKvjPyS2_
4954:__ZN7Hash1285ResetEv
4955:__ZN10SpookyHash5ShortEPKvjPyS2_
4956:__ZN13ProbeRenderer10RenderCubeEP15ReflectionProbeP13RenderTextureib
4957:__ZN13ProbeRenderer10RenderQuadEP15ReflectionProbeP13RenderTextureib
4958:__ZNK9Transform28GetLocalToWorldMatrixNoScaleEv
4959:__ZNK9Transform18GetWorldScaleLossyEv
4960:__ZN16ReflectionProbes9GetCameraEv
4961:__ZN9Transform11SetPositionERK8Vector3f
4962:__Z24LookRotationToQuaternionRK8Vector3fS1_P11Quaternionf
4963:__ZN9Transform11SetRotationERK11Quaternionf
4964:__ZN15QualitySettings28SetShadowDistanceTemporarilyEf
4965:__ZN6Camera7SetNearEf
4966:__ZN6Camera6SetFarEf
4967:__ZN6Camera13SetClearFlagsEi
4968:__ZN6Camera18SetBackgroundColorERK10ColorRGBAf
4969:__ZN6Camera14SetCullingMaskEj
4970:__ZN6Camera15SetOrthographicEb
4971:__ZN6Camera19SetOrthographicSizeEf
4972:__ZN6Camera9SetAspectEf
4973:__ZN6Camera16SetTargetTextureEP13RenderTexture
4974:__ZN6Camera16StandaloneRenderENS_10RenderFlagEP6ShaderRKN4core12basic_stringIcNS3_20StringStorageDefaultIcEEEE
4975:__ZN6Camera22StandaloneCustomRenderENS_10RenderFlagEP6ShaderRKN4core12basic_stringIcNS3_20StringStorageDefaultIcEEEEPNS_21PerformRenderFunctionE
4976:__Z16StoreRenderStateR20CameraRenderOldStateRK17ShaderPassContext
4977:__ZN25CameraStackRenderingState23BeginRenderingOneCameraER6Camera
4978:__Z18RestoreRenderStateR20CameraRenderOldStateR17ShaderPassContext
4979:__ZN19ShaderPropertySheet18SetTexturePropertyEN9ShaderLab16FastPropertyNameERKNS_15TexturePropertyE
4980:__Z10SetGlobalR15TransformAccessRKN4math7_float4E
4981:__ZL24SendTransformChangedMaskRK18TransformHierarchyii
4982:__ZN23TransformChangeDispatch32QueueTransformChangeIfHasChangedER18TransformHierarchy
4983:__Z24InverseTransformRotationRK23TransformAccessReadOnlyRKN4math7_float4E
4984:__Z18MatrixToQuaternionRK10Matrix3x3fR11Quaternionf
4985:__Z10SetGlobalT15TransformAccessRKN4math7_float3E
4986:__Z24InverseTransformPosition23TransformAccessReadOnlyRKN4math7_float3E
4987:__Z29CreateGameObjectWithHideFlagsRKN4core12basic_stringIcNS_20StringStorageDefaultIcEEEEbN6Object9HideFlagsEPKcz
4988:__ZN10GameObject8ActivateEv
4989:__Z23AddComponentsFromVAListR10GameObjectPKcPi
4990:__Z12AddComponentR10GameObjectPKcPN4core12basic_stringIcNS3_20StringStorageDefaultIcEEEE
4991:__Z10BeginsWithPKcS0_
4992:__Z12AddComponentR10GameObjectPKN5Unity4TypeE17ScriptingClassPtrPN4core12basic_stringIcNS6_20StringStorageDefaultIcEEEE
4993:__ZNK17MonoScriptManager17FindRuntimeScriptERKN4core12basic_stringIcNS0_20StringStorageDefaultIcEEEE
4994:__ZN15ScriptsIterator4NextEv
4995:__ZL30CollectComponentsWithoutAddingR10GameObjectPKN5Unity4TypeE17ScriptingClassPtrR13dynamic_arrayI16AddComponentDataLj4EES9_PN4core12basic_stringIcNSA_20StringStorageDefaultIcEEEE
4996:__ZNK17MonoScriptManager17FindRuntimeScriptE17ScriptingClassPtr
4997:__ZL21AddComponentUncheckedR10GameObjectPKN5Unity4TypeE17ScriptingClassPtrP10MonoScriptPN4core12basic_stringIcNS8_20StringStorageDefaultIcEEEE
4998:__ZNK10GameObject25QueryComponentByExactTypeEPKN5Unity4TypeE
4999:__ZN10GameObject20AddComponentInternalEPN5Unity9ComponentE
5000:__ZL27SetupScriptForMonoBehaviourP13MonoBehaviour17ScriptingClassPtrP10MonoScript
5001:__ZN10GameObject21EnsureUniqueTransformEbb
5002:__Z31PrepareMergeTransformComponentsR9TransformRb
5003:__Z24MergeTransformComponentsR9TransformS0_b
5004:__ZN9Transform7GetRootEv
5005:__Z30AddTransformComponentUncheckedR10GameObjectPKN5Unity4TypeE
5006:__ZN9Transform30EnsureTransformHierarchyExistsEv
5007:__ZNK9Transform16GetLocalRotationEv
5008:__ZN9Transform47ClearTransformHierarchyAndApplyToSerializedDataEv
5009:__ZN9Transform8GetSceneEv
5010:__ZN10UnityScene19RemoveRootFromSceneER9Transformb
5011:__ZN10UnityScene14AddRootToSceneERS_R9Transform
5012:__ZN9Transform4FindEPKS_
5013:__ZN9Transform25RebuildTransformHierarchyEv
5014:__ZN9Transform35SetLocalPositionWithoutNotificationERKN4math7_float3E
5015:__ZN9Transform35SetLocalRotationWithoutNotificationERKN4math7_float4E
5016:__ZN9Transform32SetLocalScaleWithoutNotificationERKN4math7_float3E
5017:__ZN2UI13RectTransform38SetAnchoredPositionWithoutNotificationERK8Vector2f
5018:__Z9SetLocalS15TransformAccessRKN4math7_float3E
5019:__Z9SetLocalR15TransformAccessRKN4math7_float4E
5020:__ZNK9Transform14CountNodesDeepEv
5021:__ZN17TransformInternal24CreateTransformHierarchyEj
5022:__ZN9Transform37InitializeTransformHierarchyRecursiveER18TransformHierarchyRii
5023:__ZN10GameObject17WillHandleMessageERK17MessageIdentifier
5024:__ZN14MessageHandler17WillHandleMessageEPvjRK17MessageIdentifier
5025:__ZN13BitSetUtility17GetNumberOfBlocksEj
5026:__ZN13MonoBehaviour9SetScriptERK4PPtrI10MonoScriptE18ScriptingObjectPtr
5027:__ZN13MonoBehaviour8SetClassE17ScriptingClassPtr18ScriptingObjectPtr
5028:__ZN13MonoBehaviour22DoScriptRebuildWarningEv
5029:__ZNK10MonoScript13GetScriptTypeEv
5030:__ZN13MonoBehaviour35RebuildMonoInstanceFromScriptChangeE17ScriptingClassPtr18ScriptingObjectPtr
5031:__ZNK13MonoBehaviour15CanAssignScriptERK4PPtrI10MonoScriptE
5032:__ZN10MonoScript7ReleaseEv
5033:__Z25FindConflictingComponentsPKN5Unity4TypeE
5034:__Z15CanAddComponentR10GameObjectPKN5Unity4TypeE
5035:__Z21CheckForAbstractClassR10GameObjectPKN5Unity4TypeEPN4core12basic_stringIcNS5_20StringStorageDefaultIcEEEE
5036:__Z12CanAddScriptR10GameObject17ScriptingClassPtrPS1_S2_
5037:__Z20RequiredComponentsOf17ScriptingClassPtr
5038:__Z39scripting_class_from_systemtypeinstance28ScriptingSystemTypeObjectPtr
5039:__ZN23ManagedAttributeManager21GetRequiredComponentsE17ScriptingClassPtr
5040:__ZN23ManagedAttributeManager32CallManagedGetRequiredComponentsE17ScriptingClassPtr
5041:__ZN23ManagedAttributeManager41GetParentTypeDisallowingMultipleInclusionE17ScriptingClassPtr
5042:__ZN23ManagedAttributeManager52CallManagedGetParentTypeDisallowingMultipleInclusionE17ScriptingClassPtr
5043:__ZN10GameObjectC2E18MemLabelIdentifier18ObjectCreationMode
5044:__ZN10GameObjectD2Ev
5045:__ZN10GameObjectD0Ev
5046:__ZN10GameObject13AwakeFromLoadE17AwakeFromLoadMode
5047:__ZN10GameObject16CheckConsistencyEv
5048:__ZN10GameObject5ResetEv
5049:__ZNK10GameObject26GetTypeInfoVirtualInternalEv
5050:__ZNK10GameObject7GetNameEv
5051:__ZN10GameObject7SetNameEPKc
5052:__ZN10GameObject12SetHideFlagsEN6Object9HideFlagsE
5053:__ZN10GameObject23VirtualRedirectTransferER19StreamedBinaryWriteILb0EE
5054:__ZN10GameObject23VirtualRedirectTransferER18StreamedBinaryReadILb0EE
5055:__ZN10GameObject23VirtualRedirectTransferER17RemapPPtrTransfer
5056:__ZN10GameObject23VirtualRedirectTransferER24GenerateTypeTreeTransfer
5057:__ZN10GameObject23VirtualRedirectTransferER14SafeBinaryRead
5058:__ZN10GameObject8TransferI14SafeBinaryReadEEvRT_
5059:__ZN10GameObject18TransferComponentsI14SafeBinaryReadEEvRT_
5060:__ZN14SafeBinaryRead21TransferSTLStyleArrayI13dynamic_arrayINSt3__24pairIi12ImmediatePtrIN5Unity9ComponentEEEELj4EEEEvRT_17TransferMetaFlags
5061:__ZN14SafeBinaryRead21TransferSTLStyleArrayI13dynamic_arrayIN10GameObject13ComponentPairELj4EEEEvRT_17TransferMetaFlags
5062:__ZN15SerializeTraitsI13dynamic_arrayIN10GameObject13ComponentPairELj4EEE19ResizeSTLStyleArrayERS3_i18MemLabelIdentifier
5063:__ZN12ImmediatePtrIN5Unity9ComponentEE8TransferI14SafeBinaryReadEEvRT_
5064:__ZN15SerializeTraitsINSt3__24pairIi12ImmediatePtrIN5Unity9ComponentEEEEE8TransferI14SafeBinaryReadEEvRS6_RT_
5065:__ZN10GameObject8TransferI24GenerateTypeTreeTransferEEvRT_
5066:__ZN10GameObject18TransferComponentsI24GenerateTypeTreeTransferEEvRT_
5067:__ZN10GameObject18TransferComponentsI17RemapPPtrTransferEEvRT_
5068:__ZN17RemapPPtrTransfer12PushMetaFlagE17TransferMetaFlags
5069:__ZN17RemapPPtrTransfer11PopMetaFlagEv
5070:__ZN10GameObject8TransferI18StreamedBinaryReadILb0EEEEvRT_
5071:__ZN12ImmediatePtrIN5Unity9ComponentEE8TransferI18StreamedBinaryReadILb0EEEEvRT_
5072:__ZN10GameObject8TransferI19StreamedBinaryWriteILb0EEEEvRT_
5073:__ZN12ImmediatePtrIN5Unity9ComponentEE8TransferI19StreamedBinaryWriteILb0EEEEvRT_
5074:__ZN13RenderTexture15DiscardContentsEbb
5075:__ZN6Camera25StandaloneRenderToCubemapEP7TextureiPFvPK9SceneNodePK4AABBR9IndexListPvESA_
5076:__ZN12_GLOBAL__N_1L37PostProcessCullResultsForSkyboxProbesEPK9SceneNodePK4AABBR9IndexListPv
5077:__Z27IsSupportedReadPixelsFormat13TextureFormat17GfxDeviceRenderer
5078:__ZN13RenderTexture15DiscardContentsEv
5079:__ZN9Texture2D10ReadPixelsEiiiiiiibb
5080:__ZN7Texture19SetStoredColorSpaceE17TextureColorSpace
5081:__ZN17SharedTextureData17GetImageReferenceEP14ImageReferenceii
5082:__ZN14ImageReference10FlipImageYEv
5083:__ZN6prcore10FlipImageYER14ImageReference
5084:__ZN6prcoreL10inner_flipILj2EEEvPhS1_j
5085:__ZN6prcoreL10inner_flipILj3EEEvPhS1_j
5086:__ZN6prcoreL10inner_flipILj4EEEvPhS1_j
5087:__ZN6prcoreL10inner_flipILj1EEEvPhS1_j
5088:__ZN13dynamic_arrayIN23ReflectionProbesContext23ReflectionProbeCubeInfoELj4EE18resize_initializedEjRKS1_12ResizePolicy
5089:__ZNK16ReflectionProbes21GenerateDefaultSampleEv
5090:__ZN16ReflectionProbes8ScheduleEN18ReflectionProbeJob7JobTypeEP15ReflectionProbei
5091:__ZNSt3__25dequeI18ReflectionProbeJobNS_9allocatorIS1_EEE19__add_back_capacityEv
5092:__ZNSt3__214__split_bufferIP18ReflectionProbeJobNS_9allocatorIS2_EEE10push_frontERKS2_
5093:__Z29GetCustomRenderTextureManagerv
5094:__ZN26CustomRenderTextureManager6UpdateEb
5095:__ZN26CustomRenderTextureManager17RecreateResourcesEv
5096:__ZN19CustomRenderTexture26ComputeTextureDependenciesEv
5097:__ZN19CustomRenderTexture26CheckUpdateDataConsistencyEv
5098:__ZN19CustomRenderTexture29CheckDoubleBufferConsistentcyEv
5099:__ZN19CustomRenderTexture22NeedUpdateDependenciesEv
5100:__ZN26CustomRenderTextureManager13TriggerUpdateEP19CustomRenderTexturej
5101:__ZN26CustomRenderTextureManager24InitCustomRenderTexturesERK13dynamic_arrayIP19CustomRenderTextureLj4EE
5102:__ZN26CustomRenderTextureManager26UpdateCustomRenderTexturesER13dynamic_arrayIP19CustomRenderTextureLj4EEb
5103:__ZNSt3__26__sortIR11SortFunctorPP19CustomRenderTextureEEvT0_S6_T_
5104:__ZN26CustomRenderTextureManager25UpdateCustomRenderTextureEP19CustomRenderTexturei
5105:__ZN8Material9SetVectorEN9ShaderLab16FastPropertyNameERK8Vector4f
5106:__ZN8Material14SetVectorArrayEN9ShaderLab16FastPropertyNameEPK8Vector4fj
5107:__ZN8Material13SetFloatArrayEN9ShaderLab16FastPropertyNameEPKfj
5108:__ZN11SortFunctorclEP19CustomRenderTextureS1_
5109:__ZNSt3__27__sort3IR11SortFunctorPP19CustomRenderTextureEEjT0_S6_S6_T_
5110:__ZNSt3__27__sort4IR11SortFunctorPP19CustomRenderTextureEEjT0_S6_S6_S6_T_
5111:__ZNSt3__27__sort5IR11SortFunctorPP19CustomRenderTextureEEjT0_S6_S6_S6_S6_T_
5112:__ZNSt3__227__insertion_sort_incompleteIR11SortFunctorPP19CustomRenderTextureEEbT0_S6_T_
5113:__Z24GetDependenciesRecursive4PPtrI19CustomRenderTextureEPKS0_RNSt3__23setIS1_NS4_4lessIS1_EENS4_9allocatorIS1_EEEE
5114:__ZNSt3__26__treeI4PPtrI19CustomRenderTextureENS_4lessIS3_EENS_9allocatorIS3_EEE7destroyEPNS_11__tree_nodeIS3_PvEE
5115:__ZN26CustomRenderTextureManager23InitCustomRenderTextureEP19CustomRenderTexturei
5116:__ZN8Material8SetColorEN9ShaderLab16FastPropertyNameERK10ColorRGBAf
5117:__ZN8Material10ComputeCRCEv
5118:__Z7CRCFeedjPKhj
5119:__Z7CRCDonej
5120:__ZN19CustomRenderTexture18CreateDoubleBufferEv
5121:__ZN13RenderTexture14SetVolumeDepthEi
5122:__ZN19CustomRenderTexture20AddUpdateZoneGPUDataERK8Vector4fS2_jib
5123:__ZN19CustomRenderTexture22HandleBoundaryWrappingERKNS_14UpdateZoneInfoEj
5124:__ZN19CustomRenderTexture22ClearChildDependenciesEv
5125:__ZN19CustomRenderTexture8AddChildE4PPtrIS_E
5126:__ZN19CustomRenderTexture9AddParentE4PPtrIS_E
5127:__ZN19CustomRenderTexture26ComputeTextureDependenciesEP8Material
5128:__ZN7Texture15FindTextureByIDE9TextureID
5129:__ZN12InputManager17GetTextFieldInputEv
5130:__ZN12InputManager14ResetInputAxesEv
5131:__ZN12InputManager12ProcessInputEv
5132:__ZN13RendererScene15NotifyInvisibleEv
5133:__ZN14PreloadManager16UpdatePreloadingEv
5134:__ZN14UnityWebStream24UpdateAllUnityWebStreamsEv
5135:__Z17HasFrameToPresentv
5136:__Z21GetBackgroundJobQueuev
5137:__ZN18BackgroundJobQueue21ExecuteMainThreadJobsEv
5138:__ZN13RenderManager28AreCamerasUsingMotionVectorsEv
5139:__ZN13RenderManager27UpdatePreviousFrameMatricesEv
5140:__ZN6Camera34UpdatePreviousViewProjectionMatrixEv
5141:__ZN18ScreenManagerWebGLC2Ev
5142:__ZN13ScreenManagerC2Ev
5143:__Z24FullscreenChangeCallbackiPK31EmscriptenFullscreenChangeEventPv
5144:__Z13FocusCallbackiPK20EmscriptenFocusEventPv
5145:__Z14SetPlayerFocusb
5146:__Z30GetPlayerShouldRunInBackgroundv
5147:__ZNK13ScreenManager20GetCurrentResolutionEv
5148:__ZN13ScreenManager21SetCursorInsideWindowEb
5149:__ZNK13ScreenManager12IsFullScreenEv
5150:__ZN35RegisterRuntimeInitializeAndCleanup22ExecuteInitializationsEv
5151:__ZNSt3__26__sortIRNS_6__lessI15OrderedCallbackS2_EEPS2_EEvT0_S6_T_
5152:__ZNSt3__27__sort4IRNS_6__lessI15OrderedCallbackS2_EEPS2_EEjT0_S6_S6_S6_T_
5153:__ZNSt3__227__insertion_sort_incompleteIRNS_6__lessI15OrderedCallbackS2_EEPS2_EEbT0_S6_T_
5154:__ZN13RuntimeStaticI13ModuleManagerLb0EE10InitializeEv
5155:__ZN14ManagerContext17InitializeClassesEv
5156:__ZN17MessageIdentifier14CheckIntegrityEv
5157:__ZN13sorted_vectorINSt3__24pairIN4core12basic_stringIcNS2_20StringStorageDefaultIcEEEEPK17MessageIdentifierEEN10vector_mapIS6_S9_NS0_4lessIS6_EENS0_9allocatorISA_EEE13value_compareESF_E4findIS6_EENS0_11__wrap_iterIPSA_EERKT_
5158:__ZN13sorted_vectorINSt3__24pairIN4core12basic_stringIcNS2_20StringStorageDefaultIcEEEEPK17MessageIdentifierEEN10vector_mapIS6_S9_NS0_4lessIS6_EENS0_9allocatorISA_EEE13value_compareESF_E10insert_oneERKSA_
5159:__ZZN17MessageIdentifier14CheckIntegrityEvEN27ByMessageOptimizationSorter7CompareEPKS_S2_
5160:__ZN14qsort_internal5QSortIPPK17MessageIdentifieriPFbS3_S3_EEEvT_S7_T0_T1_
5161:__ZN14qsort_internal30FindAndMovePivotToLastPositionIPPK17MessageIdentifieriPFbS3_S3_EEEvT_S7_T0_T1_
5162:__ZNSt3__26vectorINS_4pairIN4core12basic_stringIcNS2_20StringStorageDefaultIcEEEEPK17MessageIdentifierEENS_9allocatorISA_EEE6insertENS_11__wrap_iterIPKSA_EERSF_
5163:__ZNSt3__26vectorINS_4pairIN4core12basic_stringIcNS2_20StringStorageDefaultIcEEEEPK17MessageIdentifierEENS_9allocatorISA_EEE12__move_rangeEPSA_SE_SE_
5164:__ZNSt3__26vectorINS_4pairIN4core12basic_stringIcNS2_20StringStorageDefaultIcEEEEPK17MessageIdentifierEENS_9allocatorISA_EEE26__swap_out_circular_bufferERNS_14__split_bufferISA_RSC_EEPSA_
5165:__ZN13OpenFileCacheC2E18MemLabelIdentifier
5166:__ZN4FileC2Ev
5167:__ZN11TypeManager25InitializeDerivedFromInfoEv
5168:__ZN11TypeManager7Builder5BuildERK14dense_hash_mapIiP4RTTINS_27HashFunctorPersistentTypeIDENSt3__28equal_toIiEE13stl_allocatorINS5_4pairIKiS3_EEL18MemLabelIdentifier6ELi16EEE
5169:__ZN11TypeManager7Builder3AddEP4RTTI
5170:__ZN11TypeManager7Builder18TraverseDepthFirstERKNS0_4NodeEj
5171:__ZN17PersistentManager12SetPathRemapERKN4core12basic_stringIcNS0_20StringStorageDefaultIcEEEES6_
5172:__ZN13sorted_vectorINSt3__24pairIN4core12basic_stringIcNS2_20StringStorageDefaultIcEEEES6_EEN10vector_mapIS6_S6_27compare_tstring_insensitiveIS6_E13stl_allocatorIS7_L18MemLabelIdentifier37ELi16EEE13value_compareESD_E10insert_oneERKS7_
5173:__ZN13sorted_vectorINSt3__24pairIN4core12basic_stringIcNS2_20StringStorageDefaultIcEEEES6_EEN10vector_mapIS6_S6_27compare_tstring_insensitiveIS6_E13stl_allocatorIS7_L18MemLabelIdentifier37ELi16EEE13value_compareESD_E9erase_oneIS6_EEjRKT_
5174:__ZNSt3__26vectorINS_4pairIN4core12basic_stringIcNS2_20StringStorageDefaultIcEEEES6_EE13stl_allocatorIS7_L18MemLabelIdentifier37ELi16EEE6insertENS_11__wrap_iterIPKS7_EERSD_
5175:__ZNSt3__26vectorINS_4pairIN4core12basic_stringIcNS2_20StringStorageDefaultIcEEEES6_EE13stl_allocatorIS7_L18MemLabelIdentifier37ELi16EEE12__move_rangeEPS7_SC_SC_
5176:__ZNSt3__26vectorINS_4pairIN4core12basic_stringIcNS2_20StringStorageDefaultIcEEEES6_EE13stl_allocatorIS7_L18MemLabelIdentifier37ELi16EEE26__swap_out_circular_bufferERNS_14__split_bufferIS7_RSA_EEPS7_
5177:__ZN17PersistentManagerC2Eii
5178:__ZN25PathNamePersistentManagerD2Ev
5179:__ZN25PathNamePersistentManagerD0Ev
5180:__ZN25PathNamePersistentManager28InsertFileIdentifierInternalE14FileIdentifierb
5181:__ZN25PathNamePersistentManager22InsertPathNameInternalERKN4core12basic_stringIcNS0_20StringStorageDefaultIcEEEEb
5182:__ZN25PathNamePersistentManager24PathIDToPathNameInternalEi
5183:__ZN25PathNamePersistentManager30PathIDToFileIdentifierInternalEi
5184:__ZN17PersistentManager9AddStreamEv
5185:__ZNSt3__26vectorI10vector_mapIiiNS_4lessIiEE13stl_allocatorINS_4pairIiiEEL18MemLabelIdentifier37ELi16EEES4_IS9_LS7_37ELi16EEE21__push_back_slow_pathIKS9_EEvRT_
5186:__ZNSt3__26vectorI10vector_mapIiiNS_4lessIiEE13stl_allocatorINS_4pairIiiEEL18MemLabelIdentifier37ELi16EEES4_IS9_LS7_37ELi16EEE26__swap_out_circular_bufferERNS_14__split_bufferIS9_RSA_EE
5187:__ZNSt3__26__treeINS_12__value_typeIN4core12basic_stringIcNS2_20StringStorageDefaultIcEEEEiEENS_19__map_value_compareIS6_S7_NS_4lessIS6_EELb1EEENS_9allocatorIS7_EEE7destroyEPNS_11__tree_nodeIS7_PvEE
5188:__ZN17PersistentManagerD2Ev
5189:__ZNSt3__26__treeINS_12__value_typeIi26SerializedObjectIdentifierEENS_19__map_value_compareIiS3_NS_4lessIiEELb1EEENS_9allocatorIS3_EEE7destroyEPNS_11__tree_nodeIS3_PvEE
5190:__ZNSt3__26__treeINS_12__value_typeI26SerializedObjectIdentifieriEENS_19__map_value_compareIS2_S3_NS_4lessIS2_EELb1EEENS_9allocatorIS3_EEE7destroyEPNS_11__tree_nodeIS3_PvEE
5191:__Z20CleanupStdConvertersv
5192:__ZNSt3__26__treeIN4core12basic_stringIcNS1_20StringStorageDefaultIcEEEENS_4lessIS5_EE13stl_allocatorIS5_L18MemLabelIdentifier37ELi16EEE7destroyEPNS_11__tree_nodeIS5_PvEE
5193:__ZN14SafeBinaryRead21CleanupConverterTableEv
5194:__ZN17PersistentManagerD0Ev
5195:__ZN15dense_hashtableINSt3__24pairIKi17ThreadedAwakeDataEEi21InstanceIDHashFunctorN14dense_hash_mapIiS3_S5_NS0_8equal_toIiEENS0_9allocatorIS4_EEE9SelectKeyES8_SA_E14squash_deletedEv
5196:__Z23InitializeStdConvertersv
5197:__Z29StdTemplateConversionFunctionIfdEbPvR14SafeBinaryRead
5198:__ZN14SafeBinaryRead17RegisterConverterEPKcS1_PFbPvRS_E
5199:__Z29StdTemplateConversionFunctionIdfEbPvR14SafeBinaryRead
5200:__Z29StdTemplateConversionFunctionIifEbPvR14SafeBinaryRead
5201:__Z29StdTemplateConversionFunctionIyyEbPvR14SafeBinaryRead
5202:__Z29StdTemplateConversionFunctionIyiEbPvR14SafeBinaryRead
5203:__Z29StdTemplateConversionFunctionIytEbPvR14SafeBinaryRead
5204:__Z29StdTemplateConversionFunctionIyhEbPvR14SafeBinaryRead
5205:__Z29StdTemplateConversionFunctionIybEbPvR14SafeBinaryRead
5206:__Z29StdTemplateConversionFunctionIiyEbPvR14SafeBinaryRead
5207:__Z29StdTemplateConversionFunctionIiiEbPvR14SafeBinaryRead
5208:__Z29StdTemplateConversionFunctionIitEbPvR14SafeBinaryRead
5209:__Z29StdTemplateConversionFunctionIihEbPvR14SafeBinaryRead
5210:__Z29StdTemplateConversionFunctionIibEbPvR14SafeBinaryRead
5211:__Z29StdTemplateConversionFunctionIjyEbPvR14SafeBinaryRead
5212:__Z29StdTemplateConversionFunctionItyEbPvR14SafeBinaryRead
5213:__Z29StdTemplateConversionFunctionItiEbPvR14SafeBinaryRead
5214:__Z29StdTemplateConversionFunctionIttEbPvR14SafeBinaryRead
5215:__Z29StdTemplateConversionFunctionIthEbPvR14SafeBinaryRead
5216:__Z29StdTemplateConversionFunctionItbEbPvR14SafeBinaryRead
5217:__Z29StdTemplateConversionFunctionIsyEbPvR14SafeBinaryRead
5218:__Z29StdTemplateConversionFunctionIsiEbPvR14SafeBinaryRead
5219:__Z29StdTemplateConversionFunctionIhyEbPvR14SafeBinaryRead
5220:__Z29StdTemplateConversionFunctionIhiEbPvR14SafeBinaryRead
5221:__Z29StdTemplateConversionFunctionIhtEbPvR14SafeBinaryRead
5222:__Z29StdTemplateConversionFunctionIhhEbPvR14SafeBinaryRead
5223:__Z29StdTemplateConversionFunctionIhbEbPvR14SafeBinaryRead
5224:__Z29StdTemplateConversionFunctionIayEbPvR14SafeBinaryRead
5225:__Z29StdTemplateConversionFunctionIaiEbPvR14SafeBinaryRead
5226:__Z29StdTemplateConversionFunctionIatEbPvR14SafeBinaryRead
5227:__Z23ConvertIntegerToTypePtrIsEbPvR14SafeBinaryRead
5228:__Z23ConvertIntegerToTypePtrItEbPvR14SafeBinaryRead
5229:__Z23ConvertIntegerToTypePtrIiEbPvR14SafeBinaryRead
5230:__ZNSt3__23mapINS_4pairIPcS2_EEPFbPvR14SafeBinaryReadE20smaller_tstring_pairIPKcENS_9allocatorINS1_IKS3_S8_EEEEEixERSE_
5231:__ZN10FileSystem19SetCurrentDirectoryERKN4core12basic_stringIcNS0_20StringStorageDefaultIcEEEE
5232:__Z3md5PhiS_
5233:__Z11MD5ToStringPh
5234:__Z24CreateDirectoryRecursiveRKN4core12basic_stringIcNS_20StringStorageDefaultIcEEEE
5235:__ZL11md5_processP11md5_contextPh
5236:__Z10md5_finishP11md5_contextPh
5237:__ZN10FileSystem5StartEv
5238:__ZN16MemoryFileSystemC2EPKc
5239:__ZN16MemoryFileSystem16FindNodeOrCreateEPKcb
5240:__Z14SkipPathPrefixPKcS0_jb
5241:__ZN16MemoryFileSystemD2Ev
5242:__ZN16MemoryFileSystemD0Ev
5243:__ZN16MemoryFileSystem4OpenER13FileEntryData14FilePermission16FileAutoBehavior
5244:__ZN16MemoryFileSystem5CloseER13FileEntryData
5245:__ZN16MemoryFileSystem9SetLengthER13FileEntryDatay
5246:__ZNK16MemoryFileSystem4SizeERK13FileEntryData
5247:__ZNK16MemoryFileSystem9CanHandleEPKc
5248:__ZN16MemoryFileSystem10ToAbsoluteEPKc
5249:__ZN16MemoryFileSystem18IsAbsoluteFilePathEPKc
5250:__ZN16MemoryFileSystem4NameEv
5251:__ZNK16MemoryFileSystem6ParentERK13FileEntryDataRN4core12basic_stringIcNS3_20StringStorageDefaultIcEEEE
5252:__ZNK16MemoryFileSystem8FilenameERK13FileEntryData
5253:__ZNK16MemoryFileSystem5IsDirERK13FileEntryData
5254:__ZNK16MemoryFileSystem8IsHiddenERK13FileEntryData
5255:__ZNK16MemoryFileSystem12LastModifiedERK13FileEntryData
5256:__ZN16MemoryFileSystem8IsLockedERK13FileEntryData
5257:__ZN16MemoryFileSystem8SetFlagsER13FileEntryDatajj
5258:__ZN16MemoryFileSystem12CreateAsFileER13FileEntryData
5259:__ZN16MemoryFileSystem11CreateAsDirER13FileEntryData
5260:__ZN16MemoryFileSystem6DeleteER13FileEntryDatab
5261:__ZN16MemoryFileSystem4CopyER13FileEntryDataS1_
5262:__ZN16MemoryFileSystem10AtomicMoveER13FileEntryDataS1_
5263:__ZNK16MemoryFileSystem9EnumerateEPKcP13dynamic_arrayI13FileEntryInfoLj8EEbPPv19FileEnumerationFlag
5264:__ZNK16MemoryFileSystem6ExistsERK13FileEntryData
5265:__ZNK16MemoryFileSystem30GetRelativeCaseInsensitivePathEPKcRN4core12basic_stringIcNS2_20StringStorageDefaultIcEEEE
5266:__Z22ReplaceDirectoryInPathRKN4core12basic_stringIcNS_20StringStorageDefaultIcEEEES5_S5_
5267:__Z19StandardizePathNameRKN4core12basic_stringIcNS_20StringStorageDefaultIcEEEE
5268:__ZNSt3__26__treeINS_12__value_typeIN4core12basic_stringIcNS2_20StringStorageDefaultIcEEEEPN16MemoryFileSystem4NodeEEENS_19__map_value_compareIS6_SA_NS_4lessIS6_EELb1EEE13stl_allocatorISA_L18MemLabelIdentifier54ELi16EEE7destroyEPNS_11__tree_nodeISA_PvEE
5269:__Z24RegisterAllInternalCallsv
5270:__Z33SetCaptureAllKeyboardInputEnabledb
5271:__ZL18MouseButtonHandleriPK20EmscriptenMouseEventPv
5272:__ZL16MouseMoveHandleriPK20EmscriptenMouseEventPv
5273:__ZL17MouseWheelHandleriPK20EmscriptenWheelEventPv
5274:__ZL12TouchHandleriPK20EmscriptenTouchEventPv
5275:__ZL13MotionHandleriPK27EmscriptenDeviceMotionEventPv
5276:__Z19NormalizeWheelInputf
5277:__ZN10InputEvent4InitEi
5278:__ZN15GUIEventManager10QueueEventERK10InputEvent
5279:__ZNSt3__25dequeI10InputEventNS_9allocatorIS1_EEE19__add_back_capacityEv
5280:__ZN10InputEventC2ERKS_
5281:__ZL10KeyHandleriPK23EmscriptenKeyboardEventPv
5282:__ZL11TextHandleriPK23EmscriptenKeyboardEventPv
5283:__Z18ConvertUTF16toUTF8PKtiRN4core12basic_stringIcNS1_20StringStorageDefaultIcEEEE
5284:__Z16SanitizeKeyEventR10InputEvent
5285:__ZN12InputManager30GetEatKeyPressOnTextFieldFocusEv
5286:__ZN10systeminfo24GetOperatingSystemFamilyEv
5287:__ZN10systeminfo18GetOperatingSystemEv
5288:__ZN13MemoryManager16ThreadInitializeEj
5289:__ZN13MemoryManager27InitializeDefaultAllocatorsEv
5290:__ZN14StackAllocatorC2Ej18MemLabelIdentifierPKc
5291:__ZN14StackAllocatorD2Ev
5292:__ZN14StackAllocatorD0Ev
5293:__ZNK14StackAllocator8ContainsEPKv
5294:__ZNK14StackAllocator10GetPtrSizeEPKv
5295:__ZN14StackAllocator16FrameMaintenanceEb
5296:__ZN13MemoryManager18LowLevelReallocateEPvjj
5297:__ZN12TLSAllocatorI14StackAllocatorEC2EPKc
5298:__ZN13BaseAllocatorC2EPKc
5299:__ZN12TLSAllocatorI14StackAllocatorED2Ev
5300:__ZN12TLSAllocatorI14StackAllocatorED0Ev
5301:__ZN12TLSAllocatorI14StackAllocatorE10DeallocateEPv
5302:__ZNK12TLSAllocatorI14StackAllocatorE8ContainsEPKv
5303:__ZNK12TLSAllocatorI14StackAllocatorE10IsAssignedEv
5304:__ZNK12TLSAllocatorI14StackAllocatorE22GetAllocatedMemorySizeEv
5305:__ZNK12TLSAllocatorI14StackAllocatorE21GetReservedMemorySizeEv
5306:__ZNK12TLSAllocatorI14StackAllocatorE24GetBookKeepingMemorySizeEv
5307:__ZN12TLSAllocatorI14StackAllocatorE16ThreadInitializeEP13BaseAllocator
5308:__ZN12TLSAllocatorI14StackAllocatorE13ThreadCleanupEv
5309:__ZN12TLSAllocatorI14StackAllocatorE16FrameMaintenanceEb
5310:__ZNK14StackAllocator20IsOverflowAllocationEPKv
5311:__ZN13BaseAllocator13TryDeallocateEPv
5312:__ZN25ThreadsafeLinearAllocatorC2EiiPKc
5313:__ZN25ThreadsafeLinearAllocatorD2Ev
5314:__ZN25ThreadsafeLinearAllocatorD0Ev
5315:__ZN25ThreadsafeLinearAllocator8AllocateEji
5316:__ZN25ThreadsafeLinearAllocator10ReallocateEPvji
5317:__ZN25ThreadsafeLinearAllocator10DeallocateEPv
5318:__ZN25ThreadsafeLinearAllocator13TryDeallocateEPv
5319:__ZNK25ThreadsafeLinearAllocator8ContainsEPKv
5320:__ZNK25ThreadsafeLinearAllocator10GetPtrSizeEPKv
5321:__ZNK25ThreadsafeLinearAllocator22GetAllocatedMemorySizeEv
5322:__ZNK25ThreadsafeLinearAllocator21GetReservedMemorySizeEv
5323:__ZN25ThreadsafeLinearAllocator16FrameMaintenanceEb
5324:__ZN21UnityDefaultAllocatorI17LowLevelAllocatorEC2EPKc
5325:__ZN21UnityDefaultAllocatorI17LowLevelAllocatorED2Ev
5326:__ZN21UnityDefaultAllocatorI17LowLevelAllocatorED0Ev
5327:__ZN21UnityDefaultAllocatorI17LowLevelAllocatorE8AllocateEji
5328:__ZN21UnityDefaultAllocatorI17LowLevelAllocatorE10ReallocateEPvji
5329:__ZN21UnityDefaultAllocatorI17LowLevelAllocatorE10DeallocateEPv
5330:__ZNK21UnityDefaultAllocatorI17LowLevelAllocatorE8ContainsEPKv
5331:__ZNK21UnityDefaultAllocatorI17LowLevelAllocatorE14AllocationPageIL11RequestType1EEEbPKv
5332:__ZN17LowLevelAllocator4FreeEPvj
5333:__ZN17LowLevelAllocator7ReallocEPvjj
5334:__ZNK21UnityDefaultAllocatorI17LowLevelAllocatorE14AllocationPageIL11RequestType0EEEbPKv
5335:__ZN13MemoryManager17LowLevelCAllocateEjj
5336:__ZN17LowLevelAllocator6MallocEj
5337:__Z20SetStackTraceLogType17StackTraceLogType
5338:__ZN13ScreenManager24SetIsFullScreenImmediateEb
5339:__Z27FindActiveTransformWithPathPKc
5340:__ZN9Scripting20SendScriptingMessageER10GameObjectPKc18ScriptingObjectPtr
5341:__ZN9Scripting16FindMethodCachedE17ScriptingClassPtrPKc
5342:__ZN9Scripting26GetMethodWithSearchOptionsE17ScriptingClassPtrPKcN24ScriptingMethodFiltering18MethodSearchFilterE
5343:__Z20GetGameObjectManagerv
5344:__ZL31FindActiveTransformWithPathImplPKcR10GameObjectb
5345:__Z29FindRelativeTransformWithPathR9TransformPKcb
5346:__ZN5Unity9Component16CheckConsistencyEv
5347:__ZNK5Unity9Component7GetNameEv
5348:__ZN5Unity9Component7SetNameEPKc
5349:__ZN9Behaviour10DeactivateE19DeactivateOperation
5350:__ZN9Behaviour10SetEnabledEb
5351:__Z25FindAncestorComponentImplR10GameObjectPKN5Unity4TypeE
5352:__ZN9Behaviour8TransferI14SafeBinaryReadEEvRT_
5353:__ZN5Unity9Component8TransferI14SafeBinaryReadEEvRT_
5354:__ZN9Behaviour8TransferI24GenerateTypeTreeTransferEEvRT_
5355:__ZN5Unity9Component8TransferI24GenerateTypeTreeTransferEEvRT_
5356:__ZN9Behaviour8TransferI17RemapPPtrTransferEEvRT_
5357:__ZN5Unity9Component8TransferI17RemapPPtrTransferEEvRT_
5358:__ZN9Behaviour8TransferI18StreamedBinaryReadILb0EEEEvRT_
5359:__ZN5Unity9Component8TransferI18StreamedBinaryReadILb0EEEEvRT_
5360:__ZN9Behaviour8TransferI19StreamedBinaryWriteILb0EEEEvRT_
5361:__ZN5Unity9Component8TransferI19StreamedBinaryWriteILb0EEEEvRT_
5362:__ZN9Behaviour13AwakeFromLoadE17AwakeFromLoadMode
5363:__ZNK5Unity9Component26GetTypeInfoVirtualInternalEv
5364:__ZN5Unity9Component23VirtualRedirectTransferER24GenerateTypeTreeTransfer
5365:__ZN5Unity9Component23VirtualRedirectTransferER14SafeBinaryRead
5366:__ZN5Unity9Component10SetEnabledEb
5367:__ZN9BehaviourD2Ev
5368:__ZN9BehaviourD0Ev
5369:__ZNK9Behaviour26GetTypeInfoVirtualInternalEv
5370:__ZN9Behaviour23VirtualRedirectTransferER24GenerateTypeTreeTransfer
5371:__ZN9Behaviour23VirtualRedirectTransferER14SafeBinaryRead
5372:__ZN11AssetBundleD2Ev
5373:__ZN11AssetBundleD0Ev
5374:__ZNK11AssetBundle26GetTypeInfoVirtualInternalEv
5375:__ZN11AssetBundle23VirtualRedirectTransferER19StreamedBinaryWriteILb0EE
5376:__ZN11AssetBundle23VirtualRedirectTransferER18StreamedBinaryReadILb0EE
5377:__ZN11AssetBundle23VirtualRedirectTransferER17RemapPPtrTransfer
5378:__ZN11AssetBundle23VirtualRedirectTransferER24GenerateTypeTreeTransfer
5379:__ZN11AssetBundle23VirtualRedirectTransferER14SafeBinaryRead
5380:__ZN11AssetBundle8TransferI14SafeBinaryReadEEvRT_
5381:__ZN14SafeBinaryRead12IsOldVersionEi
5382:__ZN14SafeBinaryRead19TransferSTLStyleMapINSt3__28multimapIN4core12basic_stringIcNS3_20StringStorageDefaultIcEEEE4PPtrI6ObjectENS1_4lessIS7_EENS1_9allocatorINS1_4pairIKS7_SA_EEEEEEEEvRT_17TransferMetaFlags
5383:__ZNSt3__26__treeINS_12__value_typeIN4core12basic_stringIcNS2_20StringStorageDefaultIcEEEEN11AssetBundle9AssetInfoEEENS_19__map_value_compareIS6_S9_NS_4lessIS6_EELb1EEENS_9allocatorIS9_EEE7destroyEPNS_11__tree_nodeIS9_PvEE
5384:__ZNSt3__26__treeINS_12__value_typeIN4core12basic_stringIcNS2_20StringStorageDefaultIcEEEE4PPtrI6ObjectEEENS_19__map_value_compareIS6_SA_NS_4lessIS6_EELb1EEENS_9allocatorISA_EEE7destroyEPNS_11__tree_nodeISA_PvEE
5385:__ZN14SafeBinaryRead19TransferSTLStyleMapINSt3__28multimapIN4core12basic_stringIcNS3_20StringStorageDefaultIcEEEEN11AssetBundle9AssetInfoENS1_4lessIS7_EENS1_9allocatorINS1_4pairIKS7_S9_EEEEEEEEvRT_17TransferMetaFlags
5386:__ZN11AssetBundle9AssetInfo8TransferI14SafeBinaryReadEEvRT_
5387:__ZN14SafeBinaryRead8TransferI14ConstantStringEEvRT_PKc17TransferMetaFlags
5388:__ZN14SafeBinaryRead21TransferSTLStyleArrayINSt3__26vectorI14ConstantStringNS1_9allocatorIS3_EEEEEEvRT_17TransferMetaFlags
5389:__ZN11AssetBundle44BuildLookupAndNameContainerFromPathContainerEv
5390:__ZN17PersistentManager18GetSerializedTypesERK13dynamic_arrayIiLj4EERS0_IPKN5Unity4TypeELj4EE
5391:__Z14resize_trimmedINSt3__26vectorI14ConstantStringNS0_9allocatorIS2_EEEEEvRT_j
5392:__ZNSt3__26vectorI14ConstantStringNS_9allocatorIS1_EEE6assignINS_11__wrap_iterIPS1_EEEENS_9enable_ifIXaasr21__is_forward_iteratorIT_EE5valuesr16is_constructibleIS1_NS_15iterator_traitsISA_E9referenceEEE5valueEvE4typeESA_SA_
5393:__ZNSt3__26vectorI14ConstantStringNS_9allocatorIS1_EEE8__appendEj
5394:__ZN14ConstantString6assignERKS_
5395:__ZN15SerializeTraitsINSt3__24pairIN4core12basic_stringIcNS2_20StringStorageDefaultIcEEEEN11AssetBundle9AssetInfoEEEE8TransferI14SafeBinaryReadEEvRS9_RT_
5396:__ZN15SerializeTraitsINSt3__24pairIN4core12basic_stringIcNS2_20StringStorageDefaultIcEEEE4PPtrI6ObjectEEEE8TransferI14SafeBinaryReadEEvRSA_RT_
5397:__ZN11AssetBundle8TransferI24GenerateTypeTreeTransferEEvRT_
5398:__ZN24GenerateTypeTreeTransfer19TransferSTLStyleMapINSt3__28multimapIN4core12basic_stringIcNS3_20StringStorageDefaultIcEEEEN11AssetBundle9AssetInfoENS1_4lessIS7_EENS1_9allocatorINS1_4pairIKS7_S9_EEEEEEEEvRT_17TransferMetaFlags
5399:__ZN24GenerateTypeTreeTransfer8TransferIN11AssetBundle9AssetInfoEEEvRT_PKc17TransferMetaFlags
5400:__ZN11AssetBundle8TransferI17RemapPPtrTransferEEvRT_
5401:__ZN11AssetBundle8TransferI18StreamedBinaryReadILb0EEEEvRT_
5402:__ZN18StreamedBinaryReadILb0EE19TransferSTLStyleMapINSt3__28multimapIN4core12basic_stringIcNS4_20StringStorageDefaultIcEEEEN11AssetBundle9AssetInfoENS2_4lessIS8_EENS2_9allocatorINS2_4pairIKS8_SA_EEEEEEEEvRT_17TransferMetaFlags
5403:__ZN18StreamedBinaryReadILb0EE21TransferSTLStyleArrayINSt3__26vectorI14ConstantStringNS2_9allocatorIS4_EEEEEEvRT_17TransferMetaFlags
5404:__ZN11AssetBundle8TransferI19StreamedBinaryWriteILb0EEEEvRT_
5405:__ZN19StreamedBinaryWriteILb0EE19TransferSTLStyleMapINSt3__28multimapIN4core12basic_stringIcNS4_20StringStorageDefaultIcEEEEN11AssetBundle9AssetInfoENS2_4lessIS8_EENS2_9allocatorINS2_4pairIKS8_SA_EEEEEEEEvRT_17TransferMetaFlags
5406:__ZN19StreamedBinaryWriteILb0EE21TransferSTLStyleArrayINSt3__26vectorI14ConstantStringNS2_9allocatorIS4_EEEEEEvRT_17TransferMetaFlags
5407:__ZN33AssetBundleLoadFromAsyncOperationD2Ev
5408:__ZN33AssetBundleLoadFromAsyncOperationD0Ev
5409:__ZN33AssetBundleLoadFromAsyncOperation6IsDoneEv
5410:__ZN33AssetBundleLoadFromAsyncOperation19IntegrateMainThreadEv
5411:__ZN33AssetBundleLoadFromAsyncOperation33TryToLoadAndInitializeAssetBundleEv
5412:__Z20GetAssetBundlePrefixRKN4core12basic_stringIcNS_20StringStorageDefaultIcEEEE
5413:__ZN33AssetBundleLoadFromAsyncOperation9SetResultENS_21AssetBundleLoadResultEPKc
5414:__ZN17PersistentManager14IsStreamLoadedERKN4core12basic_stringIcNS0_20StringStorageDefaultIcEEEE
5415:__Z24GetAssetBundleFileSystemv
5416:__ZN21AssetBundleFileSystem10AddArchiveEP20ArchiveStorageReader
5417:__ZN17PersistentManager14LoadFileStreamERKN4core12basic_stringIcNS0_20StringStorageDefaultIcEEEES6_24TransferInstructionFlagsii
5418:__ZN21AssetBundleFileSystem13RemoveArchiveEP20ArchiveStorageReader
5419:__Z28TestAssetBundleCompatibilityRKN4core12basic_stringIcNS_20StringStorageDefaultIcEEEES5_RS3_
5420:__ZN33AssetBundleLoadFromAsyncOperation21InitializeAssetBundleERKN4core12basic_stringIcNS0_20StringStorageDefaultIcEEEE
5421:__ZN17PersistentManager24GetTypeFromPathAndFileIDERKN4core12basic_stringIcNS0_20StringStorageDefaultIcEEEEx
5422:__ZN11AssetBundleC2E18MemLabelIdentifier18ObjectCreationMode
5423:__Z28TestAssetBundleCompatibilityR11AssetBundleRKN4core12basic_stringIcNS1_20StringStorageDefaultIcEEEERS5_
5424:__Z17UnloadAssetBundleR11AssetBundleb
5425:__ZN18AssetBundleManager19RegisterAssetBundleEP11AssetBundle
5426:__Z31GetAllScenePathsFromAssetBundleR11AssetBundleRNSt3__26vectorIN4core12basic_stringIcNS3_20StringStorageDefaultIcEEEENS1_9allocatorIS7_EEEE
5427:__ZN13sorted_vectorINSt3__24pairI14ConstantStringP11AssetBundleEEN10vector_mapIS2_S4_NS0_4lessIS2_EENS0_9allocatorIS5_EEE13value_compareESA_E14find_or_insertIS2_S4_EEvRPT0_RKT_
5428:__ZN15dense_hashtableINSt3__24pairIKN4core12basic_stringIcNS2_20StringStorageDefaultIcEEEEP11AssetBundleEES6_20StringHash32FunctionIS6_EN14dense_hash_mapIS6_S9_SC_NS0_8equal_toIS6_EENS0_9allocatorISA_EEE9SelectKeyESF_SH_E12resize_deltaEjj
5429:__ZN15dense_hashtableINSt3__24pairIKN4core12basic_stringIcNS2_20StringStorageDefaultIcEEEEP11AssetBundleEES6_20StringHash32FunctionIS6_EN14dense_hash_mapIS6_S9_SC_NS0_8equal_toIS6_EENS0_9allocatorISA_EEE9SelectKeyESF_SH_E4findERS7_
5430:__ZNSt3__26vectorINS_4pairI14ConstantStringP11AssetBundleEENS_9allocatorIS5_EEE6insertENS_11__wrap_iterIPKS5_EERSA_
5431:__ZN18AssetBundleManager17UnloadAssetBundleEP11AssetBundle
5432:__Z28GetAbsoluteAssetBundlePrefixRKN4core12basic_stringIcNS_20StringStorageDefaultIcEEEE
5433:__Z43DestroyWithoutLoadingButDontDestroyFromFilei
5434:__ZN17PersistentManager26GetLoadedInstanceIDsAtPathERKN4core12basic_stringIcNS0_20StringStorageDefaultIcEEEEPNSt3__23setIiNS7_4lessIiEENS7_9allocatorIiEEEE
5435:__Z22delete_object_internalP6Object
5436:__ZN17PersistentManager21RemoveObjectsFromPathERKN4core12basic_stringIcNS0_20StringStorageDefaultIcEEEE
5437:__Z17GetCachingManagerv
5438:__ZN14CachingManager20DidUnloadAssetBundleERKN4core12basic_stringIcNS0_20StringStorageDefaultIcEEEE
5439:__Z21DeleteFileOrDirectoryRKN4core12basic_stringIcNS_20StringStorageDefaultIcEEEE
5440:__ZN10FileSystem23UnmountMemoryFileSystemEv
5441:__ZNK10FileSystem6DeleteEPKcb
5442:__ZN5Cache20DidUnloadAssetBundleERKN4core12basic_stringIcNS0_20StringStorageDefaultIcEEEE
5443:__ZN15FileSystemEntry4LockE12FileLockModeP12FileAccessor
5444:__ZN15FileSystemEntry6DeleteEb
5445:__ZN14CachingManager7DisposeEv
5446:__Z39GetDefaultApplicationIdentifierForCachev
5447:__ZN14CachingManager15SetCurrentCacheERKN4core12basic_stringIcNS0_20StringStorageDefaultIcEEEExb
5448:__ZN14CachingManager15ClearTempFolderEv
5449:__Z21GetCachingManagerPathRKN4core12basic_stringIcNS_20StringStorageDefaultIcEEEEb
5450:__Z20GetPlatformCachePathv
5451:__ZN10systeminfo21GetPersistentDataPathEv
5452:__ZN5CacheD2Ev
5453:__ZN5Cache18WriteCacheInfoFileEb
5454:__ZN5Cache14ReadCacheIndexERKN4core12basic_stringIcNS0_20StringStorageDefaultIcEEEEb
5455:__ZN5Cache17ReadCacheInfoFileERKN4core12basic_stringIcNS0_20StringStorageDefaultIcEEEEPlS7_
5456:__ZN5Cache22ReadCacheIndexThreadedEPv
5457:__Z22GetFolderSizeRecursiveRKN4core12basic_stringIcNS_20StringStorageDefaultIcEEEE
5458:__ZN5Cache10AddToCacheERKN4core12basic_stringIcNS0_20StringStorageDefaultIcEEEEi
5459:__ZN14CachingManager12ReadInfoFileERKN4core12basic_stringIcNS0_20StringStorageDefaultIcEEEEPlPNSt3__26vectorIS4_NS8_9allocatorIS4_EEEE
5460:__Z11StringToIntPKc
5461:__Z18ReadStringFromFilePN4core17string_with_labelILi1EEERKNS_12basic_stringIcNS_20StringStorageDefaultIcEEEE
5462:__Z27FindSeparatedPathComponentsPKcjc
5463:__Z13GetFileLengthRKN4core12basic_stringIcNS_20StringStorageDefaultIcEEEE
5464:__Z12SetFileFlagsRKN4core12basic_stringIcNS_20StringStorageDefaultIcEEEEjj
5465:__ZN4File5WriteEPKvj
5466:__ZN4FileD2Ev
5467:__ZN15FileSystemEntry8SetFlagsEjj
5468:__ZNSt3__26__treeINS_12__value_typeIN4core12basic_stringIcNS2_20StringStorageDefaultIcEEEEP15FileSystemEntryEENS_19__map_value_compareIS6_S9_NS_4lessIS6_EELb1EEENS_9allocatorIS9_EEE7destroyEPNS_11__tree_nodeIS9_PvEE
5469:__ZNSt3__26__treeIN5Cache10CachedFileENS_4lessIS2_EENS_9allocatorIS2_EEE7destroyEPNS_11__tree_nodeIS2_PvEE
5470:__ZN8Remapper33RemoveCompleteSerializedFileIndexEiRNSt3__26vectorIiNS0_9allocatorIiEEEE
5471:__ZN8Remapper41GetAllLoadedObjectsForSerializedFileIndexEiPNSt3__23setIiNS0_4lessIiEENS0_9allocatorIiEEEE
5472:__ZN13sorted_vectorINSt3__24pairI14ConstantStringP11AssetBundleEEN10vector_mapIS2_S4_NS0_4lessIS2_EENS0_9allocatorIS5_EEE13value_compareESA_E9erase_oneIS2_EEjRKT_
5473:__ZN15dense_hashtableINSt3__24pairIKN4core12basic_stringIcNS2_20StringStorageDefaultIcEEEEP11AssetBundleEES6_20StringHash32FunctionIS6_EN14dense_hash_mapIS6_S9_SC_NS0_8equal_toIS6_EENS0_9allocatorISA_EEE9SelectKeyESF_SH_E11set_deletedER30dense_hashtable_const_iteratorISA_S6_SC_SJ_SF_SH_E
5474:__ZNK13BuildSettings15GetHashOfScriptERK7Hash128
5475:__ZNK13BuildSettings13GetHashOfTypeEPKN5Unity4TypeE
5476:__ZN17ArchiveFileSystem14UnmountArchiveEP20ArchiveStorageReader
5477:__ZNK17ArchiveFileSystem18HasMountedArchivesEv
5478:__ZN10FileSystem14UnmountHandlerEP17FileSystemHandler
5479:__ZN17ArchiveFileSystem13RemoveStorageEP20ArchiveStorageReader
5480:__ZN10FileSystem12MountHandlerEP17FileSystemHandler
5481:__ZN17ArchiveFileSystem12MountArchiveEP20ArchiveStorageReader
5482:__ZN21AssetBundleFileSystemC2EPKc
5483:__ZN14dense_hash_mapIN4core12basic_stringIcNS0_20StringStorageDefaultIcEEEES4_20StringHash32FunctionIS4_ENSt3__28equal_toIS4_EE13stl_allocatorINS7_4pairIKS4_S4_EEL18MemLabelIdentifier54ELi16EEE13set_empty_keyERSC_
5484:__ZN14dense_hash_mapIN4core12basic_stringIcNS0_20StringStorageDefaultIcEEEES4_20StringHash32FunctionIS4_ENSt3__28equal_toIS4_EE13stl_allocatorINS7_4pairIKS4_S4_EEL18MemLabelIdentifier54ELi16EEE15set_deleted_keyERSC_
5485:__ZN15dense_hashtableINSt3__24pairIKN4core12basic_stringIcNS2_20StringStorageDefaultIcEEEES6_EES6_20StringHash32FunctionIS6_EN14dense_hash_mapIS6_S6_SA_NS0_8equal_toIS6_EE13stl_allocatorIS8_L18MemLabelIdentifier54ELi16EEE9SelectKeyESD_SG_EC2ERKSJ_j
5486:__ZN15dense_hashtableINSt3__24pairIKN4core12basic_stringIcNS2_20StringStorageDefaultIcEEEES6_EES6_20StringHash32FunctionIS6_EN14dense_hash_mapIS6_S6_SA_NS0_8equal_toIS6_EE13stl_allocatorIS8_L18MemLabelIdentifier54ELi16EEE9SelectKeyESD_SG_E4swapERSJ_
5487:__ZN15dense_hashtableINSt3__24pairIKN4core12basic_stringIcNS2_20StringStorageDefaultIcEEEES6_EES6_20StringHash32FunctionIS6_EN14dense_hash_mapIS6_S6_SA_NS0_8equal_toIS6_EE13stl_allocatorIS8_L18MemLabelIdentifier54ELi16EEE9SelectKeyESD_SG_ED2Ev
5488:__ZN15dense_hashtableINSt3__24pairIKN4core12basic_stringIcNS2_20StringStorageDefaultIcEEEES6_EES6_20StringHash32FunctionIS6_EN14dense_hash_mapIS6_S6_SA_NS0_8equal_toIS6_EE13stl_allocatorIS8_L18MemLabelIdentifier54ELi16EEE9SelectKeyESD_SG_E9set_valueEPS8_RKS8_
5489:__ZN15dense_hashtableINSt3__24pairIKN4core12basic_stringIcNS2_20StringStorageDefaultIcEEEES6_EES6_20StringHash32FunctionIS6_EN14dense_hash_mapIS6_S6_SA_NS0_8equal_toIS6_EE13stl_allocatorIS8_L18MemLabelIdentifier54ELi16EEE9SelectKeyESD_SG_E9copy_fromERKSJ_j
5490:__ZN15dense_hashtableINSt3__24pairIKN4core12basic_stringIcNS2_20StringStorageDefaultIcEEEES6_EES6_20StringHash32FunctionIS6_EN14dense_hash_mapIS6_S6_SA_NS0_8equal_toIS6_EE13stl_allocatorIS8_L18MemLabelIdentifier54ELi16EEE9SelectKeyESD_SG_E5clearEv
5491:__ZN15dense_hashtableINSt3__24pairIKN4core12basic_stringIcNS2_20StringStorageDefaultIcEEEES6_EES6_20StringHash32FunctionIS6_EN14dense_hash_mapIS6_S6_SA_NS0_8equal_toIS6_EE13stl_allocatorIS8_L18MemLabelIdentifier54ELi16EEE9SelectKeyESD_SG_E12expand_arrayEjN21dense_hash_map_traits17integral_constantIbLb0EEE
5492:__ZN30dense_hashtable_const_iteratorINSt3__24pairIKN4core12basic_stringIcNS2_20StringStorageDefaultIcEEEES6_EES6_20StringHash32FunctionIS6_EN14dense_hash_mapIS6_S6_SA_NS0_8equal_toIS6_EE13stl_allocatorIS8_L18MemLabelIdentifier54ELi16EEE9SelectKeyESD_SG_EC2EPK15dense_hashtableIS8_S6_SA_SI_SD_SG_EPKS8_SP_b
5493:__ZN30dense_hashtable_const_iteratorINSt3__24pairIKN4core12basic_stringIcNS2_20StringStorageDefaultIcEEEES6_EES6_20StringHash32FunctionIS6_EN14dense_hash_mapIS6_S6_SA_NS0_8equal_toIS6_EE13stl_allocatorIS8_L18MemLabelIdentifier54ELi16EEE9SelectKeyESD_SG_EppEv
5494:__ZN21AssetBundleFileSystemD2Ev
5495:__ZN21AssetBundleFileSystemD0Ev
5496:__ZNK21AssetBundleFileSystem9CanHandleEPKc
5497:__ZN21AssetBundleFileSystem10ToAbsoluteEPKc
5498:__ZN21AssetBundleFileSystem19InitializeFileEntryER13FileEntryData
5499:__ZN21AssetBundleFileSystem4NameEv
5500:__ZNK17FileSystemHandler8IsHiddenERK13FileEntryData
5501:__ZNK17FileSystemHandler12LastModifiedERK13FileEntryData
5502:__ZN15dense_hashtableINSt3__24pairIKN4core12basic_stringIcNS2_20StringStorageDefaultIcEEEES6_EES6_20StringHash32FunctionIS6_EN14dense_hash_mapIS6_S6_SA_NS0_8equal_toIS6_EE13stl_allocatorIS8_L18MemLabelIdentifier54ELi16EEE9SelectKeyESD_SG_E4findERS7_
5503:__ZNK10FileSystem17GetHandlerForPathEPKc
5504:__ZNK15dense_hashtableINSt3__24pairIKN4core12basic_stringIcNS2_20StringStorageDefaultIcEEEES6_EES6_20StringHash32FunctionIS6_EN14dense_hash_mapIS6_S6_SA_NS0_8equal_toIS6_EE13stl_allocatorIS8_L18MemLabelIdentifier54ELi16EEE9SelectKeyESD_SG_E23find_position_with_hashERS7_j
5505:__ZNK33AssetBundleLoadFromAsyncOperation12GetResultStrENS_21AssetBundleLoadResultE
5506:__ZN39AssetBundleLoadFromStreamAsyncOperation11GetProgressEv
5507:__ZN39AssetBundleLoadFromStreamAsyncOperation11SetPriorityEi
5508:__ZN39AssetBundleLoadFromStreamAsyncOperation35OnArchiveStorageBlocksInfoProcessedEP23ArchiveStorageConverterP20ArchiveStorageReader
5509:__ZN39AssetBundleLoadFromStreamAsyncOperation38OnArchiveStorageDirectoryInfoProcessedEP23ArchiveStorageConverterP20ArchiveStorageReader
5510:__ZThn188_N39AssetBundleLoadFromStreamAsyncOperation35OnArchiveStorageBlocksInfoProcessedEP23ArchiveStorageConverterP20ArchiveStorageReader
5511:__ZThn188_N39AssetBundleLoadFromStreamAsyncOperation38OnArchiveStorageDirectoryInfoProcessedEP23ArchiveStorageConverterP20ArchiveStorageReader
5512:__ZNK23ArchiveStorageConverter16GetDirectoryInfoEv
5513:__ZN39AssetBundleLoadFromStreamAsyncOperation22TryInitializeDiskCacheEv
5514:__ZN39AssetBundleLoadFromStreamAsyncOperation24TryInitializeMemoryCacheEv
5515:__ZN4File4LockENS_8LockModeEb
5516:__ZN23ArchiveStorageConverter23InitializeTargetArchiveERKN4core12basic_stringIcNS0_20StringStorageDefaultIcEEEE15CompressionTypej
5517:__ZN21ArchiveStorageCreator10InitializeERKN4core12basic_stringIcNS0_20StringStorageDefaultIcEEEEb
5518:__ZN21ArchiveStorageCreator10BeginBlockEb15CompressionType16CompressionLevelj
5519:__ZN21ArchiveStorageCreatorD2Ev
5520:__ZNSt3__26__treeINS_12__value_typeIN4core12basic_stringIcNS2_20StringStorageDefaultIcEEEEjEENS_19__map_value_compareIS6_S7_NS_4lessIS6_EELb1EEE13stl_allocatorIS7_L18MemLabelIdentifier54ELi16EEE7destroyEPNS_11__tree_nodeIS7_PvEE
5521:__ZN21ArchiveStorageCreator17StoreCurrentBlockEb
5522:__Z16CreateCompressor15CompressionType18MemLabelIdentifier
5523:__ZNK13Lz4Compressor29CalculateCompressedBufferSizeEj
5524:__ZNK13Lz4Compressor14CompressMemoryEPKvjPvPj16CompressionLevel
5525:_UNITY_LZ4_compress_limitedOutput
5526:_LZ4_compress_generic
5527:_UNITY_LZ4_compressBound
5528:__ZN21ArchiveStorageCreator11StoreStreamEb
5529:__ZN21ArchiveStorageCreator10StoreChunkEv
5530:__ZNSt3__26vectorIN20ArchiveStorageHeader12StorageBlockE13stl_allocatorIS2_L18MemLabelIdentifier54ELi16EEE21__push_back_slow_pathIKS2_EEvRT_
5531:__ZN12FileAccessor9SetLengthEy
5532:__ZN10FileSystem21MountMemoryFileSystemEv
5533:__ZNK39AssetBundleLoadFromStreamAsyncOperation25CreateTempOutputDirectoryERKN4core12basic_stringIcNS0_20StringStorageDefaultIcEEEE
5534:__Z25CreateUniqueTempDirectoryRKN4core12basic_stringIcNS_20StringStorageDefaultIcEEEEj
5535:__ZN9UnityGUID4InitEv
5536:__Z12GUIDToStringRK9UnityGUID
5537:__Z12GUIDToStringRK9UnityGUIDPc
5538:__ZN5Cache9GetFolderERKN4core12basic_stringIcNS0_20StringStorageDefaultIcEEEEb
5539:__ZNK23ArchiveStorageConverter26GetUncompressedArchiveSizeEv
5540:__ZN5Cache32GetCachingDiskSpaceFreeAndUsableEv
5541:__ZN5Cache15FreeUsableSpaceEj
5542:__ZN14CachingManager13GetTempFolderEv
5543:__ZNK10FileSystem21GetAvailableDiskSpaceEPKcRy
5544:__ZN39AssetBundleLoadFromStreamAsyncOperationD2Ev
5545:__ZN23ArchiveStorageConverterD2Ev
5546:__ZN39AssetBundleLoadFromStreamAsyncOperationD0Ev
5547:__ZN18StreamedBinaryReadILb0EE10ReadDirectEPvi
5548:__ZN16LevelGameManagerD2Ev
5549:__ZN11GameManager17MainThreadCleanupEv
5550:__ZNK16LevelGameManager26GetTypeInfoVirtualInternalEv
5551:__ZN16LevelGameManager23VirtualRedirectTransferER24GenerateTypeTreeTransfer
5552:__ZN16LevelGameManager23VirtualRedirectTransferER14SafeBinaryRead
5553:__ZNK11GameManager26GetTypeInfoVirtualInternalEv
5554:__ZNK17GlobalGameManager26GetTypeInfoVirtualInternalEv
5555:__ZN17GlobalGameManager23VirtualRedirectTransferER24GenerateTypeTreeTransfer
5556:__ZN17GlobalGameManager23VirtualRedirectTransferER14SafeBinaryRead
5557:__ZN10TagManagerD2Ev
5558:__ZN10TagManagerD0Ev
5559:__ZN10TagManager5ResetEv
5560:__ZNK10TagManager26GetTypeInfoVirtualInternalEv
5561:__ZN10TagManager23VirtualRedirectTransferER19StreamedBinaryWriteILb0EE
5562:__ZN10TagManager23VirtualRedirectTransferER18StreamedBinaryReadILb0EE
5563:__ZN10TagManager23VirtualRedirectTransferER17RemapPPtrTransfer
5564:__ZN10TagManager23VirtualRedirectTransferER24GenerateTypeTreeTransfer
5565:__ZN10TagManager23VirtualRedirectTransferER14SafeBinaryRead
5566:__ZN10TagManager8TransferI14SafeBinaryReadEEvRT_
5567:__ZN10TagManager32RegisterDefaultTagsAndLayerMasksEv
5568:__ZN10TagManager11RegisterTagEjRKN4core12basic_stringIcNS0_20StringStorageDefaultIcEEEE
5569:__ZN10TagManager13RegisterLayerEjRKN4core12basic_stringIcNS0_20StringStorageDefaultIcEEEE
5570:__ZN14SafeBinaryRead21TransferSTLStyleArrayINSt3__26vectorI17SortingLayerEntryNS1_9allocatorIS3_EEEEEEvRT_17TransferMetaFlags
5571:__ZN10TagManager23AddDefaultLayerIfNeededEv
5572:__ZNSt3__26vectorI17SortingLayerEntryNS_9allocatorIS1_EEE6insertENS_11__wrap_iterIPKS1_EERS6_
5573:__ZNSt3__26vectorI17SortingLayerEntryNS_9allocatorIS1_EEE12__move_rangeEPS1_S5_S5_
5574:__ZNSt3__26vectorI17SortingLayerEntryNS_9allocatorIS1_EEE26__swap_out_circular_bufferERNS_14__split_bufferIS1_RS3_EEPS1_
5575:__Z14resize_trimmedINSt3__26vectorI17SortingLayerEntryNS0_9allocatorIS2_EEEEEvRT_j
5576:__ZN15SerializeTraitsI17SortingLayerEntryE8TransferI14SafeBinaryReadEEvRS0_RT_
5577:__ZNSt3__26vectorI17SortingLayerEntryNS_9allocatorIS1_EEE7reserveEj
5578:__ZNSt3__26vectorI17SortingLayerEntryNS_9allocatorIS1_EEE6assignINS_11__wrap_iterIPS1_EEEENS_9enable_ifIXaasr21__is_forward_iteratorIT_EE5valuesr16is_constructibleIS1_NS_15iterator_traitsISA_E9referenceEEE5valueEvE4typeESA_SA_
5579:__ZNSt3__26vectorI17SortingLayerEntryNS_9allocatorIS1_EEE8__appendEj
5580:__ZNSt3__26__treeINS_12__value_typeIN4core12basic_stringIcNS2_20StringStorageDefaultIcEEEEjEENS_19__map_value_compareIS6_S7_NS_4lessIS6_EELb1EEE13stl_allocatorIS7_L18MemLabelIdentifier6ELi16EEE7destroyEPNS_11__tree_nodeIS7_PvEE
5581:__ZNSt3__26__treeINS_12__value_typeIjN4core12basic_stringIcNS2_20StringStorageDefaultIcEEEEEENS_19__map_value_compareIjS7_NS_4lessIjEELb1EEE13stl_allocatorIS7_L18MemLabelIdentifier6ELi16EEE7destroyEPNS_11__tree_nodeIS7_PvEE
5582:__ZNSt3__26vectorI17SortingLayerEntryNS_9allocatorIS1_EEE21__push_back_slow_pathIKS1_EEvRT_
5583:__ZN10TagManager8TransferI24GenerateTypeTreeTransferEEvRT_
5584:__ZN24GenerateTypeTreeTransfer8TransferINSt3__26vectorIN4core12basic_stringIcNS3_20StringStorageDefaultIcEEEENS1_9allocatorIS7_EEEEEEvRT_PKc17TransferMetaFlags
5585:__ZN24GenerateTypeTreeTransfer32TransferSTLStyleArrayWithElementI17SortingLayerEntryEEvRT_17TransferMetaFlags
5586:__ZN10TagManager8TransferI17RemapPPtrTransferEEvRT_
5587:__ZN10TagManager8TransferI18StreamedBinaryReadILb0EEEEvRT_
5588:__ZN18StreamedBinaryReadILb0EE21TransferSTLStyleArrayINSt3__26vectorI17SortingLayerEntryNS2_9allocatorIS4_EEEEEEvRT_17TransferMetaFlags
5589:__ZN10TagManager8TransferI19StreamedBinaryWriteILb0EEEEvRT_
5590:__ZN19StreamedBinaryWriteILb0EE21TransferSTLStyleArrayINSt3__26vectorI17SortingLayerEntryNS2_9allocatorIS4_EEEEEEvRT_17TransferMetaFlags
5591:__ZN10TagManager15ThreadedCleanupEv
5592:__ZN12BaseRenderer15AddAsRenderNodeER15RenderNodeQueueRK20DeprecatedSourceData
5593:__ZN12BaseRenderer23RendererCullingCallbackEv
5594:__ZN12BaseRenderer21RendererBecameVisibleEv
5595:__ZN12BaseRenderer23RendererBecameInvisibleEv
5596:__ZN12BaseRenderer23UpdatePreviousFrameDataEv
5597:__ZN12BaseRenderer20FlattenToRenderQueueER15RenderNodeQueueRK20DeprecatedSourceData
5598:__ZN12BaseRenderer16FlattenProbeDataERS_RK13TransformInfoRK17LightProbeContextR10RenderNode
5599:__ZN12BaseRenderer25FlattenSharedMaterialDataILb0EEEbRS_R22PerThreadPageAllocatorR10RenderNode
5600:__ZN8Material10GetDefaultEv
5601:__Z29FindReflectionProbeFromAnchorP9TransformRK4AABBRS1_RsS5_
5602:__Z30GetLightProbeProxyVolumeHandleRK28LightProbeProxyVolumeContextRK12BaseRenderer
5603:__Z38CalculateExplicitLightProbeCoordinatesiR29LightProbeSamplingCoordinates
5604:__ZN6CameraD2Ev
5605:__ZN6CameraD0Ev
5606:__ZN6Camera17MainThreadCleanupEv
5607:__ZN6Camera13AwakeFromLoadE17AwakeFromLoadMode
5608:__ZN6Camera16CheckConsistencyEv
5609:__ZN6Camera5ResetEv
5610:__ZNK6Camera26GetTypeInfoVirtualInternalEv
5611:__ZN6Camera23VirtualRedirectTransferER19StreamedBinaryWriteILb0EE
5612:__ZN6Camera23VirtualRedirectTransferER18StreamedBinaryReadILb0EE
5613:__ZN6Camera23VirtualRedirectTransferER17RemapPPtrTransfer
5614:__ZN6Camera23VirtualRedirectTransferER24GenerateTypeTreeTransfer
5615:__ZN6Camera23VirtualRedirectTransferER14SafeBinaryRead
5616:__ZN6Camera12AddToManagerEv
5617:__ZN6Camera17RemoveFromManagerEv
5618:__ZN6Camera8TransferI14SafeBinaryReadEEvRT_
5619:__ZN14SafeBinaryRead8TransferI8BitFieldEEvRT_PKc17TransferMetaFlags
5620:__ZN6Camera8TransferI24GenerateTypeTreeTransferEEvRT_
5621:__ZN5RectTIfE8TransferI24GenerateTypeTreeTransferEEvRT_
5622:__ZN6Camera8TransferI18StreamedBinaryReadILb0EEEEvRT_
5623:__ZN6Camera8TransferI19StreamedBinaryWriteILb0EEEEvRT_
5624:__ZN13MonoBehaviour33AddImageEffectCallbacksToManagersEv
5625:__Z30scripting_method_has_attribute18ScriptingMethodPtr17ScriptingClassPtr
5626:__ZN13MonoBehaviour17RenderImageFilterEPN5Unity9ComponentEP13RenderTextureS4_
5627:__ZN6Camera14AddImageFilterERK11ImageFilter
5628:__ZN12ImageFilters14AddImageFilterERK11ImageFilter
5629:__ZN12ImageFilters17RemoveImageFilterERK11ImageFilter
5630:__ZNSt3__26vectorI11ImageFilterNS_9allocatorIS1_EEE6insertENS_11__wrap_iterIPKS1_EERS6_
5631:__ZN19RenderEventsContext23RemoveAllCommandBuffersEv
5632:__ZN15LODGroupManager20DestroyCameraLODDataEPK6Camera
5633:__ZN19RenderEventsContext20RemoveCommandBuffersEi
5634:__ZN6Camera15ThreadedCleanupEv
5635:__ZN19RenderEventsContextD2Ev
5636:__Z16DeleteRenderLoopP10RenderLoop
5637:__Z21DestroyShadowMapCacheP14ShadowMapCache
5638:__ZN12FlareManager8AddFlareEv
5639:__ZNSt3__26vectorIN12FlareManager10FlareEntryENS_9allocatorIS2_EEE21__push_back_slow_pathIKS2_EEvRT_
5640:__ZNK10FlareLayer26GetTypeInfoVirtualInternalEv
5641:__ZN10FlareLayer12AddToManagerEv
5642:__ZN10FlareLayer17RemoveFromManagerEv
5643:__ZN12FlareManager12RemoveCameraER6Camera
5644:__ZN12FlareManager9AddCameraER6Camera
5645:__ZNSt3__26vectorIfNS_9allocatorIfEEE8__appendEjRKf
5646:__ZN16GraphicsSettingsD2Ev
5647:__ZN16GraphicsSettingsD0Ev
5648:__ZN16GraphicsSettings10SmartResetEv
5649:__ZNK16GraphicsSettings26GetTypeInfoVirtualInternalEv
5650:__ZN16GraphicsSettings23VirtualRedirectTransferER19StreamedBinaryWriteILb0EE
5651:__ZN16GraphicsSettings23VirtualRedirectTransferER18StreamedBinaryReadILb0EE
5652:__ZN16GraphicsSettings23VirtualRedirectTransferER17RemapPPtrTransfer
5653:__ZN16GraphicsSettings23VirtualRedirectTransferER24GenerateTypeTreeTransfer
5654:__ZN16GraphicsSettings23VirtualRedirectTransferER14SafeBinaryRead
5655:__ZN16GraphicsSettings8TransferI14SafeBinaryReadEEvRT_
5656:__ZN14SafeBinaryRead8TransferI21BuiltinShaderSettingsEEvRT_PKc17TransferMetaFlags
5657:__ZN14SafeBinaryRead21TransferSTLStyleArrayINSt3__26vectorI4PPtrI6ShaderE13stl_allocatorIS5_L18MemLabelIdentifier52ELi16EEEEEEvRT_17TransferMetaFlags
5658:__ZN14SafeBinaryRead21TransferSTLStyleArrayINSt3__26vectorI4PPtrI23ShaderVariantCollectionE13stl_allocatorIS5_L18MemLabelIdentifier52ELi16EEEEEEvRT_17TransferMetaFlags
5659:__ZN20TierGraphicsSettings8TransferI14SafeBinaryReadEEvRT_
5660:__ZN5Light7PrecalcEv
5661:__ZNK5Light16UnshareLightDataEv
5662:__ZN15SharedLightData7PrecalcEv
5663:__ZN5Light9SetupHaloEv
5664:__ZN5Light10SetupFlareEv
5665:__Z15GetFlareManagerv
5666:__ZN12FlareManager11DeleteFlareEi
5667:__ZN12FlareManager11UpdateFlareEiP5FlareRK8Vector3fbfRK10ColorRGBAffjj
5668:__Z14GetHaloManagerv
5669:__ZN11HaloManager7AddHaloEv
5670:__ZN11HaloManager10UpdateHaloEi8Vector3f11ColorRGBA32fjP6Object
5671:__ZN11HaloManager10DeleteHaloEiP6Object
5672:__ZNSt3__26vectorIN11HaloManager4HaloENS_9allocatorIS2_EEE21__push_back_slow_pathIKS2_EEvRT_
5673:__Z31CorrelatedColorTemperatureToRGBf
5674:__Z24CalculateVertexLightDataRK15SharedLightDataR14GfxVertexLight
5675:__ZN19RenderEventsContextC2ERKS_
5676:__ZN22RenderingCommandBufferC2ERKS_
5677:__ZN14GrowableBufferC2ERKS_
5678:__ZN22RenderingCommandBufferD2Ev
5679:__ZN22RenderingCommandBufferD0Ev
5680:__ZN14GrowableBufferD2Ev
5681:__ZN15SharedLightDataD2Ev
5682:__ZN15SharedLightDataD0Ev
5683:__Z14resize_trimmedINSt3__26vectorI4PPtrI23ShaderVariantCollectionE13stl_allocatorIS4_L18MemLabelIdentifier52ELi16EEEEEvRT_j
5684:__ZNSt3__26vectorI4PPtrI23ShaderVariantCollectionE13stl_allocatorIS3_L18MemLabelIdentifier52ELi16EEE6assignINS_11__wrap_iterIPS3_EEEENS_9enable_ifIXaasr21__is_forward_iteratorIT_EE5valuesr16is_constructibleIS3_NS_15iterator_traitsISD_E9referenceEEE5valueEvE4typeESD_SD_
5685:__ZNSt3__26vectorI4PPtrI23ShaderVariantCollectionE13stl_allocatorIS3_L18MemLabelIdentifier52ELi16EEE8__appendEj
5686:__ZN16GraphicsSettings8TransferI24GenerateTypeTreeTransferEEvRT_
5687:__ZN24GenerateTypeTreeTransfer8TransferI21BuiltinShaderSettingsEEvRT_PKc17TransferMetaFlags
5688:__ZN20TierGraphicsSettings8TransferI24GenerateTypeTreeTransferEEvRT_
5689:__ZN16GraphicsSettings8TransferI17RemapPPtrTransferEEvRT_
5690:__ZN16GraphicsSettings8TransferI18StreamedBinaryReadILb0EEEEvRT_
5691:__ZN20TierGraphicsSettings8TransferI18StreamedBinaryReadILb0EEEEvRT_
5692:__ZN16GraphicsSettings8TransferI19StreamedBinaryWriteILb0EEEEvRT_
5693:__ZN20TierGraphicsSettings8TransferI19StreamedBinaryWriteILb0EEEEvRT_
5694:__ZN11ColorRGBA328TransferI14SafeBinaryReadEEvRT_
5695:__Z20RenderMultipleMeshesRK15RenderNodeQueueRK18RenderMultipleData17ShaderChannelMask
5696:__ZN8DrawUtil24DrawMeshRawFromNodeQueueERK15RenderNodeQueuej17ShaderChannelMaski
5697:__ZNK17InstancedPropInfo15RenderInstancesERK15RenderNodeQueuePK17BatchInstanceDataj17ShaderChannelMask
5698:__Z17RenderStaticBatchR9GfxDevice10Matrix4x4fR13dynamic_arrayI7SubMeshLj4EERK11MeshBuffersPK17BatchInstanceDataj17ShaderChannelMask
5699:__ZNK14VertexDataInfo17GetChannelsLayoutEv
5700:__Z28BuildSingleStreamChannelInfo17ShaderChannelMaskRK20VertexChannelsLayoutS_S2_P11ChannelInfo
5701:__Z30ProcessDynamicBatchGeometryJobP25DynamicVBOGeometryJobDataj
5702:__ZNK17InstancedPropInfo20AllocateInstanceDataEj
5703:__ZNK17InstancedPropInfo22FillInstancePropertiesER19ShaderPropertySheetjPK17BatchInstanceDatajRK15RenderNodeQueue
5704:__ZN20SphericalHarmonicsL28TransferI14SafeBinaryReadEEvRT_
5705:__ZN20SphericalHarmonicsL28TransferI24GenerateTypeTreeTransferEEvRT_
5706:__ZN20SphericalHarmonicsL28TransferI18StreamedBinaryReadILb0EEEEvRT_
5707:__ZN20SphericalHarmonicsL28TransferI19StreamedBinaryWriteILb0EEEEvRT_
5708:__ZNSt3__212__deque_baseI18ReflectionProbeJobNS_9allocatorIS1_EEED2Ev
5709:__ZN14RenderSettingsD2Ev
5710:__ZN14RenderSettingsD0Ev
5711:__ZN14RenderSettings13AwakeFromLoadE17AwakeFromLoadMode
5712:__ZN14RenderSettings16CheckConsistencyEv
5713:__ZN14RenderSettings5ResetEv
5714:__ZNK14RenderSettings26GetTypeInfoVirtualInternalEv
5715:__ZN14RenderSettings23VirtualRedirectTransferER19StreamedBinaryWriteILb0EE
5716:__ZN14RenderSettings23VirtualRedirectTransferER18StreamedBinaryReadILb0EE
5717:__ZN14RenderSettings23VirtualRedirectTransferER17RemapPPtrTransfer
5718:__ZN14RenderSettings23VirtualRedirectTransferER24GenerateTypeTreeTransfer
5719:__ZN14RenderSettings23VirtualRedirectTransferER14SafeBinaryRead
5720:__ZN14RenderSettings8TransferI14SafeBinaryReadEEvRT_
5721:__ZN14RenderSettings18TransferDeprecatedI14SafeBinaryReadEEvRT_
5722:__ZN14RenderSettings8TransferI24GenerateTypeTreeTransferEEvRT_
5723:__ZN14RenderSettings8TransferI17RemapPPtrTransferEEvRT_
5724:__ZN14RenderSettings8TransferI18StreamedBinaryReadILb0EEEEvRT_
5725:__ZN14RenderSettings8TransferI19StreamedBinaryWriteILb0EEEEvRT_
5726:__ZNK22BuiltinResourceManager21GetResourceInstanceIDEPKN5Unity4TypeERKN4core12basic_stringIcNS4_20StringStorageDefaultIcEEEE
5727:__ZN14RenderSettings17UpdateGlobalStateEv
5728:__ZN14RenderSettings23UpdateFinalAmbientProbeEv
5729:__ZN14RenderSettings16ApplyHaloTextureEv
5730:__ZN14RenderSettings27UpdateIndirectSpecularColorEv
5731:__ZN10builtintex14GetHaloTextureEv
5732:__ZN20SphericalHarmonicsL215AddAmbientLightERK10ColorRGBAf
5733:__ZN20BaseBehaviourManagerD2Ev
5734:__ZN20BaseBehaviourManagerD0Ev
5735:__ZNSt3__26__treeINS_12__value_typeIiNS_4pairIP4ListI8ListNodeI9BehaviourEES8_EEEENS_19__map_value_compareIiSA_NS_4lessIiEELb1EEENS_9allocatorISA_EEE7destroyEPNS_11__tree_nodeISA_PvEE
5736:__ZN18DelayedCallManagerD2Ev
5737:__ZN18DelayedCallManagerD0Ev
5738:__ZN18DelayedCallManager17MainThreadCleanupEv
5739:__ZNK18DelayedCallManager26GetTypeInfoVirtualInternalEv
5740:__ZN18DelayedCallManager6UpdateEi
5741:__ZN18DelayedCallManager15RemoveNoCleanupERKNS_8CallbackENSt3__221__tree_const_iteratorIS0_PNS3_11__tree_nodeIS0_PvEEiEE
5742:__ZN18DelayedCallManager8ClearAllEv
5743:__ZNSt3__26__treeIN18DelayedCallManager8CallbackENS_4lessIS2_EENS_9allocatorIS2_EEE7destroyEPNS_11__tree_nodeIS2_PvEE
5744:__ZN12CubemapArrayD2Ev
5745:__ZN12CubemapArrayD0Ev
5746:__ZN12CubemapArray13AwakeFromLoadE17AwakeFromLoadMode
5747:__ZN12CubemapArray5ResetEv
5748:__ZNK12CubemapArray26GetTypeInfoVirtualInternalEv
5749:__ZNK12CubemapArray20GetRuntimeMemorySizeEv
5750:__ZN12CubemapArray23VirtualRedirectTransferER19StreamedBinaryWriteILb0EE
5751:__ZN12CubemapArray23VirtualRedirectTransferER18StreamedBinaryReadILb0EE
5752:__ZN12CubemapArray23VirtualRedirectTransferER17RemapPPtrTransfer
5753:__ZN12CubemapArray23VirtualRedirectTransferER24GenerateTypeTreeTransfer
5754:__ZN12CubemapArray23VirtualRedirectTransferER14SafeBinaryRead
5755:__ZNK12CubemapArray26CanReuploadDataToGfxDeviceEv
5756:__ZNK12CubemapArray20GetTextureLayerCountEv
5757:__ZNK12CubemapArray12GetDimensionEv
5758:__ZN12CubemapArray34UpdateFileTextureUploadInstructionEP28FileTextureUploadInstructionj
5759:__ZN12CubemapArray17UploadToGfxDeviceEv
5760:__ZNK12CubemapArray16ExtractImageImplEP14ImageReferenceNS0_8BlitModeEbi
5761:__ZN7Texture25ReloadFromStorageIfNeededEPvb
5762:__ZN12CubemapArray13UploadTextureEv
5763:__ZNK7Texture41QueryPersistentManagerForDataAvailabilityEv
5764:__ZN12CubemapArray8TransferI14SafeBinaryReadEEvRT_
5765:__ZN12CubemapArray8TransferI24GenerateTypeTreeTransferEEvRT_
5766:__ZN12CubemapArray8TransferI18StreamedBinaryReadILb0EEEEvRT_
5767:__ZN12CubemapArray8TransferI19StreamedBinaryWriteILb0EEEEvRT_
5768:__ZN7CubemapD2Ev
5769:__ZN7CubemapD0Ev
5770:__ZN9Texture2D17MainThreadCleanupEv
5771:__ZN9Texture2D13AwakeFromLoadE17AwakeFromLoadMode
5772:__ZN9Texture2D21AwakeFromLoadThreadedEv
5773:__ZNK7Cubemap26GetTypeInfoVirtualInternalEv
5774:__ZNK9Texture2D20GetRuntimeMemorySizeEv
5775:__ZN7Cubemap23VirtualRedirectTransferER19StreamedBinaryWriteILb0EE
5776:__ZN7Cubemap23VirtualRedirectTransferER18StreamedBinaryReadILb0EE
5777:__ZN7Cubemap23VirtualRedirectTransferER17RemapPPtrTransfer
5778:__ZN7Cubemap23VirtualRedirectTransferER24GenerateTypeTreeTransfer
5779:__ZN7Cubemap23VirtualRedirectTransferER14SafeBinaryRead
5780:__ZN9Texture2D13ApplySettingsEv
5781:__ZNK9Texture2D20GetUnscaledTextureIDEv
5782:__ZNK9Texture2D16GetNpotTexelSizeEv
5783:__ZNK9Texture2D13IsNPOTAllowedEv
5784:__ZNK9Texture2D26CanReuploadDataToGfxDeviceEv
5785:__ZNK7Cubemap12GetDimensionEv
5786:__ZN7Cubemap34UpdateFileTextureUploadInstructionEP28FileTextureUploadInstructionj
5787:__ZN9Texture2D33VerifyFileTextureUploadCompletionEv
5788:__ZNK9Texture2D13GetIsReadableEv
5789:__ZN9Texture2D19UnloadFromGfxDeviceEb
5790:__ZN9Texture2D17UploadToGfxDeviceEv
5791:__ZNK9Texture2D16ExtractImageImplEP14ImageReferenceNS0_8BlitModeEbi
5792:__ZN7Cubemap13UploadTextureEi
5793:__ZNK9Texture2D13GetDataFormatEv
5794:__ZN7Cubemap11InitTextureEii13TextureFormatN9Texture2D10EInitFlagsEiii
5795:__ZN9Texture2D15UpdateImageDataEv
5796:__ZN9Texture2D30UpdateImageDataDontTouchMipmapEv
5797:__ZN7Cubemap13RebuildMipMapEv
5798:__Z20IsNPOTTextureAllowedb
5799:__ZN9Texture2D11InitTextureEii13TextureFormatNS_10EInitFlagsEiii
5800:__Z25GetNextAllowedTextureSizeib13TextureFormat
5801:__Z30CalculateImageSizeWithMipCountii13TextureFormatj
5802:__ZN9Texture2D19InitTextureInternalEii13TextureFormatiNS_10EInitFlagsEii
5803:__ZN9Texture2D16DeleteGfxTextureEv
5804:__ZN17SharedTextureDataC2E18MemLabelIdentifierii13TextureFormatiiibb
5805:__Z29GetTextureSizeAllowedMultiple13TextureFormat
5806:__ZN9Texture2D8TransferI14SafeBinaryReadEEvRT_
5807:__ZN14SafeBinaryRead21TransferSTLStyleArrayINSt3__26vectorI4PPtrI9Texture2DENS1_9allocatorIS5_EEEEEEvRT_17TransferMetaFlags
5808:__Z14resize_trimmedINSt3__26vectorI4PPtrI9Texture2DENS0_9allocatorIS4_EEEEEvRT_j
5809:__ZNSt3__26vectorI4PPtrI9Texture2DENS_9allocatorIS3_EEE6assignINS_11__wrap_iterIPS3_EEEENS_9enable_ifIXaasr21__is_forward_iteratorIT_EE5valuesr16is_constructibleIS3_NS_15iterator_traitsISC_E9referenceEEE5valueEvE4typeESC_SC_
5810:__ZN9Texture2D8TransferI24GenerateTypeTreeTransferEEvRT_
5811:__ZN9Texture2D8TransferI17RemapPPtrTransferEEvRT_
5812:__ZN9Texture2D8TransferI18StreamedBinaryReadILb0EEEEvRT_
5813:__ZN9Texture2D8TransferI19StreamedBinaryWriteILb0EEEEvRT_
5814:__ZN9Texture2DD2Ev
5815:__ZN9Texture2D15ThreadedCleanupEv
5816:__ZN9Texture2DD0Ev
5817:__ZNK9Texture2D26GetTypeInfoVirtualInternalEv
5818:__ZN9Texture2D23VirtualRedirectTransferER19StreamedBinaryWriteILb0EE
5819:__ZN9Texture2D23VirtualRedirectTransferER18StreamedBinaryReadILb0EE
5820:__ZN9Texture2D23VirtualRedirectTransferER24GenerateTypeTreeTransfer
5821:__ZN9Texture2D23VirtualRedirectTransferER14SafeBinaryRead
5822:__ZN9Texture2D34UpdateFileTextureUploadInstructionEP28FileTextureUploadInstructionj
5823:__ZN9Texture2D13UploadTextureEi
5824:__ZN9Texture2D13RebuildMipMapEv
5825:__ZN9Texture2D25CreateScaledAndPaddedDataEPP17SharedTextureDataS2_
5826:__ZN9Texture2D26AllocateScaledOrPaddedDataE13TextureFormat
5827:__ZN9TextureOpI17SharedTextureDataE15ExtractMipLevelEPS0_S2_iibb
5828:__ZN26CustomRenderTextureManager19PreAllocateMaterialEP19CustomRenderTexture
5829:__ZN16LightmapSettingsD2Ev
5830:__ZN16LightmapSettingsD0Ev
5831:__ZN16LightmapSettings13AwakeFromLoadE17AwakeFromLoadMode
5832:__ZN16LightmapSettings5ResetEv
5833:__ZNK16LightmapSettings26GetTypeInfoVirtualInternalEv
5834:__ZN16LightmapSettings23VirtualRedirectTransferER19StreamedBinaryWriteILb0EE
5835:__ZN16LightmapSettings23VirtualRedirectTransferER18StreamedBinaryReadILb0EE
5836:__ZN16LightmapSettings23VirtualRedirectTransferER17RemapPPtrTransfer
5837:__ZN16LightmapSettings23VirtualRedirectTransferER24GenerateTypeTreeTransfer
5838:__ZN16LightmapSettings23VirtualRedirectTransferER14SafeBinaryRead
5839:__ZN16LightmapSettings8TransferI14SafeBinaryReadEEvRT_
5840:__ZN21EnlightenSceneMapping8TransferI14SafeBinaryReadEEvRT_
5841:__ZN14SafeBinaryRead21TransferSTLStyleArrayI13dynamic_arrayI12LightmapDataLj4EEEEvRT_17TransferMetaFlags
5842:__ZN10GISettings8TransferI14SafeBinaryReadEEvRT_
5843:__ZN12LightmapData8TransferI14SafeBinaryReadEEvRT_
5844:__ZN14SafeBinaryRead21TransferSTLStyleArrayI13dynamic_arrayI28EnlightenRendererInformationLj8EEEEvRT_17TransferMetaFlags
5845:__ZN14SafeBinaryRead21TransferSTLStyleArrayI13dynamic_arrayI26EnlightenSystemInformationLj8EEEEvRT_17TransferMetaFlags
5846:__ZN14SafeBinaryRead21TransferSTLStyleArrayI13dynamic_arrayI7Hash128Lj8EEEEvRT_17TransferMetaFlags
5847:__ZN14SafeBinaryRead21TransferSTLStyleArrayI13dynamic_arrayI31EnlightenSystemAtlasInformationLj8EEEEvRT_17TransferMetaFlags
5848:__ZN14SafeBinaryRead21TransferSTLStyleArrayI13dynamic_arrayI33EnlightenTerrainChunksInformationLj4EEEEvRT_17TransferMetaFlags
5849:__ZN21EnlightenSceneMapping16BuildRemapTablesEv
5850:__ZN15SerializeTraitsI13dynamic_arrayI33EnlightenTerrainChunksInformationLj4EEE19ResizeSTLStyleArrayERS2_i18MemLabelIdentifier
5851:__ZN15SerializeTraitsI33EnlightenTerrainChunksInformationE8TransferI14SafeBinaryReadEEvRS0_RT_
5852:__ZN15SerializeTraitsI13dynamic_arrayI31EnlightenSystemAtlasInformationLj8EEE19ResizeSTLStyleArrayERS2_i18MemLabelIdentifier
5853:__ZN31EnlightenSystemAtlasInformation8TransferI14SafeBinaryReadEEvRT_
5854:__ZN15SerializeTraitsI13dynamic_arrayI7Hash128Lj8EEE19ResizeSTLStyleArrayERS2_i18MemLabelIdentifier
5855:__ZN15SerializeTraitsI13dynamic_arrayI26EnlightenSystemInformationLj8EEE19ResizeSTLStyleArrayERS2_i18MemLabelIdentifier
5856:__ZN26EnlightenSystemInformation8TransferI14SafeBinaryReadEEvRT_
5857:__ZN15SerializeTraitsI13dynamic_arrayI28EnlightenRendererInformationLj8EEE19ResizeSTLStyleArrayERS2_i18MemLabelIdentifier
5858:__ZN28EnlightenRendererInformation8TransferI14SafeBinaryReadEEvRT_
5859:__ZN16LightmapSettings8TransferI24GenerateTypeTreeTransferEEvRT_
5860:__ZN21EnlightenSceneMapping8TransferI24GenerateTypeTreeTransferEEvRT_
5861:__ZN15SerializeTraitsI12LightmapDataE8TransferI24GenerateTypeTreeTransferEEvRS0_RT_
5862:__ZN10GISettings8TransferI24GenerateTypeTreeTransferEEvRT_
5863:__ZN28EnlightenRendererInformation8TransferI24GenerateTypeTreeTransferEEvRT_
5864:__ZN26EnlightenSystemInformation8TransferI24GenerateTypeTreeTransferEEvRT_
5865:__ZN16LightmapSettings8TransferI17RemapPPtrTransferEEvRT_
5866:__ZN16LightmapSettings8TransferI18StreamedBinaryReadILb0EEEEvRT_
5867:__ZN21EnlightenSceneMapping8TransferI18StreamedBinaryReadILb0EEEEvRT_
5868:__ZN18StreamedBinaryReadILb0EE21TransferSTLStyleArrayI13dynamic_arrayI12LightmapDataLj4EEEEvRT_17TransferMetaFlags
5869:__ZN10GISettings8TransferI18StreamedBinaryReadILb0EEEEvRT_
5870:__ZN18StreamedBinaryReadILb0EE21TransferSTLStyleArrayI13dynamic_arrayI28EnlightenRendererInformationLj8EEEEvRT_17TransferMetaFlags
5871:__ZN26EnlightenSystemInformation8TransferI18StreamedBinaryReadILb0EEEEvRT_
5872:__ZN18StreamedBinaryReadILb0EE21TransferSTLStyleArrayI13dynamic_arrayI31EnlightenSystemAtlasInformationLj8EEEEvRT_17TransferMetaFlags
5873:__ZN18StreamedBinaryReadILb0EE21TransferSTLStyleArrayI13dynamic_arrayI33EnlightenTerrainChunksInformationLj4EEEEvRT_17TransferMetaFlags
5874:__ZN16LightmapSettings8TransferI19StreamedBinaryWriteILb0EEEEvRT_
5875:__ZN21EnlightenSceneMapping8TransferI19StreamedBinaryWriteILb0EEEEvRT_
5876:__ZN10GISettings8TransferI19StreamedBinaryWriteILb0EEEEvRT_
5877:__ZN26EnlightenSystemInformation8TransferI19StreamedBinaryWriteILb0EEEEvRT_
5878:__ZN19StreamedBinaryWriteILb0EE21TransferSTLStyleArrayI13dynamic_arrayI31EnlightenSystemAtlasInformationLj8EEEEvRT_17TransferMetaFlags
5879:__ZN10GISettings5ResetEv
5880:__ZN21EnlightenSceneMappingD2Ev
5881:__ZN8Renderer17MainThreadCleanupEv
5882:__ZN8Renderer10SmartResetEv
5883:__ZN8Renderer26SupportedMessagesDidChangeEj
5884:__ZN8Renderer10DeactivateE19DeactivateOperation
5885:__ZNK8Renderer10GetEnabledEv
5886:__ZN8Renderer10SetEnabledEb
5887:__ZN8Renderer21RendererBecameVisibleEv
5888:__ZN8Renderer23RendererBecameInvisibleEv
5889:__ZNK8Renderer8GetLayerEv
5890:__ZNK8Renderer16GetMaterialCountEv
5891:__ZNK8Renderer11GetMaterialEi
5892:__ZNK8Renderer14GetSubsetIndexEi
5893:__ZThn32_N8Renderer21RendererBecameVisibleEv
5894:__ZThn32_N8Renderer23RendererBecameInvisibleEv
5895:__ZThn32_NK8Renderer8GetLayerEv
5896:__ZThn32_NK8Renderer16GetMaterialCountEv
5897:__ZThn32_NK8Renderer11GetMaterialEi
5898:__ZThn32_NK8Renderer14GetSubsetIndexEi
5899:__ZN6Object11InvokeEventEi
5900:__ZN8RendererD2Ev
5901:__ZN8RendererD0Ev
5902:__ZN8Renderer13AwakeFromLoadE17AwakeFromLoadMode
5903:__ZN8Renderer16CheckConsistencyEv
5904:__ZNK8Renderer26GetTypeInfoVirtualInternalEv
5905:__ZN8Renderer23VirtualRedirectTransferER19StreamedBinaryWriteILb0EE
5906:__ZN8Renderer23VirtualRedirectTransferER18StreamedBinaryReadILb0EE
5907:__ZN8Renderer23VirtualRedirectTransferER17RemapPPtrTransfer
5908:__ZN8Renderer23VirtualRedirectTransferER24GenerateTypeTreeTransfer
5909:__ZN8Renderer23VirtualRedirectTransferER14SafeBinaryRead
5910:__ZThn32_N8RendererD1Ev
5911:__ZThn32_N8RendererD0Ev
5912:__ZN8Renderer8TransferI14SafeBinaryReadEEvRT_
5913:__ZN14SafeBinaryRead21TransferSTLStyleArrayI13dynamic_arrayI4PPtrI8MaterialELj4EEEEvRT_17TransferMetaFlags
5914:__ZN15StaticBatchInfo8TransferI14SafeBinaryReadEEvRT_
5915:__ZN8Renderer8TransferI24GenerateTypeTreeTransferEEvRT_
5916:__ZN8Renderer8TransferI17RemapPPtrTransferEEvRT_
5917:__ZN8Renderer8TransferI18StreamedBinaryReadILb0EEEEvRT_
5918:__ZN8Renderer8TransferI19StreamedBinaryWriteILb0EEEEvRT_
5919:__ZN8Renderer10AddToSceneEv
5920:__ZN8Renderer15RemoveFromSceneEv
5921:__Z35UpdateSortingGroupStatusForRendererP8Renderer
5922:__ZN21RendererUpdateManager14RemoveRendererER8Renderer
5923:__ZN32TransformHierarchyChangeDispatch19SetSystemInterestedE15TransformAccess36TransformHierarchyChangeSystemHandleb
5924:__ZN23TransformChangeDispatch19SetSystemInterestedE15TransformAccess27TransformChangeSystemHandleb
5925:__ZN13RendererScene11AddRendererEP8Renderer
5926:__ZN8LODGroup23GetLODGroupIndexAndMaskEP8RendererPjS2_
5927:__ZN21RendererUpdateManager11AddRendererER8Renderer
5928:__ZN15dense_hashtableINSt3__24pairIKiiEEi21InstanceIDHashFunctorN14dense_hash_mapIiiS4_NS0_8equal_toIiEE13stl_allocatorIS3_L18MemLabelIdentifier65ELi16EEE9SelectKeyES7_SA_E12resize_deltaEjj
5929:__ZN15dense_hashtableINSt3__24pairIKiiEEi21InstanceIDHashFunctorN14dense_hash_mapIiiS4_NS0_8equal_toIiEE13stl_allocatorIS3_L18MemLabelIdentifier65ELi16EEE9SelectKeyES7_SA_E12maybe_shrinkEv
5930:__ZN23TransformChangeDispatch32QueueTransformChangeIfHasChangedERK15TransformAccess
5931:__ZN8Gradient8TransferI14SafeBinaryReadEEvRT_
5932:__ZN8Gradient17ValidateColorKeysEv
5933:__ZN8Gradient17ValidateAlphaKeysEv
5934:__ZN8Gradient8TransferI24GenerateTypeTreeTransferEEvRT_
5935:__ZN8Gradient8TransferI18StreamedBinaryReadILb0EEEEvRT_
5936:__ZN8Gradient8TransferI19StreamedBinaryWriteILb0EEEEvRT_
5937:__ZN21RendererUpdateManager19DirtyDispatchUpdateER8Renderer
5938:__ZN8LODGroup25RemoveFromCachedRenderersEP8Renderer
5939:__ZN15QualitySettingsD2Ev
5940:__ZN15QualitySettingsD0Ev
5941:__ZN15QualitySettings13AwakeFromLoadE17AwakeFromLoadMode
5942:__ZN15QualitySettings16CheckConsistencyEv
5943:__ZN15QualitySettings5ResetEv
5944:__ZNK15QualitySettings26GetTypeInfoVirtualInternalEv
5945:__ZN15QualitySettings23VirtualRedirectTransferER19StreamedBinaryWriteILb0EE
5946:__ZN15QualitySettings23VirtualRedirectTransferER18StreamedBinaryReadILb0EE
5947:__ZN15QualitySettings23VirtualRedirectTransferER24GenerateTypeTreeTransfer
5948:__ZN15QualitySettings23VirtualRedirectTransferER14SafeBinaryRead
5949:__ZN15QualitySettings8TransferI14SafeBinaryReadEEvRT_
5950:__ZN14SafeBinaryRead21TransferSTLStyleArrayINSt3__26vectorIN15QualitySettings14QualitySettingENS1_9allocatorIS4_EEEEEEvRT_17TransferMetaFlags
5951:__ZL32InitializeDefaultQualitySettingsPN15QualitySettings14QualitySettingE
5952:__ZN15QualitySettings14QualitySetting8TransferI14SafeBinaryReadEEvRT_
5953:__ZNSt3__26vectorIN15QualitySettings14QualitySettingENS_9allocatorIS2_EEE6assignIPS2_EENS_9enable_ifIXaasr21__is_forward_iteratorIT_EE5valuesr16is_constructibleIS2_NS_15iterator_traitsIS9_E9referenceEEE5valueEvE4typeES9_S9_
5954:__Z14resize_trimmedINSt3__26vectorIN15QualitySettings14QualitySettingENS0_9allocatorIS3_EEEEEvRT_j
5955:__ZNSt3__26vectorIN15QualitySettings14QualitySettingENS_9allocatorIS2_EEE7reserveEj
5956:__ZNSt3__26vectorIN15QualitySettings14QualitySettingENS_9allocatorIS2_EEE6assignINS_11__wrap_iterIPS2_EEEENS_9enable_ifIXaasr21__is_forward_iteratorIT_EE5valuesr16is_constructibleIS2_NS_15iterator_traitsISB_E9referenceEEE5valueEvE4typeESB_SB_
5957:__ZNSt3__26vectorIN15QualitySettings14QualitySettingENS_9allocatorIS2_EEE8__appendEj
5958:__ZNSt3__26vectorIN15QualitySettings14QualitySettingENS_9allocatorIS2_EEEC2INS_11__wrap_iterIPS2_EEEET_SA_RKS4_PNS_9enable_ifIXaasr21__is_forward_iteratorISA_EE5valuesr16is_constructibleIS2_NS_15iterator_traitsISA_E9referenceEEE5valueEvE4typeE
5959:__ZN15QualitySettings8TransferI24GenerateTypeTreeTransferEEvRT_
5960:__ZN24GenerateTypeTreeTransfer21TransferSTLStyleArrayINSt3__26vectorIN15QualitySettings14QualitySettingENS1_9allocatorIS4_EEEEEEvRT_17TransferMetaFlags
5961:__ZN15QualitySettings14QualitySetting8TransferI24GenerateTypeTreeTransferEEvRT_
5962:__ZN15QualitySettings8TransferI18StreamedBinaryReadILb0EEEEvRT_
5963:__ZN15QualitySettings14QualitySetting8TransferI18StreamedBinaryReadILb0EEEEvRT_
5964:__ZN15QualitySettings8TransferI19StreamedBinaryWriteILb0EEEEvRT_
5965:__ZN15QualitySettings14QualitySetting8TransferI19StreamedBinaryWriteILb0EEEEvRT_
5966:__ZNSt3__26vectorIN15QualitySettings14QualitySettingENS_9allocatorIS2_EEE21__push_back_slow_pathIKS2_EEvRT_
5967:__ZN11PlayerPrefs6GetIntERKN4core12basic_stringIcNS0_20StringStorageDefaultIcEEEEi
5968:__ZL18InitializeIfNeededv
5969:__ZNSt3__23mapIN4core12basic_stringIcNS1_20StringStorageDefaultIcEEEE9PrefValueNS_4lessIS5_EENS_9allocatorINS_4pairIKS5_S6_EEEEEixERSB_
5970:__ZL15GetPrefFilePathb
5971:__ZL11DecodeValuePPKcS0_
5972:__ZN6SpriteD2Ev
5973:__ZN6SpriteD0Ev
5974:__ZN6Sprite17MainThreadCleanupEv
5975:__ZNK6Sprite26GetTypeInfoVirtualInternalEv
5976:__ZN6Sprite23VirtualRedirectTransferER19StreamedBinaryWriteILb0EE
5977:__ZN6Sprite23VirtualRedirectTransferER18StreamedBinaryReadILb0EE
5978:__ZN6Sprite23VirtualRedirectTransferER17RemapPPtrTransfer
5979:__ZN6Sprite23VirtualRedirectTransferER24GenerateTypeTreeTransfer
5980:__ZN6Sprite23VirtualRedirectTransferER14SafeBinaryRead
5981:__ZN6Sprite8TransferI14SafeBinaryReadEEvRT_
5982:__ZN14SafeBinaryRead8TransferI5RectTIfEEEvRT_PKc17TransferMetaFlags
5983:__ZN16SpriteRenderData8TransferI14SafeBinaryReadEEvRT_
5984:__ZN14SafeBinaryRead21TransferSTLStyleArrayI13dynamic_arrayI7SubMeshLj4EEEEvRT_17TransferMetaFlags
5985:__ZN10VertexData8TransferI14SafeBinaryReadEEvRT_
5986:__ZN14SafeBinaryRead21TransferSTLStyleArrayI13dynamic_arrayI11ChannelInfoLj4EEEEvRT_17TransferMetaFlags
5987:__ZN15SerializeTraitsI11ChannelInfoE8TransferI14SafeBinaryReadEEvRS0_RT_
5988:__ZN13dynamic_arrayI7SubMeshLj4EE18resize_initializedEjRKS0_12ResizePolicy
5989:__ZN7SubMesh8TransferI14SafeBinaryReadEEvRT_
5990:__ZN6Sprite8TransferI24GenerateTypeTreeTransferEEvRT_
5991:__ZN16SpriteRenderData8TransferI24GenerateTypeTreeTransferEEvRT_
5992:__ZN7SubMesh8TransferI24GenerateTypeTreeTransferEEvRT_
5993:__ZN10VertexData8TransferI24GenerateTypeTreeTransferEEvRT_
5994:__ZN11ChannelInfo8TransferI24GenerateTypeTreeTransferEEvRT_
5995:__ZN6Sprite8TransferI17RemapPPtrTransferEEvRT_
5996:__ZN10VertexData8TransferI17RemapPPtrTransferEEvRT_
5997:__ZN6Sprite8TransferI18StreamedBinaryReadILb0EEEEvRT_
5998:__ZN16SpriteRenderData8TransferI18StreamedBinaryReadILb0EEEEvRT_
5999:__ZN18StreamedBinaryReadILb0EE21TransferSTLStyleArrayI13dynamic_arrayI7SubMeshLj4EEEEvRT_17TransferMetaFlags
6000:__ZN10VertexData8TransferI18StreamedBinaryReadILb0EEEEvRT_
6001:__ZN18StreamedBinaryReadILb0EE21TransferSTLStyleArrayI13dynamic_arrayI11ChannelInfoLj4EEEEvRT_17TransferMetaFlags
6002:__ZN11ChannelInfo8TransferI18StreamedBinaryReadILb0EEEEvRT_
6003:__ZN7SubMesh8TransferI18StreamedBinaryReadILb0EEEEvRT_
6004:__ZN6Sprite8TransferI19StreamedBinaryWriteILb0EEEEvRT_
6005:__ZN16SpriteRenderData8TransferI19StreamedBinaryWriteILb0EEEEvRT_
6006:__ZN7SubMesh8TransferI19StreamedBinaryWriteILb0EEEEvRT_
6007:__ZN10VertexData8TransferI19StreamedBinaryWriteILb0EEEEvRT_
6008:__ZN11ChannelInfo8TransferI19StreamedBinaryWriteILb0EEEEvRT_
6009:__ZN14SpriteRenderer14OnDeleteSpriteEv
6010:__ZN16SpriteRenderData17MainThreadCleanupEv
6011:__ZN23SharedMeshRenderingData6UnloadEv
6012:__ZN16SpriteRenderDataD2Ev
6013:__ZN14Texture2DArrayD2Ev
6014:__ZN14Texture2DArrayD0Ev
6015:__ZN14Texture2DArray17MainThreadCleanupEv
6016:__ZN14Texture2DArray13AwakeFromLoadE17AwakeFromLoadMode
6017:__ZNK14Texture2DArray26GetTypeInfoVirtualInternalEv
6018:__ZN14Texture2DArray23VirtualRedirectTransferER19StreamedBinaryWriteILb0EE
6019:__ZN14Texture2DArray23VirtualRedirectTransferER18StreamedBinaryReadILb0EE
6020:__ZN14Texture2DArray23VirtualRedirectTransferER24GenerateTypeTreeTransfer
6021:__ZN14Texture2DArray23VirtualRedirectTransferER14SafeBinaryRead
6022:__ZNK14Texture2DArray12GetDimensionEv
6023:__ZN14Texture2DArray34UpdateFileTextureUploadInstructionEP28FileTextureUploadInstructionj
6024:__ZNK14Texture2DArray13GetIsReadableEv
6025:__ZN14Texture2DArray19UnloadFromGfxDeviceEb
6026:__ZN14Texture2DArray17UploadToGfxDeviceEv
6027:__ZN14Texture2DArray13UploadTextureEv
6028:__ZN14Texture2DArray8TransferI14SafeBinaryReadEEvRT_
6029:__ZN14Texture2DArray8TransferI24GenerateTypeTreeTransferEEvRT_
6030:__ZN14Texture2DArray8TransferI18StreamedBinaryReadILb0EEEEvRT_
6031:__ZN14Texture2DArray8TransferI19StreamedBinaryWriteILb0EEEEvRT_
6032:__ZN8Renderer12GetTransformEv
6033:__ZN8Renderer15ThreadedCleanupEv
6034:__ZN14SafeBinaryRead21TransferSTLStyleArrayI13dynamic_arrayI8Vector4fLj4EEEEvRT_17TransferMetaFlags
6035:__ZN14SafeBinaryRead21TransferSTLStyleArrayI13dynamic_arrayI8Vector2fLj4EEEEvRT_17TransferMetaFlags
6036:__ZN14SafeBinaryRead21TransferSTLStyleArrayI13dynamic_arrayItLj2EEEEvRT_17TransferMetaFlags
6037:__ZN14SafeBinaryRead8TransferItEEvRT_PKc17TransferMetaFlags
6038:__ZN18StreamedBinaryReadILb0EE21TransferSTLStyleArrayI13dynamic_arrayI8Vector4fLj4EEEEvRT_17TransferMetaFlags
6039:__ZN18StreamedBinaryReadILb0EE21TransferSTLStyleArrayI13dynamic_arrayI8Vector2fLj4EEEEvRT_17TransferMetaFlags
6040:__ZN18StreamedBinaryReadILb0EE21TransferSTLStyleArrayI13dynamic_arrayItLj2EEEEvRT_17TransferMetaFlags
6041:__ZN8Renderer13BoundsChangedEv
6042:__ZN4MeshD2Ev
6043:__ZN4MeshD0Ev
6044:__ZN4Mesh17MainThreadCleanupEv
6045:__ZN4Mesh13AwakeFromLoadE17AwakeFromLoadMode
6046:__ZN4Mesh21AwakeFromLoadThreadedEv
6047:__ZNK4Mesh26GetTypeInfoVirtualInternalEv
6048:__ZNK4Mesh20GetRuntimeMemorySizeEv
6049:__ZN4Mesh23VirtualRedirectTransferER19StreamedBinaryWriteILb0EE
6050:__ZN4Mesh23VirtualRedirectTransferER18StreamedBinaryReadILb0EE
6051:__ZN4Mesh23VirtualRedirectTransferER17RemapPPtrTransfer
6052:__ZN4Mesh23VirtualRedirectTransferER24GenerateTypeTreeTransfer
6053:__ZN4Mesh23VirtualRedirectTransferER14SafeBinaryRead
6054:__ZN4Mesh8TransferI14SafeBinaryReadEEvRT_
6055:__ZN4Mesh21UnswizzleVertexColorsEb
6056:__ZN14BlendShapeData8TransferI14SafeBinaryReadEEvRT_
6057:__ZN14SafeBinaryRead21TransferSTLStyleArrayI13dynamic_arrayI10Matrix4x4fLj16EEEEvRT_17TransferMetaFlags
6058:__ZN14SafeBinaryRead21TransferSTLStyleArrayI13dynamic_arrayI13BoneInfluenceLj16EEEEvRT_17TransferMetaFlags
6059:__ZN14SafeBinaryRead21TransferSTLStyleArrayI13dynamic_arrayI11ColorRGBA32Lj4EEEEvRT_17TransferMetaFlags
6060:__ZNK14VertexDataInfo16GetStreamsLayoutEv
6061:__ZN4Mesh14ResizeVerticesEj17ShaderChannelMaskS0_RK20VertexChannelsLayoutRK19VertexStreamsLayout
6062:__ZN10VertexData13SwapEndianessEv
6063:__ZN14VertexDataInfoC2Ev
6064:__ZN14CompressedMesh8TransferI14SafeBinaryReadEEvRT_
6065:__ZN14CompressedMesh10DecompressER4Mesh
6066:__ZN14CompressedMeshD2Ev
6067:__ZN17CollisionMeshData8TransferI14SafeBinaryReadEEvRT_R4Mesh
6068:__ZN17PackedFloatVector12UnpackFloatsEPfiiii
6069:__ZN4Mesh27SwizzleVertexColorsIfNeededEb
6070:__ZN10VertexData6ResizeEj17ShaderChannelMaskS0_RK19VertexStreamsLayoutRK20VertexChannelsLayout
6071:__ZN13dynamic_arrayI13BoneInfluenceLj16EE18resize_initializedEjRKS0_12ResizePolicy
6072:__ZN13BoneInfluence8TransferI14SafeBinaryReadEEvRT_
6073:__ZN13dynamic_arrayI10Matrix4x4fLj16EE18resize_initializedEjRKS0_12ResizePolicy
6074:__ZN10Matrix4x4f8TransferI14SafeBinaryReadEEvRT_
6075:__ZN14SafeBinaryRead21TransferSTLStyleArrayI13dynamic_arrayI16BlendShapeVertexLj4EEEEvRT_17TransferMetaFlags
6076:__ZN14SafeBinaryRead21TransferSTLStyleArrayI13dynamic_arrayI10BlendShapeLj4EEEEvRT_17TransferMetaFlags
6077:__ZN14SafeBinaryRead21TransferSTLStyleArrayINSt3__26vectorI17BlendShapeChannelNS1_9allocatorIS3_EEEEEEvRT_17TransferMetaFlags
6078:__ZN14SafeBinaryRead21TransferSTLStyleArrayI13dynamic_arrayIfLj4EEEEvRT_17TransferMetaFlags
6079:__Z14resize_trimmedINSt3__26vectorI17BlendShapeChannelNS0_9allocatorIS2_EEEEEvRT_j
6080:__ZN17BlendShapeChannel8TransferI14SafeBinaryReadEEvRT_
6081:__ZNSt3__26vectorI17BlendShapeChannelNS_9allocatorIS1_EEE6assignINS_11__wrap_iterIPS1_EEEENS_9enable_ifIXaasr21__is_forward_iteratorIT_EE5valuesr16is_constructibleIS1_NS_15iterator_traitsISA_E9referenceEEE5valueEvE4typeESA_SA_
6082:__ZNSt3__26vectorI17BlendShapeChannelNS_9allocatorIS1_EEE8__appendEj
6083:__ZN15SerializeTraitsI13dynamic_arrayI10BlendShapeLj4EEE19ResizeSTLStyleArrayERS2_i18MemLabelIdentifier
6084:__ZN15SerializeTraitsI10BlendShapeE8TransferI14SafeBinaryReadEEvRS0_RT_
6085:__ZN13dynamic_arrayI16BlendShapeVertexLj4EE18resize_initializedEjRKS0_12ResizePolicy
6086:__ZN16BlendShapeVertex8TransferI14SafeBinaryReadEEvRT_
6087:__ZN4Mesh8TransferI24GenerateTypeTreeTransferEEvRT_
6088:__ZN14BlendShapeData8TransferI24GenerateTypeTreeTransferEEvRT_
6089:__ZN10Matrix4x4f8TransferI24GenerateTypeTreeTransferEEvRT_
6090:__ZN13BoneInfluence8TransferI24GenerateTypeTreeTransferEEvRT_
6091:__ZN14CompressedMesh8TransferI24GenerateTypeTreeTransferEEvRT_
6092:__ZN17CollisionMeshData8TransferI24GenerateTypeTreeTransferEEvRT_R4Mesh
6093:__ZN10BlendShape8TransferI24GenerateTypeTreeTransferEEvRT_
6094:__ZN17BlendShapeChannel8TransferI24GenerateTypeTreeTransferEEvRT_
6095:__ZN4Mesh8TransferI17RemapPPtrTransferEEvRT_
6096:__ZN4Mesh8TransferI18StreamedBinaryReadILb0EEEEvRT_
6097:__ZN14BlendShapeData8TransferI18StreamedBinaryReadILb0EEEEvRT_
6098:__ZN10Matrix4x4f8TransferI18StreamedBinaryReadILb0EEEEvRT_
6099:__ZN14CompressedMesh8TransferI18StreamedBinaryReadILb0EEEEvRT_
6100:__ZN17CollisionMeshData8TransferI18StreamedBinaryReadILb0EEEEvRT_R4Mesh
6101:__ZN18StreamedBinaryReadILb0EE21TransferSTLStyleArrayI13dynamic_arrayI16BlendShapeVertexLj4EEEEvRT_17TransferMetaFlags
6102:__ZN10BlendShape8TransferI18StreamedBinaryReadILb0EEEEvRT_
6103:__ZN17BlendShapeChannel8TransferI18StreamedBinaryReadILb0EEEEvRT_
6104:__ZN16BlendShapeVertex8TransferI18StreamedBinaryReadILb0EEEEvRT_
6105:__ZN4Mesh8TransferI19StreamedBinaryWriteILb0EEEEvRT_
6106:__ZN14BlendShapeData8TransferI19StreamedBinaryWriteILb0EEEEvRT_
6107:__ZN10Matrix4x4f8TransferI19StreamedBinaryWriteILb0EEEEvRT_
6108:__ZN13BoneInfluence8TransferI19StreamedBinaryWriteILb0EEEEvRT_
6109:__ZN14CompressedMesh8CompressERK4MeshRK21CompressedMeshQuality
6110:__ZN14CompressedMesh8TransferI19StreamedBinaryWriteILb0EEEEvRT_
6111:__ZN17PackedFloatVector10PackFloatsEPKfiiiib
6112:__ZN15PackedIntVector8PackIntsItEEvPT_i
6113:__ZN14VertexDataInfo18SetAsSingleChannelEPvj13ShaderChannelRK22ChannelFormatDimension
6114:__Z22CopyVertexDataChannelsj17ShaderChannelMaskRK14VertexDataInfoRS0_
6115:__ZN15PackedIntVector8PackIntsIjEEvPT_i
6116:__ZNK4Mesh17ExtractColorArrayEP10ColorRGBAf
6117:__ZN16BlendShapeVertex8TransferI19StreamedBinaryWriteILb0EEEEvRT_
6118:__ZN10BlendShape8TransferI19StreamedBinaryWriteILb0EEEEvRT_
6119:__ZN17BlendShapeChannel8TransferI19StreamedBinaryWriteILb0EEEEvRT_
6120:__ZN17CollisionMeshData21AwakeFromLoadThreadedER4Mesh
6121:__ZN4Mesh14UploadMeshDataEb
6122:__ZN4Mesh14ClearSkinCacheEv
6123:__ZN4Mesh18UpdateVertexFormatEv
6124:__Z17SendMessageDirectR6ObjectRK17MessageIdentifierR11MessageData
6125:__ZN17CollisionMeshData7CleanupEv
6126:__ZN4Mesh19UnloadFromGfxDeviceEv
6127:__ZN14BlendShapeDataD2Ev
6128:__ZN10MeshFilter13AwakeFromLoadE17AwakeFromLoadMode
6129:__ZNK10MeshFilter26GetTypeInfoVirtualInternalEv
6130:__ZN10MeshFilter23VirtualRedirectTransferER19StreamedBinaryWriteILb0EE
6131:__ZN10MeshFilter23VirtualRedirectTransferER18StreamedBinaryReadILb0EE
6132:__ZN10MeshFilter23VirtualRedirectTransferER17RemapPPtrTransfer
6133:__ZN10MeshFilter23VirtualRedirectTransferER24GenerateTypeTreeTransfer
6134:__ZN10MeshFilter23VirtualRedirectTransferER14SafeBinaryRead
6135:__ZN10MeshFilter20WillDestroyComponentEv
6136:__ZN12MeshRenderer16UpdateCachedMeshEv
6137:__ZN8Renderer20ResetStaticBatchInfoEv
6138:__ZN12MeshRenderer18CalculateLocalAABBER4AABBRKS_RK4Mesh
6139:__ZN12MeshRendererD2Ev
6140:__ZN12MeshRendererD0Ev
6141:__ZN12MeshRenderer17MainThreadCleanupEv
6142:__ZN12MeshRenderer13AwakeFromLoadE17AwakeFromLoadMode
6143:__ZNK12MeshRenderer26GetTypeInfoVirtualInternalEv
6144:__ZN12MeshRenderer23VirtualRedirectTransferER19StreamedBinaryWriteILb0EE
6145:__ZN12MeshRenderer23VirtualRedirectTransferER18StreamedBinaryReadILb0EE
6146:__ZN12MeshRenderer23VirtualRedirectTransferER17RemapPPtrTransfer
6147:__ZN12MeshRenderer23VirtualRedirectTransferER24GenerateTypeTreeTransfer
6148:__ZN12MeshRenderer23VirtualRedirectTransferER14SafeBinaryRead
6149:__ZN12MeshRenderer10DeactivateE19DeactivateOperation
6150:__ZN12MeshRenderer15AddAsRenderNodeER15RenderNodeQueueRK20DeprecatedSourceData
6151:__ZNK12MeshRenderer19GetStaticBatchIndexEv
6152:__ZThn32_N12MeshRendererD1Ev
6153:__ZThn32_N12MeshRendererD0Ev
6154:__ZThn32_N12MeshRenderer15AddAsRenderNodeER15RenderNodeQueueRK20DeprecatedSourceData
6155:__ZThn32_NK12MeshRenderer19GetStaticBatchIndexEv
6156:__ZNK9Transform21GetLocalToWorldMatrixER10Matrix4x4f
6157:__ZN14SpriteRendererD2Ev
6158:__ZN14SpriteRendererD0Ev
6159:__ZN14SpriteRenderer17MainThreadCleanupEv
6160:__ZN14SpriteRenderer13AwakeFromLoadE17AwakeFromLoadMode
6161:__ZN14SpriteRenderer5ResetEv
6162:__ZN14SpriteRenderer10SmartResetEv
6163:__ZNK14SpriteRenderer26GetTypeInfoVirtualInternalEv
6164:__ZN14SpriteRenderer23VirtualRedirectTransferER19StreamedBinaryWriteILb0EE
6165:__ZN14SpriteRenderer23VirtualRedirectTransferER18StreamedBinaryReadILb0EE
6166:__ZN14SpriteRenderer23VirtualRedirectTransferER17RemapPPtrTransfer
6167:__ZN14SpriteRenderer23VirtualRedirectTransferER24GenerateTypeTreeTransfer
6168:__ZN14SpriteRenderer23VirtualRedirectTransferER14SafeBinaryRead
6169:__ZN14SpriteRenderer15AddAsRenderNodeER15RenderNodeQueueRK20DeprecatedSourceData
6170:__ZThn32_N14SpriteRendererD1Ev
6171:__ZThn32_N14SpriteRendererD0Ev
6172:__ZThn32_N14SpriteRenderer15AddAsRenderNodeER15RenderNodeQueueRK20DeprecatedSourceData
6173:__ZN12BaseRenderer11ClearProbesER10RenderNode
6174:__ZN14SpriteRenderer15AcquireGeometryEv
6175:__Z26DrawSpriteRawFromNodeQueueRK15RenderNodeQueuej17ShaderChannelMaski
6176:__Z33CleanupDrawSpriteRawFromNodeQueueR15RenderNodeQueuej
6177:__Z30DrawSpriteBatchedFromNodeQueueRK15RenderNodeQueueRK18RenderMultipleData17ShaderChannelMask
6178:__ZNK17InstancedPropInfo21RenderSpriteInstancesERK15RenderNodeQueuePK17BatchInstanceDataj17ShaderChannelMask
6179:__Z28FillGapsInColdShaderChannels17ShaderChannelMask
6180:__Z28IsColdVertexDataInSameFormatRK14SharedMeshData17ShaderChannelMaskRK20VertexChannelsLayout
6181:__Z24RenderDynamicBatchSpriteRK15RenderNodeQueuePK17BatchInstanceDatajjj17ShaderChannelMaskS5_RK20VertexChannelsLayout
6182:__Z19GetVertexBufferDataP14SharedMeshDataR16VertexBufferDatai
6183:__Z20GetSpriteDeviceColorRK10ColorRGBAf
6184:__Z24ExtractSpriteMeshBuffersP19SpriteRenderingData17ShaderChannelMaskR11MeshBuffers
6185:__Z16TransformIndicesPtPKvjjjjb
6186:__ZNK16SpriteRenderData19AcquireReadOnlyDataEv
6187:__ZN14SpriteRenderer8TransferI14SafeBinaryReadEEvRT_
6188:__ZN14SafeBinaryRead8TransferI10ColorRGBAfEEvRT_PKc17TransferMetaFlags
6189:__ZN14SafeBinaryRead8TransferIfEEvRT_PKc17TransferMetaFlags
6190:__ZN14SpriteRenderer8TransferI24GenerateTypeTreeTransferEEvRT_
6191:__ZN14SpriteRenderer8TransferI17RemapPPtrTransferEEvRT_
6192:__ZN14SpriteRenderer8TransferI18StreamedBinaryReadILb0EEEEvRT_
6193:__ZN14SpriteRenderer8TransferI19StreamedBinaryWriteILb0EEEEvRT_
6194:__ZN8Renderer16SetMaterialCountEi
6195:__ZN16GraphicsSettings18GetBuiltinMaterialENS_19BuiltinMaterialTypeE
6196:__ZN8Renderer11SetMaterialE4PPtrI8MaterialEi
6197:__ZN14SpriteRenderer26InvalidateSpriteTilingDataEb
6198:__ZN14SpriteRenderer27AdjustSizeForDrawModeChangeEv
6199:__Z23ScheduleSpriteTilingJobR8JobFenceP14SharedMeshData8Vector2f14SpriteDrawModebfPK6Sprite
6200:__ZN16SpriteRenderData19UnloadRenderingDataEv
6201:__ZNK14SpriteRenderer15GetSpriteBoundsE14SpriteDrawMode
6202:__ZN14SpriteRenderer15UpdateCollidersEv
6203:__ZN16SpriteRenderDataC2Ev
6204:__ZN23SharedMeshRenderingDataC2E18MemLabelIdentifier
6205:__ZNK6Sprite9GetBoundsE8Vector2fbb
6206:__Z27GetSourceAndDestinationRectRKN4math7_float4ERKNS_7_float2ES5_S5_P17NineSliceRectDataRi
6207:__Z32GetSpriteTileVertexAndIndexCountRKf14SpriteDrawModebPK17NineSliceRectDataiRiS5_
6208:__Z14RecalculateUVs14StrideIteratorI8Vector2fES1_S_I8Vector3fER9Texture2DRKS0_RK5RectTIfERK8Vector4fSB_S7_21SpritePackingRotation
6209:__Z24SetSpriteMeshVertexCountP14SharedMeshDataj
6210:__Z23SetSpriteMeshIndexCountP14SharedMeshDataj
6211:__ZL27Generate9SliceRenderDataJobP19SpriteTilingJobData
6212:__Z22GenerateSpriteTileMeshR19SpriteTilingJobData
6213:__ZN9Transform13SetLocalScaleERK8Vector3f
6214:__ZN14SpriteRenderer15SetupPropertiesEv
6215:__ZN14SpriteRenderer18UpdateCachedSpriteEv
6216:__ZN8Renderer39GetCustomPropertiesRememberToUpdateHashEv
6217:__ZNSt3__26vectorIN4core12basic_stringIcNS1_20StringStorageDefaultIcEEEENS_9allocatorIS5_EEE6assignIPS5_EENS_9enable_ifIXaasr21__is_forward_iteratorIT_EE5valuesr16is_constructibleIS5_NS_15iterator_traitsISC_E9referenceEEE5valueEvE4typeESC_SC_
6218:__ZN9InputAxis6UpdateEv
6219:__ZN12InputManagerD2Ev
6220:__ZN12InputManagerD0Ev
6221:__ZN12InputManager16CheckConsistencyEv
6222:__ZN12InputManager5ResetEv
6223:__ZNK12InputManager26GetTypeInfoVirtualInternalEv
6224:__ZN12InputManager23VirtualRedirectTransferER19StreamedBinaryWriteILb0EE
6225:__ZN12InputManager23VirtualRedirectTransferER18StreamedBinaryReadILb0EE
6226:__ZN12InputManager23VirtualRedirectTransferER17RemapPPtrTransfer
6227:__ZN12InputManager23VirtualRedirectTransferER24GenerateTypeTreeTransfer
6228:__ZN12InputManager23VirtualRedirectTransferER14SafeBinaryRead
6229:__ZN12InputManager8TransferI14SafeBinaryReadEEvRT_
6230:__ZN14SafeBinaryRead21TransferSTLStyleArrayINSt3__26vectorI9InputAxisNS1_9allocatorIS3_EEEEEEvRT_17TransferMetaFlags
6231:__Z10AddGUIAxesRNSt3__26vectorI9InputAxisNS_9allocatorIS1_EEEE
6232:__ZN9InputAxisC2ERKN4core12basic_stringIcNS0_20StringStorageDefaultIcEEEE
6233:__ZN9InputAxisC2ERKS_
6234:__ZNSt3__26vectorI9InputAxisNS_9allocatorIS1_EEE21__push_back_slow_pathIKS1_EEvRT_
6235:__ZNSt3__214__split_bufferI9InputAxisRNS_9allocatorIS1_EEED2Ev
6236:__Z14resize_trimmedINSt3__26vectorI9InputAxisNS0_9allocatorIS2_EEEEEvRT_j
6237:__ZN9InputAxis8TransferI14SafeBinaryReadEEvRT_
6238:__ZNSt3__26vectorI9InputAxisNS_9allocatorIS1_EEE6assignINS_11__wrap_iterIPS1_EEEENS_9enable_ifIXaasr21__is_forward_iteratorIT_EE5valuesr16is_constructibleIS1_NS_15iterator_traitsISA_E9referenceEEE5valueEvE4typeESA_SA_
6239:__ZNSt3__26vectorI9InputAxisNS_9allocatorIS1_EEE6resizeEj
6240:__ZNSt3__213__vector_baseI9InputAxisNS_9allocatorIS1_EEED2Ev
6241:__ZNSt3__26vectorI9InputAxisNS_9allocatorIS1_EEE8__appendEj
6242:__ZN9InputAxisaSERKS_
6243:__ZNSt3__26vectorI9InputAxisNS_9allocatorIS1_EEE10deallocateEv
6244:__ZN24GenerateTypeTreeTransfer21TransferSTLStyleArrayINSt3__26vectorI9InputAxisNS1_9allocatorIS3_EEEEEEvRT_17TransferMetaFlags
6245:__ZN9InputAxis8TransferI24GenerateTypeTreeTransferEEvRT_
6246:__ZN9InputAxis8TransferI18StreamedBinaryReadILb0EEEEvRT_
6247:__ZN9InputAxis8TransferI19StreamedBinaryWriteILb0EEEEvRT_
6248:__ZN12InputManager11MakeDefaultEv
6249:__ZN11TimeManagerD2Ev
6250:__ZN11TimeManagerD0Ev
6251:__ZN11TimeManager13AwakeFromLoadE17AwakeFromLoadMode
6252:__ZN11TimeManager16CheckConsistencyEv
6253:__ZN11TimeManager5ResetEv
6254:__ZNK11TimeManager26GetTypeInfoVirtualInternalEv
6255:__ZN11TimeManager23VirtualRedirectTransferER19StreamedBinaryWriteILb0EE
6256:__ZN11TimeManager23VirtualRedirectTransferER18StreamedBinaryReadILb0EE
6257:__ZN11TimeManager23VirtualRedirectTransferER24GenerateTypeTreeTransfer
6258:__ZN11TimeManager23VirtualRedirectTransferER14SafeBinaryRead
6259:__ZN11TimeManager6UpdateEv
6260:__ZN11TimeManager8TransferI24GenerateTypeTreeTransferEEvRT_
6261:__ZN11TimeManager8TransferI18StreamedBinaryReadILb0EEEEvRT_
6262:__ZN11TimeManager8TransferI19StreamedBinaryWriteILb0EEEEvRT_
6263:__ZN13BuildSettingsD2Ev
6264:__ZN13BuildSettingsD0Ev
6265:__ZN13BuildSettings13AwakeFromLoadE17AwakeFromLoadMode
6266:__ZNK13BuildSettings26GetTypeInfoVirtualInternalEv
6267:__ZN13BuildSettings23VirtualRedirectTransferER19StreamedBinaryWriteILb0EE
6268:__ZN13BuildSettings23VirtualRedirectTransferER18StreamedBinaryReadILb0EE
6269:__ZN13BuildSettings23VirtualRedirectTransferER24GenerateTypeTreeTransfer
6270:__ZN13BuildSettings23VirtualRedirectTransferER14SafeBinaryRead
6271:__ZN13BuildSettings8TransferI14SafeBinaryReadEEvRT_
6272:__ZNK12UnityVersionltERKS_
6273:__Z17DebugStringToFileIN4core12basic_stringIcNS0_20StringStorageDefaultIcEEEEEvRKT_iPKci15LogMessageFlagsiiPFvRK11CppLogEntryE
6274:__ZN14SafeBinaryRead21TransferSTLStyleArrayI10vector_mapIPKN5Unity4TypeE7Hash128NSt3__24lessIS5_EENS7_9allocatorINS7_4pairIS5_S6_EEEEEEEvRT_17TransferMetaFlags
6275:__ZNSt3__26__sortIRNS_6__lessINS_4pairIPKN5Unity4TypeE7Hash128EES8_EEPS8_EEvT0_SC_T_
6276:__ZN14SafeBinaryRead21TransferSTLStyleArrayI10vector_mapI7Hash128S2_NSt3__24lessIS2_EENS3_9allocatorINS3_4pairIS2_S2_EEEEEEEvRT_17TransferMetaFlags
6277:__ZNSt3__26vectorINS_4pairI7Hash128S2_EENS_9allocatorIS3_EEE8__appendEj
6278:__ZN15SerializeTraitsINSt3__24pairI7Hash128S2_EEE8TransferI14SafeBinaryReadEEvRS3_RT_
6279:__ZNSt3__27__sort3IRNS_6__lessINS_4pairIPKN5Unity4TypeE7Hash128EES8_EEPS8_EEjT0_SC_SC_T_
6280:__ZNSt3__27__sort4IRNS_6__lessINS_4pairIPKN5Unity4TypeE7Hash128EES8_EEPS8_EEjT0_SC_SC_SC_T_
6281:__ZNSt3__27__sort5IRNS_6__lessINS_4pairIPKN5Unity4TypeE7Hash128EES8_EEPS8_EEjT0_SC_SC_SC_SC_T_
6282:__ZNSt3__218__insertion_sort_3IRNS_6__lessINS_4pairIPKN5Unity4TypeE7Hash128EES8_EEPS8_EEvT0_SC_T_
6283:__ZNSt3__227__insertion_sort_incompleteIRNS_6__lessINS_4pairIPKN5Unity4TypeE7Hash128EES8_EEPS8_EEbT0_SC_T_
6284:__ZNSt3__26vectorINS_4pairIPKN5Unity4TypeE7Hash128EENS_9allocatorIS7_EEE8__appendEj
6285:__ZN15SerializeTraitsINSt3__24pairIPKN5Unity4TypeE7Hash128EEE8TransferI14SafeBinaryReadEEvRS7_RT_
6286:__ZN13BuildSettings8TransferI24GenerateTypeTreeTransferEEvRT_
6287:__ZN13BuildSettings8TransferI18StreamedBinaryReadILb0EEEEvRT_
6288:__ZN18StreamedBinaryReadILb0EE21TransferSTLStyleArrayI10vector_mapIPKN5Unity4TypeE7Hash128NSt3__24lessIS6_EENS8_9allocatorINS8_4pairIS6_S7_EEEEEEEvRT_17TransferMetaFlags
6289:__ZN18StreamedBinaryReadILb0EE21TransferSTLStyleArrayI10vector_mapI7Hash128S3_NSt3__24lessIS3_EENS4_9allocatorINS4_4pairIS3_S3_EEEEEEEvRT_17TransferMetaFlags
6290:__ZN13BuildSettings8TransferI19StreamedBinaryWriteILb0EEEEvRT_
6291:__ZN14PlayerSettingsD2Ev
6292:__ZN14PlayerSettingsD0Ev
6293:__ZN14PlayerSettings13AwakeFromLoadE17AwakeFromLoadMode
6294:__ZN14PlayerSettings16CheckConsistencyEv
6295:__ZN14PlayerSettings5ResetEv
6296:__ZNK14PlayerSettings26GetTypeInfoVirtualInternalEv
6297:__ZN14PlayerSettings23VirtualRedirectTransferER19StreamedBinaryWriteILb0EE
6298:__ZN14PlayerSettings23VirtualRedirectTransferER18StreamedBinaryReadILb0EE
6299:__ZN14PlayerSettings23VirtualRedirectTransferER17RemapPPtrTransfer
6300:__ZN14PlayerSettings23VirtualRedirectTransferER24GenerateTypeTreeTransfer
6301:__ZN14PlayerSettings23VirtualRedirectTransferER14SafeBinaryRead
6302:__ZN14PlayerSettings8TransferI14SafeBinaryReadEEvRT_
6303:__ZN26PlayerSettingsSplashScreen8TransferI14SafeBinaryReadEEvRT_
6304:__ZN10VRSettings8TransferI14SafeBinaryReadEEvRT_
6305:__ZN10VRSettings9Cardboard8TransferI14SafeBinaryReadEEvRT_
6306:__ZN10VRSettings8Daydream8TransferI14SafeBinaryReadEEvRT_
6307:__ZN14SafeBinaryRead21TransferSTLStyleArrayI13dynamic_arrayI16SplashScreenLogoLj4EEEEvRT_17TransferMetaFlags
6308:__ZN15SerializeTraitsI16SplashScreenLogoE8TransferI14SafeBinaryReadEEvRS0_RT_
6309:__ZN14PlayerSettings8TransferI24GenerateTypeTreeTransferEEvRT_
6310:__ZN26PlayerSettingsSplashScreen8TransferI24GenerateTypeTreeTransferEEvRT_
6311:__ZN12AspectRatios8TransferI24GenerateTypeTreeTransferEEvRT_
6312:__ZN10VRSettings8TransferI24GenerateTypeTreeTransferEEvRT_
6313:__ZN24GenerateTypeTreeTransfer32TransferSTLStyleArrayWithElementI16SplashScreenLogoEEvRT_17TransferMetaFlags
6314:__ZN14PlayerSettings8TransferI17RemapPPtrTransferEEvRT_
6315:__ZN26PlayerSettingsSplashScreen8TransferI17RemapPPtrTransferEEvRT_
6316:__ZN14PlayerSettings8TransferI18StreamedBinaryReadILb0EEEEvRT_
6317:__ZN26PlayerSettingsSplashScreen8TransferI18StreamedBinaryReadILb0EEEEvRT_
6318:__ZN12AspectRatios8TransferI18StreamedBinaryReadILb0EEEEvRT_
6319:__ZN10VRSettings8TransferI18StreamedBinaryReadILb0EEEEvRT_
6320:__ZN18StreamedBinaryReadILb0EE21TransferSTLStyleArrayI13dynamic_arrayI16SplashScreenLogoLj4EEEEvRT_17TransferMetaFlags
6321:__ZN14PlayerSettings8TransferI19StreamedBinaryWriteILb0EEEEvRT_
6322:__ZN26PlayerSettingsSplashScreen8TransferI19StreamedBinaryWriteILb0EEEEvRT_
6323:__ZN12AspectRatios8TransferI19StreamedBinaryWriteILb0EEEEvRT_
6324:__ZN10VRSettings8TransferI19StreamedBinaryWriteILb0EEEEvRT_
6325:__ZN14PlayerSettings18InitDefaultCursorsEv
6326:__Z20SetStackTraceLogType7LogType17StackTraceLogType
6327:__ZN15ResourceManagerD2Ev
6328:__ZN15ResourceManagerD0Ev
6329:__ZNK15ResourceManager26GetTypeInfoVirtualInternalEv
6330:__ZN15ResourceManager23VirtualRedirectTransferER19StreamedBinaryWriteILb0EE
6331:__ZN15ResourceManager23VirtualRedirectTransferER18StreamedBinaryReadILb0EE
6332:__ZN15ResourceManager23VirtualRedirectTransferER17RemapPPtrTransfer
6333:__ZN15ResourceManager23VirtualRedirectTransferER24GenerateTypeTreeTransfer
6334:__ZN15ResourceManager23VirtualRedirectTransferER14SafeBinaryRead
6335:__ZN15ResourceManager8TransferI14SafeBinaryReadEEvRT_
6336:__ZN14SafeBinaryRead19TransferSTLStyleMapINSt3__28multimapIN4core12basic_stringIcNS3_20StringStorageDefaultIcEEEE4PPtrI6ObjectENS1_4lessIS7_EE13stl_allocatorINS1_4pairIKS7_SA_EEL18MemLabelIdentifier51ELi16EEEEEEvRT_17TransferMetaFlags
6337:__ZN14SafeBinaryRead21TransferSTLStyleArrayINSt3__26vectorIN15ResourceManager10DependencyE13stl_allocatorIS4_L18MemLabelIdentifier51ELi16EEEEEEvRT_17TransferMetaFlags
6338:__ZNSt3__26__sortIRN15ResourceManager10Dependency6SorterEPS2_EEvT0_S6_T_
6339:__ZNSt3__26vectorI4PPtrI6ObjectE13stl_allocatorIS3_L18MemLabelIdentifier51ELi16EEE6assignIPS3_EENS_9enable_ifIXaasr21__is_forward_iteratorIT_EE5valuesr16is_constructibleIS3_NS_15iterator_traitsISB_E9referenceEEE5valueEvE4typeESB_SB_
6340:__ZNSt3__27__sort3IRN15ResourceManager10Dependency6SorterEPS2_EEjT0_S6_S6_T_
6341:__ZNSt3__27__sort4IRN15ResourceManager10Dependency6SorterEPS2_EEjT0_S6_S6_S6_T_
6342:__ZNSt3__27__sort5IRN15ResourceManager10Dependency6SorterEPS2_EEjT0_S6_S6_S6_S6_T_
6343:__ZNSt3__218__insertion_sort_3IRN15ResourceManager10Dependency6SorterEPS2_EEvT0_S6_T_
6344:__ZNSt3__227__insertion_sort_incompleteIRN15ResourceManager10Dependency6SorterEPS2_EEbT0_S6_T_
6345:__Z14resize_trimmedINSt3__26vectorIN15ResourceManager10DependencyE13stl_allocatorIS3_L18MemLabelIdentifier51ELi16EEEEEvRT_j
6346:__ZN15ResourceManager10Dependency8TransferI14SafeBinaryReadEEvRT_
6347:__ZN14SafeBinaryRead21TransferSTLStyleArrayINSt3__26vectorI4PPtrI6ObjectE13stl_allocatorIS5_L18MemLabelIdentifier51ELi16EEEEEEvRT_17TransferMetaFlags
6348:__Z14resize_trimmedINSt3__26vectorI4PPtrI6ObjectE13stl_allocatorIS4_L18MemLabelIdentifier51ELi16EEEEEvRT_j
6349:__ZNSt3__26vectorI4PPtrI6ObjectE13stl_allocatorIS3_L18MemLabelIdentifier51ELi16EEE6assignINS_11__wrap_iterIPS3_EEEENS_9enable_ifIXaasr21__is_forward_iteratorIT_EE5valuesr16is_constructibleIS3_NS_15iterator_traitsISD_E9referenceEEE5valueEvE4typeESD_SD_
6350:__ZNSt3__26vectorI4PPtrI6ObjectE13stl_allocatorIS3_L18MemLabelIdentifier51ELi16EEE8__appendEj
6351:__ZNSt3__26vectorIN15ResourceManager10DependencyE13stl_allocatorIS2_L18MemLabelIdentifier51ELi16EEE7reserveEj
6352:__ZNSt3__26vectorIN15ResourceManager10DependencyE13stl_allocatorIS2_L18MemLabelIdentifier51ELi16EEE6assignINS_11__wrap_iterIPS2_EEEENS_9enable_ifIXaasr21__is_forward_iteratorIT_EE5valuesr16is_constructibleIS2_NS_15iterator_traitsISC_E9referenceEEE5valueEvE4typeESC_SC_
6353:__ZNSt3__26vectorIN15ResourceManager10DependencyE13stl_allocatorIS2_L18MemLabelIdentifier51ELi16EEE8__appendEj
6354:__ZNSt3__26vectorIN15ResourceManager10DependencyE13stl_allocatorIS2_L18MemLabelIdentifier51ELi16EEEC2INS_11__wrap_iterIPS2_EEEET_SB_RKS5_PNS_9enable_ifIXaasr21__is_forward_iteratorISB_EE5valuesr16is_constructibleIS2_NS_15iterator_traitsISB_E9referenceEEE5valueEvE4typeE
6355:__ZNSt3__26vectorIN15ResourceManager10DependencyE13stl_allocatorIS2_L18MemLabelIdentifier51ELi16EEE26__swap_out_circular_bufferERNS_14__split_bufferIS2_RS5_EE
6356:__ZNSt3__26__treeINS_12__value_typeIN4core12basic_stringIcNS2_20StringStorageDefaultIcEEEE4PPtrI6ObjectEEENS_19__map_value_compareIS6_SA_NS_4lessIS6_EELb1EEE13stl_allocatorISA_L18MemLabelIdentifier51ELi16EEE7destroyEPNS_11__tree_nodeISA_PvEE
6357:__ZN15SerializeTraitsINSt3__28multimapIN4core12basic_stringIcNS2_20StringStorageDefaultIcEEEE4PPtrI6ObjectENS0_4lessIS6_EE13stl_allocatorINS0_4pairIKS6_S9_EEL18MemLabelIdentifier51ELi16EEEEE8TransferI24GenerateTypeTreeTransferEEvRSI_RT_
6358:__ZN24GenerateTypeTreeTransfer8TransferINSt3__26vectorIN15ResourceManager10DependencyE13stl_allocatorIS4_L18MemLabelIdentifier51ELi16EEEEEEvRT_PKc17TransferMetaFlags
6359:__ZN15ResourceManager10Dependency8TransferI24GenerateTypeTreeTransferEEvRT_
6360:__ZN15SerializeTraitsINSt3__24pairIN4core12basic_stringIcNS2_20StringStorageDefaultIcEEEE4PPtrI6ObjectEEEE8TransferI24GenerateTypeTreeTransferEEvRSA_RT_
6361:__ZN15ResourceManager8TransferI17RemapPPtrTransferEEvRT_
6362:__ZN18StreamedBinaryReadILb0EE19TransferSTLStyleMapINSt3__28multimapIN4core12basic_stringIcNS4_20StringStorageDefaultIcEEEE4PPtrI6ObjectENS2_4lessIS8_EE13stl_allocatorINS2_4pairIKS8_SB_EEL18MemLabelIdentifier51ELi16EEEEEEvRT_17TransferMetaFlags
6363:__ZN18StreamedBinaryReadILb0EE21TransferSTLStyleArrayINSt3__26vectorIN15ResourceManager10DependencyE13stl_allocatorIS5_L18MemLabelIdentifier51ELi16EEEEEEvRT_17TransferMetaFlags
6364:__ZN15ResourceManager8TransferI19StreamedBinaryWriteILb0EEEEvRT_
6365:__ZN19StreamedBinaryWriteILb0EE21TransferSTLStyleArrayINSt3__26vectorIN15ResourceManager10DependencyE13stl_allocatorIS5_L18MemLabelIdentifier51ELi16EEEEEEvRT_17TransferMetaFlags
6366:__ZN30RuntimeInitializeOnLoadManagerD2Ev
6367:__ZN30RuntimeInitializeOnLoadManagerD0Ev
6368:__ZNK30RuntimeInitializeOnLoadManager26GetTypeInfoVirtualInternalEv
6369:__ZN30RuntimeInitializeOnLoadManager23VirtualRedirectTransferER19StreamedBinaryWriteILb0EE
6370:__ZN30RuntimeInitializeOnLoadManager23VirtualRedirectTransferER18StreamedBinaryReadILb0EE
6371:__ZN30RuntimeInitializeOnLoadManager23VirtualRedirectTransferER24GenerateTypeTreeTransfer
6372:__ZN30RuntimeInitializeOnLoadManager23VirtualRedirectTransferER14SafeBinaryRead
6373:__ZN30RuntimeInitializeOnLoadManager8TransferI14SafeBinaryReadEEvRT_
6374:__ZN14SafeBinaryRead21TransferSTLStyleArrayINSt3__26vectorIN4core12basic_stringIcNS3_20StringStorageDefaultIcEEEE13stl_allocatorIS7_L18MemLabelIdentifier12ELi16EEEEEEvRT_17TransferMetaFlags
6375:__ZN14SafeBinaryRead21TransferSTLStyleArrayINSt3__26vectorIN30RuntimeInitializeOnLoadManager9ClassInfoE13stl_allocatorIS4_L18MemLabelIdentifier12ELi16EEEEEEvRT_17TransferMetaFlags
6376:__ZN14SafeBinaryRead21TransferSTLStyleArrayINSt3__26vectorIN30RuntimeInitializeOnLoadManager15ClassMethodInfoE13stl_allocatorIS4_L18MemLabelIdentifier12ELi16EEEEEEvRT_17TransferMetaFlags
6377:__ZN14SafeBinaryRead21TransferSTLStyleArrayINSt3__26vectorIi13stl_allocatorIiL18MemLabelIdentifier12ELi16EEEEEEvRT_17TransferMetaFlags
6378:__Z14resize_trimmedINSt3__26vectorIi13stl_allocatorIiL18MemLabelIdentifier12ELi16EEEEEvRT_j
6379:__ZNSt3__26vectorIi13stl_allocatorIiL18MemLabelIdentifier12ELi16EEE6assignINS_11__wrap_iterIPiEEEENS_9enable_ifIXaasr21__is_forward_iteratorIT_EE5valuesr16is_constructibleIiNS_15iterator_traitsISA_E9referenceEEE5valueEvE4typeESA_SA_
6380:__ZNSt3__26vectorIi13stl_allocatorIiL18MemLabelIdentifier12ELi16EEE8__appendEj
6381:__Z14resize_trimmedINSt3__26vectorIN30RuntimeInitializeOnLoadManager15ClassMethodInfoE13stl_allocatorIS3_L18MemLabelIdentifier12ELi16EEEEEvRT_j
6382:__ZN30RuntimeInitializeOnLoadManager15ClassMethodInfo8TransferI14SafeBinaryReadEEvRT_
6383:__ZNSt3__26vectorIN30RuntimeInitializeOnLoadManager15ClassMethodInfoE13stl_allocatorIS2_L18MemLabelIdentifier12ELi16EEE7reserveEj
6384:__ZNSt3__26vectorIN30RuntimeInitializeOnLoadManager15ClassMethodInfoE13stl_allocatorIS2_L18MemLabelIdentifier12ELi16EEE6assignINS_11__wrap_iterIPS2_EEEENS_9enable_ifIXaasr21__is_forward_iteratorIT_EE5valuesr16is_constructibleIS2_NS_15iterator_traitsISC_E9referenceEEE5valueEvE4typeESC_SC_
6385:__ZNSt3__26vectorIN30RuntimeInitializeOnLoadManager15ClassMethodInfoE13stl_allocatorIS2_L18MemLabelIdentifier12ELi16EEE8__appendEj
6386:__ZNSt3__26vectorIN30RuntimeInitializeOnLoadManager15ClassMethodInfoE13stl_allocatorIS2_L18MemLabelIdentifier12ELi16EEEC2INS_11__wrap_iterIPS2_EEEET_SB_RKS5_PNS_9enable_ifIXaasr21__is_forward_iteratorISB_EE5valuesr16is_constructibleIS2_NS_15iterator_traitsISB_E9referenceEEE5valueEvE4typeE
6387:__Z14resize_trimmedINSt3__26vectorIN30RuntimeInitializeOnLoadManager9ClassInfoE13stl_allocatorIS3_L18MemLabelIdentifier12ELi16EEEEEvRT_j
6388:__ZN30RuntimeInitializeOnLoadManager9ClassInfo8TransferI14SafeBinaryReadEEvRT_
6389:__ZNSt3__26vectorIN30RuntimeInitializeOnLoadManager9ClassInfoE13stl_allocatorIS2_L18MemLabelIdentifier12ELi16EEE7reserveEj
6390:__ZNSt3__26vectorIN30RuntimeInitializeOnLoadManager9ClassInfoE13stl_allocatorIS2_L18MemLabelIdentifier12ELi16EEE6assignINS_11__wrap_iterIPS2_EEEENS_9enable_ifIXaasr21__is_forward_iteratorIT_EE5valuesr16is_constructibleIS2_NS_15iterator_traitsISC_E9referenceEEE5valueEvE4typeESC_SC_
6391:__ZNSt3__26vectorIN30RuntimeInitializeOnLoadManager9ClassInfoE13stl_allocatorIS2_L18MemLabelIdentifier12ELi16EEE8__appendEj
6392:__ZNSt3__26vectorIN30RuntimeInitializeOnLoadManager9ClassInfoE13stl_allocatorIS2_L18MemLabelIdentifier12ELi16EEEC2INS_11__wrap_iterIPS2_EEEET_SB_RKS5_PNS_9enable_ifIXaasr21__is_forward_iteratorISB_EE5valuesr16is_constructibleIS2_NS_15iterator_traitsISB_E9referenceEEE5valueEvE4typeE
6393:__Z14resize_trimmedINSt3__26vectorIN4core12basic_stringIcNS2_20StringStorageDefaultIcEEEE13stl_allocatorIS6_L18MemLabelIdentifier12ELi16EEEEEvRT_j
6394:__ZNSt3__26vectorIN4core12basic_stringIcNS1_20StringStorageDefaultIcEEEE13stl_allocatorIS5_L18MemLabelIdentifier12ELi16EEE7reserveEj
6395:__ZNSt3__26vectorIN4core12basic_stringIcNS1_20StringStorageDefaultIcEEEE13stl_allocatorIS5_L18MemLabelIdentifier12ELi16EEE6assignINS_11__wrap_iterIPS5_EEEENS_9enable_ifIXaasr21__is_forward_iteratorIT_EE5valuesr16is_constructibleIS5_NS_15iterator_traitsISF_E9referenceEEE5valueEvE4typeESF_SF_
6396:__ZNSt3__26vectorIN4core12basic_stringIcNS1_20StringStorageDefaultIcEEEE13stl_allocatorIS5_L18MemLabelIdentifier12ELi16EEE8__appendEj
6397:__ZNSt3__26vectorIN4core12basic_stringIcNS1_20StringStorageDefaultIcEEEE13stl_allocatorIS5_L18MemLabelIdentifier12ELi16EEEC2INS_11__wrap_iterIPS5_EEEET_SE_RKS8_PNS_9enable_ifIXaasr21__is_forward_iteratorISE_EE5valuesr16is_constructibleIS5_NS_15iterator_traitsISE_E9referenceEEE5valueEvE4typeE
6398:__ZN30RuntimeInitializeOnLoadManager8TransferI24GenerateTypeTreeTransferEEvRT_
6399:__ZN15SerializeTraitsINSt3__26vectorIN30RuntimeInitializeOnLoadManager9ClassInfoE13stl_allocatorIS3_L18MemLabelIdentifier12ELi16EEEEE8TransferI24GenerateTypeTreeTransferEEvRS7_RT_
6400:__ZN24GenerateTypeTreeTransfer8TransferINSt3__26vectorIN30RuntimeInitializeOnLoadManager15ClassMethodInfoE13stl_allocatorIS4_L18MemLabelIdentifier12ELi16EEEEEEvRT_PKc17TransferMetaFlags
6401:__ZN30RuntimeInitializeOnLoadManager15ClassMethodInfo8TransferI24GenerateTypeTreeTransferEEvRT_
6402:__ZN30RuntimeInitializeOnLoadManager9ClassInfo8TransferI24GenerateTypeTreeTransferEEvRT_
6403:__ZN30RuntimeInitializeOnLoadManager8TransferI18StreamedBinaryReadILb0EEEEvRT_
6404:__ZN30RuntimeInitializeOnLoadManager9ClassInfo8TransferI18StreamedBinaryReadILb0EEEEvRT_
6405:__ZN30RuntimeInitializeOnLoadManager15ClassMethodInfo8TransferI18StreamedBinaryReadILb0EEEEvRT_
6406:__ZN30RuntimeInitializeOnLoadManager8TransferI19StreamedBinaryWriteILb0EEEEvRT_
6407:__ZN30RuntimeInitializeOnLoadManager9ClassInfo8TransferI19StreamedBinaryWriteILb0EEEEvRT_
6408:__ZN30RuntimeInitializeOnLoadManager15ClassMethodInfo8TransferI19StreamedBinaryWriteILb0EEEEvRT_
6409:__ZNK22GenericPropertyBinding13GetFloatValueERKN11UnityEngine9Animation10BoundCurveE
6410:__ZNK22GenericPropertyBinding13SetFloatValueERKN11UnityEngine9Animation10BoundCurveEf
6411:__ZNK22GenericPropertyBinding15GenerateBindingERKN4core12basic_stringIcNS0_20StringStorageDefaultIcEEEEbRN11UnityEngine9Animation14GenericBindingE
6412:__ZNK22GenericPropertyBinding9BindValueER6ObjectRKN11UnityEngine9Animation14GenericBindingERNS3_10BoundCurveE
6413:__ZNK17IAnimationBinding38SerializedPropertyPathToCurveAttributeER6ObjectPKc
6414:__ZNK17IAnimationBinding30CurveAttributeToSerializedPathERKN11UnityEngine9Animation10BoundCurveE
6415:__ZN3WWW6CreateEPKcS1_iRKNSt3__23mapIN4core12basic_stringIcNS4_20StringStorageDefaultIcEEEES8_NS2_4lessIS8_EENS2_9allocatorINS2_4pairIKS8_S8_EEEEEEb7Hash128j
6416:__ZNK33AssetBundleLoadFromAsyncOperation12GetResultStrEv
6417:__ZN5Cache9URLToPathERKN4core12basic_stringIcNS0_20StringStorageDefaultIcEEEE7Hash128
6418:__ZN14CachingManager13WriteInfoFileERKN4core12basic_stringIcNS0_20StringStorageDefaultIcEEEERKNSt3__26vectorIS4_NS7_9allocatorIS4_EEEEl
6419:__ZN33AssetBundleLoadFromAsyncOperation28InitializeAssetBundleStorageERKN4core12basic_stringIcNS0_20StringStorageDefaultIcEEEEy
6420:__ZN5Cache18DidLoadAssetBundleERKN4core12basic_stringIcNS0_20StringStorageDefaultIcEEEE
6421:__ZN15FileSystemEntry12CreateAsFileEv
6422:__ZN20ArchiveStorageReader10InitializeERKN4core12basic_stringIcNS0_20StringStorageDefaultIcEEEEy
6423:__ZNK20ArchiveStorageReader15HasStreamBlocksEv
6424:__ZN33AssetBundleLoadFromAsyncOperation12IsCrc32ValidEv
6425:__ZN20ArchiveStorageReader17MakeStorageUnusedEv
6426:__Z15Hash128ToStringRK7Hash128
6427:__ZN33AssetBundleLoadFromAsyncOperationC2ERKN4core12basic_stringIcNS0_20StringStorageDefaultIcEEEE
6428:__ZN23PreloadManagerOperationC2Ev
6429:__ZN13EmscriptenWWWC2EPKcS1_iRKNSt3__23mapIN4core12basic_stringIcNS4_20StringStorageDefaultIcEEEES8_NS2_4lessIS8_EENS2_9allocatorINS2_4pairIKS8_S8_EEEEEEb7Hash128j
6430:__ZN13EmscriptenWWW10OnResponseEPviS0_jPc
6431:__ZN13EmscriptenWWW10OnProgressEPvjj
6432:__ZN3WWW18FeedUnityWebStreamEb
6433:__ZN20ArchiveStorageHeader13IsArchiveFileER12FileAccessor
6434:__ZN14UnityWebStream6RetainEv
6435:__ZN14UnityWebStream16FeedDownloadDataEPKhib
6436:__ZN39AssetBundleLoadFromStreamAsyncOperation10FeedStreamEPKvj
6437:__ZN39AssetBundleLoadFromStreamAsyncOperation14FinalizeStreamEv
6438:__ZN39AssetBundleLoadFromStreamAsyncOperation22FinalizeArchiveCreatorEv
6439:__ZN23ArchiveStorageConverter21FinalizeTargetArchiveEPj
6440:__ZN39AssetBundleLoadFromStreamAsyncOperation20MoveFilesToCachePathEv
6441:__ZN14CachingManager13WriteInfoFileERKN4core12basic_stringIcNS0_20StringStorageDefaultIcEEEERKNSt3__26vectorIS4_NS7_9allocatorIS4_EEEE
6442:__ZN14CachingManager14MoveTempFolderERKN4core12basic_stringIcNS0_20StringStorageDefaultIcEEEES6_
6443:__ZN15FileSystemEntry4MoveERS_23FileSystemCopyMoveFlags
6444:__Z23AppendPathNameExtensionRKN4core12basic_stringIcNS_20StringStorageDefaultIcEEEES5_
6445:__ZN15FileSystemEntry13MoveByCopyingERS_23FileSystemCopyMoveFlags
6446:__ZN15FileSystemEntry6CopyToERS_23FileSystemCopyMoveFlags
6447:__ZN24RingBufferMemoryFileData15NotifyWriteDoneEv
6448:__ZN23ArchiveStorageConverter18DecompressAndStoreEv
6449:__ZN21ArchiveStorageCreator8FinalizeEPj
6450:__ZN21ArchiveStorageCreator13AppendRawNodeERKN4core12basic_stringIcNS0_20StringStorageDefaultIcEEEEN20ArchiveStorageHeader9NodeFlagsEyy
6451:__ZNSt3__26vectorIN20ArchiveStorageHeader4NodeE13stl_allocatorIS2_L18MemLabelIdentifier54ELi16EEE21__push_back_slow_pathIKS2_EEvRT_
6452:__ZN21ArchiveStorageCreator14StoreDirectoryEv
6453:__ZN20ArchiveStorageHeader11WriteHeaderER12FileAccessorRKNS_6HeaderE
6454:__ZNK12FileAccessor4SizeEv
6455:__ZN20ArchiveStorageHeader15WriteBlocksInfoER12FileAccessorRKNS_10BlocksInfoE
6456:__ZN20ArchiveStorageHeader18WriteDirectoryInfoER12FileAccessorRKNS_13DirectoryInfoE
6457:__ZN23ArchiveStorageConverter24ReadHeaderFromMemoryFileEv
6458:__ZN24RingBufferMemoryFileData16ConsumeReadBytesEy
6459:__ZN21ArchiveStorageCreator10AppendDataEPKvj
6460:__ZN20ArchiveStorageHeader41GetSizeRequiredToParseHeaderAndBlocksInfoERKNS_6HeaderE
6461:__ZN23ArchiveStorageConverter11ProcessDataEPKvj
6462:__ZN23ArchiveStorageConverter11GetProgressEv
6463:__ZN23ArchiveStorageConverterC2EP32IArchiveStorageConverterListenerb
6464:__ZN24RingBufferMemoryFileData11SetGrowableEb
6465:__ZN24RingBufferMemoryFileDataC2E18MemLabelIdentifier
6466:__ZN24RingBufferMemoryFileDataD2Ev
6467:__ZN24RingBufferMemoryFileDataD0Ev
6468:__ZNK24RingBufferMemoryFileData4ReadEyyPv
6469:__ZN24RingBufferMemoryFileData5WriteEyyPKv
6470:__ZN24RingBufferMemoryFileData9SetLengthEy
6471:__ZNK24RingBufferMemoryFileData4SizeEv
6472:__ZN24RingBufferMemoryFileData16GetNewWriteBlockEv
6473:__ZN14UnityWebStreamC2E18MemLabelIdentifierPKc7Hash128jb
6474:__ZN39AssetBundleLoadFromStreamAsyncOperationC2ERKN4core12basic_stringIcNS0_20StringStorageDefaultIcEEEE
6475:__ZN10MonoScriptD2Ev
6476:__ZN10MonoScriptD0Ev
6477:__ZN10MonoScript13AwakeFromLoadE17AwakeFromLoadMode
6478:__ZN10MonoScript21AwakeFromLoadThreadedEv
6479:__ZNK10MonoScript26GetTypeInfoVirtualInternalEv
6480:__ZN10MonoScript23VirtualRedirectTransferER19StreamedBinaryWriteILb0EE
6481:__ZN10MonoScript23VirtualRedirectTransferER18StreamedBinaryReadILb0EE
6482:__ZN10MonoScript23VirtualRedirectTransferER24GenerateTypeTreeTransfer
6483:__ZN10MonoScript23VirtualRedirectTransferER14SafeBinaryRead
6484:__ZN9TextAsset9SetScriptERKN4core12basic_stringIcNS0_20StringStorageDefaultIcEEEEb
6485:__ZN9TextAsset9SetScriptERKN4core12basic_stringIcNS0_20StringStorageDefaultIcEEEE
6486:__ZNK10MonoScript18GetScriptClassNameEv
6487:__ZN10MonoScript8TransferI14SafeBinaryReadEEvRT_
6488:__ZN10MonoScript8TransferI24GenerateTypeTreeTransferEEvRT_
6489:__ZN10MonoScript8TransferI18StreamedBinaryReadILb0EEEEvRT_
6490:__ZN10MonoScript8TransferI19StreamedBinaryWriteILb0EEEEvRT_
6491:__ZN10MonoScript7RebuildE17ScriptingClassPtr
6492:__ZN9TextAssetD2Ev
6493:__ZN9TextAssetD0Ev
6494:__ZNK9TextAsset26GetTypeInfoVirtualInternalEv
6495:__ZN9TextAsset23VirtualRedirectTransferER19StreamedBinaryWriteILb0EE
6496:__ZN9TextAsset23VirtualRedirectTransferER18StreamedBinaryReadILb0EE
6497:__ZN9TextAsset23VirtualRedirectTransferER24GenerateTypeTreeTransfer
6498:__ZN9TextAsset23VirtualRedirectTransferER14SafeBinaryRead
6499:__ZNK9TextAsset18GetScriptClassNameEv
6500:__ZN9TextAsset8TransferI14SafeBinaryReadEEvRT_
6501:__ZN9TextAsset8TransferI24GenerateTypeTreeTransferEEvRT_
6502:__ZN13MonoBehaviourD2Ev
6503:__ZN13MonoBehaviourD0Ev
6504:__ZN13MonoBehaviour17MainThreadCleanupEv
6505:__ZN13MonoBehaviour13AwakeFromLoadE17AwakeFromLoadMode
6506:__ZN13MonoBehaviour10SmartResetEv
6507:__ZNK13MonoBehaviour26GetTypeInfoVirtualInternalEv
6508:__ZNK13MonoBehaviour7GetNameEv
6509:__ZN13MonoBehaviour7SetNameEPKc
6510:__ZN13MonoBehaviour23VirtualRedirectTransferER19StreamedBinaryWriteILb0EE
6511:__ZN13MonoBehaviour23VirtualRedirectTransferER18StreamedBinaryReadILb0EE
6512:__ZN13MonoBehaviour23VirtualRedirectTransferER17RemapPPtrTransfer
6513:__ZN13MonoBehaviour23VirtualRedirectTransferER24GenerateTypeTreeTransfer
6514:__ZN13MonoBehaviour23VirtualRedirectTransferER14SafeBinaryRead
6515:__ZN13MonoBehaviour26CalculateSupportedMessagesEv
6516:__ZN13MonoBehaviour20WillDestroyComponentEv
6517:__ZN13MonoBehaviour10DeactivateE19DeactivateOperation
6518:__ZN13MonoBehaviour6UpdateEv
6519:__ZN13MonoBehaviour11FixedUpdateEv
6520:__ZN13MonoBehaviour10LateUpdateEv
6521:__ZN13MonoBehaviour12AddToManagerEv
6522:__ZN13MonoBehaviour17RemoveFromManagerEv
6523:__ZN13MonoBehaviour5DoGUIENS_13GUILayoutTypeEii
6524:__Z9GetIIMGUIv
6525:__ZN6Camera17RemoveImageFilterERK11ImageFilter
6526:__ZN13MonoBehaviour16DelayedStartCallEP6ObjectPv
6527:__ZN13MonoBehaviour31AddBehaviourCallbacksToManagersEv
6528:__ZN13MonoBehaviour9CallAwakeEv
6529:__ZN13MonoBehaviour40AddExternalDependencyCallbacksToManagersEv
6530:__ZN20BaseBehaviourManager12AddBehaviourER8ListNodeI9BehaviourEi
6531:__ZN13MonoBehaviour16CallUpdateMethodEi
6532:__ZN13MonoBehaviour17StopAllCoroutinesEv
6533:__ZN18DelayedCallManager18CancelCallDelayed2E4PPtrI6ObjectEPF15CallObjectStatePS1_PvES7_
6534:__ZN17MessageIdentifier21GetRegisteredMessagesEv
6535:__ZN17MessageIdentifier24GetOptimizedMessageCountEv
6536:__ZN13MonoBehaviour18TransferEngineDataI14SafeBinaryReadEE4PPtrI10MonoScriptERT_
6537:__ZN14SafeBinaryRead20OverrideRootTypeNameEPKc
6538:__Z23TransferScriptingObjectI14SafeBinaryReadEvRT_18ScriptingObjectPtr17ScriptingClassPtrPK15MonoScriptCache
6539:__Z19FindCommandsInCachePK15MonoScriptCacheRK24TransferRequestSignatureRb
6540:__Z33BuildSerializationCommandQueueForRK34BuildSerializationCommandQueueArgsR32SerializationCommandQueueBuilderRP20AllowNameConversionsbPK18TransferField_Info
6541:__ZN9Scripting36IsSystemCollectionsGenericDictionaryE17ScriptingClassPtr
6542:__Z26scripting_class_get_fields17ScriptingClassPtrRNSt3__26vectorI17ScriptingFieldPtr13stl_allocatorIS2_L18MemLabelIdentifier1ELi16EEEE
6543:__Z24scripting_field_get_type17ScriptingFieldPtr
6544:__Z25scripting_field_get_flags17ScriptingFieldPtr
6545:__Z19ShouldTransferFieldR32SerializationCommandQueueBuilder17ScriptingClassPtriR18TransferField_InfoRK20CoreScriptingClasses
6546:__Z33EmitSerializationCommandsForFieldRK31TransferFunctionScriptingTraitsR18TransferField_InfoR32SerializationCommandQueueBuilderRP20AllowNameConversions
6547:__ZN9Scripting30IsSystemCollectionsGenericListE17ScriptingClassPtr
6548:__Z49EmitSerializationCommandsForLinearCollectionFieldRK31TransferFunctionScriptingTraitsRK18TransferField_InfoR32SerializationCommandQueueBuilderRP20AllowNameConversions
6549:__Z28scripting_class_is_valuetype17ScriptingClassPtr
6550:__ZL28SerializationCommandGroupForRK31TransferFunctionScriptingTraits17ScriptingClassPtr17ScriptingFieldPtrRK20CoreScriptingClasses
6551:__Z46EmitSerializationCommandsForManagedObjectFieldRK31TransferFunctionScriptingTraitsRK18TransferField_InfoR32SerializationCommandQueueBuilderRP20AllowNameConversions
6552:__ZL29CanTransferTypeAsNestedObject17ScriptingClassPtr
6553:__Z25scripting_class_get_flags17ScriptingClassPtr
6554:__Z28scripting_class_is_interface17ScriptingClassPtr
6555:__Z20scripting_get_corlibv
6556:__ZN11MonoManager25GetAssemblyIndexFromImageE17ScriptingImagePtr
6557:__Z23scripting_class_is_enum17ScriptingClassPtr
6558:__Z29scripting_class_enum_basetype17ScriptingClassPtr
6559:__ZN9Scripting35ErrorMessageForUnsupportedEnumFieldE17ScriptingFieldPtr
6560:__Z23scripting_type_get_name16ScriptingTypePtr
6561:__ZN21LinearCollectionFieldC2ER17GeneralMonoObject17ScriptingFieldPtr
6562:__Z65EmitSerializationCommandsForLinearCollectionOfManagedObjectsFieldRK31TransferFunctionScriptingTraitsRK23TransferArrayField_InfoR20SerializationCommandR32SerializationCommandQueueBuilderRP20AllowNameConversions
6563:__Z41scripting_type_get_class_or_element_class16ScriptingTypePtr
6564:__ZN9Scripting27BackingArrayFieldForListOfTE17ScriptingClassPtr
6565:__ZN9Scripting29RuntimeObjectInitLogExceptionE18ScriptingObjectPtr
6566:__Z29scripting_class_has_attribute17ScriptingClassPtrS_
6567:__Z29scripting_field_has_attribute17ScriptingClassPtr17ScriptingFieldPtrS_
6568:__Z26BuildSerializationCacheFor17ScriptingClassPtrRb
6569:__ZN23CachedSerializationDataD2Ev
6570:__Z39WriteQueueForTransferSignatureIntoCacheRK31TransferFunctionScriptingTraitsRK24TransferRequestSignature17ScriptingClassPtrR23CachedSerializationDataRb
6571:__ZN13MonoBehaviour25TransferEngineAndInstanceI24GenerateTypeTreeTransferEEvRT_
6572:__ZN13MonoBehaviour18TransferEngineDataI24GenerateTypeTreeTransferEE4PPtrI10MonoScriptERT_
6573:__Z23TransferScriptingObjectI24GenerateTypeTreeTransferEvRT_18ScriptingObjectPtr17ScriptingClassPtrPK15MonoScriptCache
6574:__ZN13MonoBehaviour25TransferEngineAndInstanceI17RemapPPtrTransferEEvRT_
6575:__Z23TransferScriptingObjectI17RemapPPtrTransferEvRT_18ScriptingObjectPtr17ScriptingClassPtrPK15MonoScriptCache
6576:__ZN13MonoBehaviour25TransferEngineAndInstanceI18StreamedBinaryReadILb0EEEEvRT_
6577:__Z23TransferScriptingObjectI18StreamedBinaryReadILb0EEEvRT_18ScriptingObjectPtr17ScriptingClassPtrPK15MonoScriptCache
6578:__ZN13MonoBehaviour25TransferEngineAndInstanceI19StreamedBinaryWriteILb0EEEEvRT_
6579:__Z23TransferScriptingObjectI19StreamedBinaryWriteILb0EEEvRT_18ScriptingObjectPtr17ScriptingClassPtrPK15MonoScriptCache
6580:__ZN13MonoBehaviour18CallMethodInactiveEPKc
6581:__ZN10GameObject25SetSupportedMessagesDirtyEv
6582:__ZN13MonoBehaviour15ThreadedCleanupEv
6583:__ZN11PreloadDataD2Ev
6584:__ZN11PreloadDataD0Ev
6585:__ZNK11PreloadData26GetTypeInfoVirtualInternalEv
6586:__ZN11PreloadData23VirtualRedirectTransferER19StreamedBinaryWriteILb0EE
6587:__ZN11PreloadData23VirtualRedirectTransferER18StreamedBinaryReadILb0EE
6588:__ZN11PreloadData23VirtualRedirectTransferER17RemapPPtrTransfer
6589:__ZN11PreloadData23VirtualRedirectTransferER24GenerateTypeTreeTransfer
6590:__ZN11PreloadData23VirtualRedirectTransferER14SafeBinaryRead
6591:__ZN11PreloadData8TransferI14SafeBinaryReadEEvRT_
6592:__ZN11MonoManagerD2Ev
6593:__ZN11MonoManagerD0Ev
6594:__ZN11MonoManager13AwakeFromLoadE17AwakeFromLoadMode
6595:__ZNK11MonoManager26GetTypeInfoVirtualInternalEv
6596:__ZN11MonoManager23VirtualRedirectTransferER19StreamedBinaryWriteILb0EE
6597:__ZN11MonoManager23VirtualRedirectTransferER18StreamedBinaryReadILb0EE
6598:__ZN11MonoManager23VirtualRedirectTransferER17RemapPPtrTransfer
6599:__ZN11MonoManager23VirtualRedirectTransferER24GenerateTypeTreeTransfer
6600:__ZN11MonoManager23VirtualRedirectTransferER14SafeBinaryRead
6601:__ZN11MonoManager8TransferI14SafeBinaryReadEEvRT_
6602:__ZN14SafeBinaryRead21TransferSTLStyleArrayI10vector_setI4PPtrI10MonoScriptENSt3__24lessIS4_EE13stl_allocatorIS4_L18MemLabelIdentifier76ELi16EEEEEvRT_17TransferMetaFlags
6603:__ZNSt3__26vectorI4PPtrI10MonoScriptE13stl_allocatorIS3_L18MemLabelIdentifier76ELi16EEE8__appendEj
6604:__ZN11MonoManager8TransferI24GenerateTypeTreeTransferEEvRT_
6605:__ZN11MonoManager8TransferI18StreamedBinaryReadILb0EEEEvRT_
6606:__ZN11MonoManager8TransferI19StreamedBinaryWriteILb0EEEEvRT_
6607:__ZN11MonoManager14LoadAssembliesEv
6608:__Z36FillCommonScriptingClassesCorlibOnlyR22CommonScriptingClasses
6609:__Z17ExtractStacktraceRKN4core12basic_stringIcNS_20StringStorageDefaultIcEEEERS3_S6_iS6_Piii
6610:__Z23RegisterLogPreprocessorPFvRKN4core12basic_stringIcNS_20StringStorageDefaultIcEEEERS3_S6_iS6_PiiiE
6611:__Z48AddCommonTransferFunctionsToScriptingTraitsCachev
6612:__Z44InitializeTransferFunctionScriptingTraitsForI18StreamedBinaryReadILb0EEEvR31TransferFunctionScriptingTraits
6613:__Z41AddTransferFunctionScriptingTraitsToCacheRK12TransferTypePK31TransferFunctionScriptingTraits
6614:__Z44InitializeTransferFunctionScriptingTraitsForI18StreamedBinaryReadILb1EEEvR31TransferFunctionScriptingTraits
6615:__Z44InitializeTransferFunctionScriptingTraitsForI19StreamedBinaryWriteILb0EEEvR31TransferFunctionScriptingTraits
6616:__Z44InitializeTransferFunctionScriptingTraitsForI24GenerateTypeTreeTransferEvR31TransferFunctionScriptingTraits
6617:__Z44InitializeTransferFunctionScriptingTraitsForI17RemapPPtrTransferEvR31TransferFunctionScriptingTraits
6618:__Z44InitializeTransferFunctionScriptingTraitsForI14SafeBinaryReadEvR31TransferFunctionScriptingTraits
6619:__Z18Transfer_BlittableI14SafeBinaryReadLb0EiEvRK29SerializationCommandArgumentsR31RuntimeSerializationCommandInfo
6620:__Z18Transfer_BlittableI14SafeBinaryReadLb1EiEvRK29SerializationCommandArgumentsR31RuntimeSerializationCommandInfo
6621:__Z18Transfer_BlittableI14SafeBinaryReadLb0EhEvRK29SerializationCommandArgumentsR31RuntimeSerializationCommandInfo
6622:__Z18Transfer_BlittableI14SafeBinaryReadLb1EhEvRK29SerializationCommandArgumentsR31RuntimeSerializationCommandInfo
6623:__Z18Transfer_BlittableI14SafeBinaryReadLb0EfEvRK29SerializationCommandArgumentsR31RuntimeSerializationCommandInfo
6624:__Z18Transfer_BlittableI14SafeBinaryReadLb1EfEvRK29SerializationCommandArgumentsR31RuntimeSerializationCommandInfo
6625:__Z15Transfer_StringI14SafeBinaryReadLb0EEvRK29SerializationCommandArgumentsR31RuntimeSerializationCommandInfo
6626:__Z15Transfer_StringI14SafeBinaryReadLb1EEvRK29SerializationCommandArgumentsR31RuntimeSerializationCommandInfo
6627:__Z18Transfer_BlittableI14SafeBinaryReadLb0E8Vector3fEvRK29SerializationCommandArgumentsR31RuntimeSerializationCommandInfo
6628:__Z18Transfer_BlittableI14SafeBinaryReadLb1E8Vector3fEvRK29SerializationCommandArgumentsR31RuntimeSerializationCommandInfo
6629:__Z18Transfer_BlittableI14SafeBinaryReadLb0E8Vector2fEvRK29SerializationCommandArgumentsR31RuntimeSerializationCommandInfo
6630:__Z18Transfer_BlittableI14SafeBinaryReadLb1E8Vector2fEvRK29SerializationCommandArgumentsR31RuntimeSerializationCommandInfo
6631:__Z18Transfer_BlittableI14SafeBinaryReadLb0E11QuaternionfEvRK29SerializationCommandArgumentsR31RuntimeSerializationCommandInfo
6632:__Z18Transfer_BlittableI14SafeBinaryReadLb1E11QuaternionfEvRK29SerializationCommandArgumentsR31RuntimeSerializationCommandInfo
6633:__Z18Transfer_BlittableI14SafeBinaryReadLb0E10ColorRGBAfEvRK29SerializationCommandArgumentsR31RuntimeSerializationCommandInfo
6634:__Z18Transfer_BlittableI14SafeBinaryReadLb1E10ColorRGBAfEvRK29SerializationCommandArgumentsR31RuntimeSerializationCommandInfo
6635:__Z18Transfer_BlittableI14SafeBinaryReadLb0E4AABBEvRK29SerializationCommandArgumentsR31RuntimeSerializationCommandInfo
6636:__Z18Transfer_BlittableI14SafeBinaryReadLb1E4AABBEvRK29SerializationCommandArgumentsR31RuntimeSerializationCommandInfo
6637:__Z18Transfer_BlittableI14SafeBinaryReadLb0EsEvRK29SerializationCommandArgumentsR31RuntimeSerializationCommandInfo
6638:__Z18Transfer_BlittableI14SafeBinaryReadLb1EsEvRK29SerializationCommandArgumentsR31RuntimeSerializationCommandInfo
6639:__Z18Transfer_BlittableI14SafeBinaryReadLb0ExEvRK29SerializationCommandArgumentsR31RuntimeSerializationCommandInfo
6640:__Z18Transfer_BlittableI14SafeBinaryReadLb1ExEvRK29SerializationCommandArgumentsR31RuntimeSerializationCommandInfo
6641:__Z18Transfer_BlittableI14SafeBinaryReadLb0EtEvRK29SerializationCommandArgumentsR31RuntimeSerializationCommandInfo
6642:__Z18Transfer_BlittableI14SafeBinaryReadLb1EtEvRK29SerializationCommandArgumentsR31RuntimeSerializationCommandInfo
6643:__Z18Transfer_BlittableI14SafeBinaryReadLb0E8Vector4fEvRK29SerializationCommandArgumentsR31RuntimeSerializationCommandInfo
6644:__Z18Transfer_BlittableI14SafeBinaryReadLb1E8Vector4fEvRK29SerializationCommandArgumentsR31RuntimeSerializationCommandInfo
6645:__Z18Transfer_BlittableI14SafeBinaryReadLb0E5RectTIfEEvRK29SerializationCommandArgumentsR31RuntimeSerializationCommandInfo
6646:__Z18Transfer_BlittableI14SafeBinaryReadLb1E5RectTIfEEvRK29SerializationCommandArgumentsR31RuntimeSerializationCommandInfo
6647:__Z18Transfer_BlittableI14SafeBinaryReadLb0E10Matrix4x4fEvRK29SerializationCommandArgumentsR31RuntimeSerializationCommandInfo
6648:__Z18Transfer_BlittableI14SafeBinaryReadLb1E10Matrix4x4fEvRK29SerializationCommandArgumentsR31RuntimeSerializationCommandInfo
6649:__Z18Transfer_BlittableI14SafeBinaryReadLb0E11ColorRGBA32EvRK29SerializationCommandArgumentsR31RuntimeSerializationCommandInfo
6650:__Z18Transfer_BlittableI14SafeBinaryReadLb1E11ColorRGBA32EvRK29SerializationCommandArgumentsR31RuntimeSerializationCommandInfo
6651:__Z18Transfer_BlittableI14SafeBinaryReadLb0E8BitFieldEvRK29SerializationCommandArgumentsR31RuntimeSerializationCommandInfo
6652:__Z18Transfer_BlittableI14SafeBinaryReadLb1E8BitFieldEvRK29SerializationCommandArgumentsR31RuntimeSerializationCommandInfo
6653:__Z18Transfer_BlittableI14SafeBinaryReadLb0E12PropertyNameEvRK29SerializationCommandArgumentsR31RuntimeSerializationCommandInfo
6654:__Z18Transfer_BlittableI14SafeBinaryReadLb1E12PropertyNameEvRK29SerializationCommandArgumentsR31RuntimeSerializationCommandInfo
6655:__ZL26Transfer_SimpleNativeClassI14SafeBinaryRead17AnimationCurveTplIfELb0EEvRK29SerializationCommandArgumentsR31RuntimeSerializationCommandInfo
6656:__ZL26Transfer_SimpleNativeClassI14SafeBinaryRead17AnimationCurveTplIfELb1EEvRK29SerializationCommandArgumentsR31RuntimeSerializationCommandInfo
6657:__ZL26Transfer_SimpleNativeClassI14SafeBinaryRead8GradientLb0EEvRK29SerializationCommandArgumentsR31RuntimeSerializationCommandInfo
6658:__ZL26Transfer_SimpleNativeClassI14SafeBinaryRead8GradientLb1EEvRK29SerializationCommandArgumentsR31RuntimeSerializationCommandInfo
6659:__ZL26Transfer_SimpleNativeClassI14SafeBinaryRead10RectOffsetLb0EEvRK29SerializationCommandArgumentsR31RuntimeSerializationCommandInfo
6660:__ZL26Transfer_SimpleNativeClassI14SafeBinaryRead10RectOffsetLb1EEvRK29SerializationCommandArgumentsR31RuntimeSerializationCommandInfo
6661:__Z18Transfer_BlittableI14SafeBinaryReadLb0EaEvRK29SerializationCommandArgumentsR31RuntimeSerializationCommandInfo
6662:__Z18Transfer_BlittableI14SafeBinaryReadLb1EaEvRK29SerializationCommandArgumentsR31RuntimeSerializationCommandInfo
6663:__Z18Transfer_BlittableI14SafeBinaryReadLb0EjEvRK29SerializationCommandArgumentsR31RuntimeSerializationCommandInfo
6664:__Z18Transfer_BlittableI14SafeBinaryReadLb1EjEvRK29SerializationCommandArgumentsR31RuntimeSerializationCommandInfo
6665:__Z18Transfer_BlittableI14SafeBinaryReadLb0EyEvRK29SerializationCommandArgumentsR31RuntimeSerializationCommandInfo
6666:__Z18Transfer_BlittableI14SafeBinaryReadLb1EyEvRK29SerializationCommandArgumentsR31RuntimeSerializationCommandInfo
6667:__Z18Transfer_BlittableI14SafeBinaryReadLb0EdEvRK29SerializationCommandArgumentsR31RuntimeSerializationCommandInfo
6668:__Z18Transfer_BlittableI14SafeBinaryReadLb1EdEvRK29SerializationCommandArgumentsR31RuntimeSerializationCommandInfo
6669:__ZL17Transfer_GUIStyleI14SafeBinaryReadLb0EEvRK29SerializationCommandArgumentsR31RuntimeSerializationCommandInfo
6670:__ZL17Transfer_GUIStyleI14SafeBinaryReadLb1EEvRK29SerializationCommandArgumentsR31RuntimeSerializationCommandInfo
6671:__ZL12InvokeMethodI14SafeBinaryReadEvRK29SerializationCommandArgumentsR31RuntimeSerializationCommandInfo
6672:__Z30TransferField_LinearCollectionI14SafeBinaryReadEvRK29SerializationCommandArgumentsR31RuntimeSerializationCommandInfo
6673:__Z26Transfer_UnityEngineObjectI14SafeBinaryReadLb0EEvRK29SerializationCommandArgumentsR31RuntimeSerializationCommandInfo
6674:__Z26Transfer_UnityEngineObjectI14SafeBinaryReadLb1EEvRK29SerializationCommandArgumentsR31RuntimeSerializationCommandInfo
6675:__ZL22Transfer_ManagedObjectI14SafeBinaryReadLb0EEvRK29SerializationCommandArgumentsR31RuntimeSerializationCommandInfo
6676:__ZL22Transfer_ManagedObjectI14SafeBinaryReadLb1EEvRK29SerializationCommandArgumentsR31RuntimeSerializationCommandInfo
6677:__ZN14SafeBinaryRead21TransferSTLStyleArrayI31ArrayOfManagedObjectsTransfererEEvRT_17TransferMetaFlags
6678:__Z34scripting_class_array_element_size17ScriptingClassPtr
6679:__Z28scripting_array_element_size17ScriptingClassPtr
6680:__ZN9Scripting34GetScriptingArrayObjectElementImplE17ScriptingArrayPtri
6681:__Z30GetOrCreateObjectStoredInField17ScriptingFieldPtrR17GeneralMonoObjectb
6682:__Z19TransferField_ArrayI14SafeBinaryRead27Converter_UnityEngineObjectEvRK23StaticTransferFieldInfoR31RuntimeSerializationCommandInfoRT0_
6683:__ZN14SafeBinaryRead21TransferSTLStyleArrayINSt3__26vectorI8MonoPPtr13stl_allocatorIS3_L18MemLabelIdentifier1ELi16EEEEEEvRT_17TransferMetaFlags
6684:__Z24TransferPPtrToMonoObjecti17ScriptingClassPtrP23DataToCreateNullWrapper24TransferInstructionFlags
6685:__Z33TransferPPtrToMonoObjectUnCheckedi24TransferInstructionFlags
6686:__Z14resize_trimmedINSt3__26vectorI8MonoPPtr13stl_allocatorIS2_L18MemLabelIdentifier1ELi16EEEEEvRT_j
6687:__ZN14SafeBinaryRead8TransferI8MonoPPtrEEvRT_PKc17TransferMetaFlags
6688:__ZNSt3__26vectorI8MonoPPtr13stl_allocatorIS1_L18MemLabelIdentifier1ELi16EEE6assignINS_11__wrap_iterIPS1_EEEENS_9enable_ifIXaasr21__is_forward_iteratorIT_EE5valuesr16is_constructibleIS1_NS_15iterator_traitsISB_E9referenceEEE5valueEvE4typeESB_SB_
6689:__ZNSt3__26vectorI8MonoPPtr13stl_allocatorIS1_L18MemLabelIdentifier1ELi16EEE8__appendEj
6690:__Z19TransferField_ArrayI14SafeBinaryRead27Converter_SimpleNativeClassI8GUIStyleEEvRK23StaticTransferFieldInfoR31RuntimeSerializationCommandInfoRT0_
6691:__ZN14SafeBinaryRead21TransferSTLStyleArrayINSt3__26vectorI8GUIStyle13stl_allocatorIS3_L18MemLabelIdentifier1ELi16EEEEEEvRT_17TransferMetaFlags
6692:__ZN12NativeBufferI27Converter_SimpleNativeClassI8GUIStyleEE19ProcessAfterReadingER9ArrayInfo17ScriptingClassPtr
6693:__ZN8GUIStyleaSERKS_
6694:__Z14resize_trimmedINSt3__26vectorI8GUIStyle13stl_allocatorIS2_L18MemLabelIdentifier1ELi16EEEEEvRT_j
6695:__ZN8GUIStyle8TransferI14SafeBinaryReadEEvRT_
6696:__ZN13GUIStyleState8TransferI14SafeBinaryReadEEvRT_
6697:__ZN15SerializeTraitsI10RectOffsetE8TransferI14SafeBinaryReadEEvRS0_RT_
6698:__ZNSt3__26vectorI8GUIStyle13stl_allocatorIS1_L18MemLabelIdentifier1ELi16EEE7reserveEj
6699:__ZNSt3__26vectorI8GUIStyle13stl_allocatorIS1_L18MemLabelIdentifier1ELi16EEE6assignINS_11__wrap_iterIPS1_EEEENS_9enable_ifIXaasr21__is_forward_iteratorIT_EE5valuesr16is_constructibleIS1_NS_15iterator_traitsISB_E9referenceEEE5valueEvE4typeESB_SB_
6700:__ZNSt3__26vectorI8GUIStyle13stl_allocatorIS1_L18MemLabelIdentifier1ELi16EEE8__appendEj
6701:__ZN8GUIStyleC2ERKS_
6702:__Z22TransferField_NonArrayI14SafeBinaryRead27Converter_SimpleNativeClassI8GUIStyleEEvRK23StaticTransferFieldInfoR31RuntimeSerializationCommandInfoRT0_
6703:__Z29Transfer_Blittable_ArrayFieldI14SafeBinaryReaddEvRT_R9ArrayInfoRK23StaticTransferFieldInfo
6704:__ZN14SafeBinaryRead21TransferSTLStyleArrayI13dynamic_arrayIdLj8EEEEvRT_17TransferMetaFlags
6705:__ZN14SafeBinaryRead8TransferIdEEvRT_PKc17TransferMetaFlags
6706:__Z29Transfer_Blittable_ArrayFieldI14SafeBinaryReadyEvRT_R9ArrayInfoRK23StaticTransferFieldInfo
6707:__ZN14SafeBinaryRead21TransferSTLStyleArrayI13dynamic_arrayIyLj8EEEEvRT_17TransferMetaFlags
6708:__Z35Transfer_Blittable_SingleValueFieldI14SafeBinaryReadyEvRT_R17GeneralMonoObjectRK23StaticTransferFieldInfo
6709:__Z29Transfer_Blittable_ArrayFieldI14SafeBinaryReadjEvRT_R9ArrayInfoRK23StaticTransferFieldInfo
6710:__Z35Transfer_Blittable_SingleValueFieldI14SafeBinaryReadjEvRT_R17GeneralMonoObjectRK23StaticTransferFieldInfo
6711:__Z29Transfer_Blittable_ArrayFieldI14SafeBinaryReadaEvRT_R9ArrayInfoRK23StaticTransferFieldInfo
6712:__ZN14SafeBinaryRead21TransferSTLStyleArrayI13dynamic_arrayIaLj1EEEEvRT_17TransferMetaFlags
6713:__Z35Transfer_Blittable_SingleValueFieldI14SafeBinaryReadaEvRT_R17GeneralMonoObjectRK23StaticTransferFieldInfo
6714:__Z19TransferField_ArrayI14SafeBinaryRead27Converter_SimpleNativeClassI10RectOffsetEEvRK23StaticTransferFieldInfoR31RuntimeSerializationCommandInfoRT0_
6715:__ZN14SafeBinaryRead21TransferSTLStyleArrayINSt3__26vectorI10RectOffset13stl_allocatorIS3_L18MemLabelIdentifier1ELi16EEEEEEvRT_17TransferMetaFlags
6716:__ZN12NativeBufferI27Converter_SimpleNativeClassI10RectOffsetEE19ProcessAfterReadingER9ArrayInfo17ScriptingClassPtr
6717:__Z14resize_trimmedINSt3__26vectorI10RectOffset13stl_allocatorIS2_L18MemLabelIdentifier1ELi16EEEEEvRT_j
6718:__ZNSt3__26vectorI10RectOffset13stl_allocatorIS1_L18MemLabelIdentifier1ELi16EEE6assignINS_11__wrap_iterIPS1_EEEENS_9enable_ifIXaasr21__is_forward_iteratorIT_EE5valuesr16is_constructibleIS1_NS_15iterator_traitsISB_E9referenceEEE5valueEvE4typeESB_SB_
6719:__ZNSt3__26vectorI10RectOffset13stl_allocatorIS1_L18MemLabelIdentifier1ELi16EEE8__appendEj
6720:__Z22TransferField_NonArrayI14SafeBinaryRead27Converter_SimpleNativeClassI10RectOffsetEEvRK23StaticTransferFieldInfoR31RuntimeSerializationCommandInfoRT0_
6721:__Z19TransferField_ArrayI14SafeBinaryRead27Converter_SimpleNativeClassI8GradientEEvRK23StaticTransferFieldInfoR31RuntimeSerializationCommandInfoRT0_
6722:__ZN14SafeBinaryRead21TransferSTLStyleArrayINSt3__26vectorI8Gradient13stl_allocatorIS3_L18MemLabelIdentifier1ELi16EEEEEEvRT_17TransferMetaFlags
6723:__ZN27Converter_SimpleNativeClassI8GradientE17NativeToScriptingERKS0_R18ScriptingObjectPtr
6724:__Z14resize_trimmedINSt3__26vectorI8Gradient13stl_allocatorIS2_L18MemLabelIdentifier1ELi16EEEEEvRT_j
6725:__ZNSt3__26vectorI8Gradient13stl_allocatorIS1_L18MemLabelIdentifier1ELi16EEE6assignINS_11__wrap_iterIPS1_EEEENS_9enable_ifIXaasr21__is_forward_iteratorIT_EE5valuesr16is_constructibleIS1_NS_15iterator_traitsISB_E9referenceEEE5valueEvE4typeESB_SB_
6726:__ZNSt3__26vectorI8Gradient13stl_allocatorIS1_L18MemLabelIdentifier1ELi16EEE8__appendEj
6727:__ZN8GradientC2Ev
6728:__Z22TransferField_NonArrayI14SafeBinaryRead27Converter_SimpleNativeClassI8GradientEEvRK23StaticTransferFieldInfoR31RuntimeSerializationCommandInfoRT0_
6729:__Z19TransferField_ArrayI14SafeBinaryRead27Converter_SimpleNativeClassI17AnimationCurveTplIfEEEvRK23StaticTransferFieldInfoR31RuntimeSerializationCommandInfoRT0_
6730:__ZN14SafeBinaryRead21TransferSTLStyleArrayINSt3__26vectorI17AnimationCurveTplIfE13stl_allocatorIS4_L18MemLabelIdentifier1ELi16EEEEEEvRT_17TransferMetaFlags
6731:__ZN27Converter_SimpleNativeClassI17AnimationCurveTplIfEE17NativeToScriptingERKS1_R18ScriptingObjectPtr
6732:__Z14resize_trimmedINSt3__26vectorI17AnimationCurveTplIfE13stl_allocatorIS3_L18MemLabelIdentifier1ELi16EEEEEvRT_j
6733:__ZNSt3__26vectorI17AnimationCurveTplIfE13stl_allocatorIS2_L18MemLabelIdentifier1ELi16EEE7reserveEj
6734:__ZNSt3__26vectorI17AnimationCurveTplIfE13stl_allocatorIS2_L18MemLabelIdentifier1ELi16EEE6assignINS_11__wrap_iterIPS2_EEEENS_9enable_ifIXaasr21__is_forward_iteratorIT_EE5valuesr16is_constructibleIS2_NS_15iterator_traitsISC_E9referenceEEE5valueEvE4typeESC_SC_
6735:__ZNSt3__26vectorI17AnimationCurveTplIfE13stl_allocatorIS2_L18MemLabelIdentifier1ELi16EEE8__appendEj
6736:__ZNSt3__26vectorI17AnimationCurveTplIfE13stl_allocatorIS2_L18MemLabelIdentifier1ELi16EEEC2INS_11__wrap_iterIPS2_EEEET_SB_RKS5_PNS_9enable_ifIXaasr21__is_forward_iteratorISB_EE5valuesr16is_constructibleIS2_NS_15iterator_traitsISB_E9referenceEEE5valueEvE4typeE
6737:__Z22TransferField_NonArrayI14SafeBinaryRead27Converter_SimpleNativeClassI17AnimationCurveTplIfEEEvRK23StaticTransferFieldInfoR31RuntimeSerializationCommandInfoRT0_
6738:__Z29Transfer_Blittable_ArrayFieldI14SafeBinaryRead12PropertyNameEvRT_R9ArrayInfoRK23StaticTransferFieldInfo
6739:__ZN14SafeBinaryRead21TransferSTLStyleArrayI13dynamic_arrayI12PropertyNameLj4EEEEvRT_17TransferMetaFlags
6740:__ZN15SerializeTraitsI12PropertyNameE8TransferI14SafeBinaryReadEEvRS0_RT_
6741:__Z29Transfer_Blittable_ArrayFieldI14SafeBinaryRead8BitFieldEvRT_R9ArrayInfoRK23StaticTransferFieldInfo
6742:__ZN14SafeBinaryRead21TransferSTLStyleArrayI13dynamic_arrayI8BitFieldLj4EEEEvRT_17TransferMetaFlags
6743:__ZN15SerializeTraitsI8BitFieldE8TransferI14SafeBinaryReadEEvRS0_RT_
6744:__Z29Transfer_Blittable_ArrayFieldI14SafeBinaryRead11ColorRGBA32EvRT_R9ArrayInfoRK23StaticTransferFieldInfo
6745:__Z29Transfer_Blittable_ArrayFieldI14SafeBinaryRead10Matrix4x4fEvRT_R9ArrayInfoRK23StaticTransferFieldInfo
6746:__ZN14SafeBinaryRead21TransferSTLStyleArrayI13dynamic_arrayI10Matrix4x4fLj4EEEEvRT_17TransferMetaFlags
6747:__ZN15SerializeTraitsI13dynamic_arrayI10Matrix4x4fLj4EEE19ResizeSTLStyleArrayERS2_i18MemLabelIdentifier
6748:__Z29Transfer_Blittable_ArrayFieldI14SafeBinaryRead5RectTIfEEvRT_R9ArrayInfoRK23StaticTransferFieldInfo
6749:__ZN14SafeBinaryRead21TransferSTLStyleArrayI13dynamic_arrayI5RectTIfELj4EEEEvRT_17TransferMetaFlags
6750:__ZN15SerializeTraitsI5RectTIfEE8TransferI14SafeBinaryReadEEvRS1_RT_
6751:__Z29Transfer_Blittable_ArrayFieldI14SafeBinaryRead8Vector4fEvRT_R9ArrayInfoRK23StaticTransferFieldInfo
6752:__Z29Transfer_Blittable_ArrayFieldI14SafeBinaryReadtEvRT_R9ArrayInfoRK23StaticTransferFieldInfo
6753:__Z35Transfer_Blittable_SingleValueFieldI14SafeBinaryReadtEvRT_R17GeneralMonoObjectRK23StaticTransferFieldInfo
6754:__Z29Transfer_Blittable_ArrayFieldI14SafeBinaryReadxEvRT_R9ArrayInfoRK23StaticTransferFieldInfo
6755:__ZN14SafeBinaryRead21TransferSTLStyleArrayI13dynamic_arrayIxLj8EEEEvRT_17TransferMetaFlags
6756:__Z35Transfer_Blittable_SingleValueFieldI14SafeBinaryReadxEvRT_R17GeneralMonoObjectRK23StaticTransferFieldInfo
6757:__Z29Transfer_Blittable_ArrayFieldI14SafeBinaryReadsEvRT_R9ArrayInfoRK23StaticTransferFieldInfo
6758:__ZN14SafeBinaryRead21TransferSTLStyleArrayI13dynamic_arrayIsLj2EEEEvRT_17TransferMetaFlags
6759:__Z35Transfer_Blittable_SingleValueFieldI14SafeBinaryReadsEvRT_R17GeneralMonoObjectRK23StaticTransferFieldInfo
6760:__Z29Transfer_Blittable_ArrayFieldI14SafeBinaryRead4AABBEvRT_R9ArrayInfoRK23StaticTransferFieldInfo
6761:__ZN14SafeBinaryRead21TransferSTLStyleArrayI13dynamic_arrayI4AABBLj4EEEEvRT_17TransferMetaFlags
6762:__Z29Transfer_Blittable_ArrayFieldI14SafeBinaryRead10ColorRGBAfEvRT_R9ArrayInfoRK23StaticTransferFieldInfo
6763:__ZN14SafeBinaryRead21TransferSTLStyleArrayI13dynamic_arrayI10ColorRGBAfLj4EEEEvRT_17TransferMetaFlags
6764:__ZN15SerializeTraitsI13dynamic_arrayI10ColorRGBAfLj4EEE19ResizeSTLStyleArrayERS2_i18MemLabelIdentifier
6765:__Z29Transfer_Blittable_ArrayFieldI14SafeBinaryRead11QuaternionfEvRT_R9ArrayInfoRK23StaticTransferFieldInfo
6766:__ZN14SafeBinaryRead21TransferSTLStyleArrayI13dynamic_arrayI11QuaternionfLj4EEEEvRT_17TransferMetaFlags
6767:__Z29Transfer_Blittable_ArrayFieldI14SafeBinaryRead8Vector2fEvRT_R9ArrayInfoRK23StaticTransferFieldInfo
6768:__Z29Transfer_Blittable_ArrayFieldI14SafeBinaryRead8Vector3fEvRT_R9ArrayInfoRK23StaticTransferFieldInfo
6769:__Z19TransferField_ArrayI14SafeBinaryRead16Converter_StringEvRK23StaticTransferFieldInfoR31RuntimeSerializationCommandInfoRT0_
6770:__Z22TransferField_NonArrayI14SafeBinaryRead16Converter_StringEvRK23StaticTransferFieldInfoR31RuntimeSerializationCommandInfoRT0_
6771:__Z29Transfer_Blittable_ArrayFieldI14SafeBinaryReadfEvRT_R9ArrayInfoRK23StaticTransferFieldInfo
6772:__Z35Transfer_Blittable_SingleValueFieldI14SafeBinaryReadfEvRT_R17GeneralMonoObjectRK23StaticTransferFieldInfo
6773:__Z29Transfer_Blittable_ArrayFieldI14SafeBinaryReadhEvRT_R9ArrayInfoRK23StaticTransferFieldInfo
6774:__Z35Transfer_Blittable_SingleValueFieldI14SafeBinaryReadhEvRT_R17GeneralMonoObjectRK23StaticTransferFieldInfo
6775:__Z29Transfer_Blittable_ArrayFieldI14SafeBinaryReadiEvRT_R9ArrayInfoRK23StaticTransferFieldInfo
6776:__Z35Transfer_Blittable_SingleValueFieldI14SafeBinaryReadiEvRT_R17GeneralMonoObjectRK23StaticTransferFieldInfo
6777:__Z18Transfer_BlittableI17RemapPPtrTransferLb1EiEvRK29SerializationCommandArgumentsR31RuntimeSerializationCommandInfo
6778:__ZL26Transfer_SimpleNativeClassI17RemapPPtrTransfer17AnimationCurveTplIfELb0EEvRK29SerializationCommandArgumentsR31RuntimeSerializationCommandInfo
6779:__ZL26Transfer_SimpleNativeClassI17RemapPPtrTransfer17AnimationCurveTplIfELb1EEvRK29SerializationCommandArgumentsR31RuntimeSerializationCommandInfo
6780:__ZL26Transfer_SimpleNativeClassI17RemapPPtrTransfer8GradientLb0EEvRK29SerializationCommandArgumentsR31RuntimeSerializationCommandInfo
6781:__ZL26Transfer_SimpleNativeClassI17RemapPPtrTransfer8GradientLb1EEvRK29SerializationCommandArgumentsR31RuntimeSerializationCommandInfo
6782:__ZL26Transfer_SimpleNativeClassI17RemapPPtrTransfer10RectOffsetLb0EEvRK29SerializationCommandArgumentsR31RuntimeSerializationCommandInfo
6783:__ZL26Transfer_SimpleNativeClassI17RemapPPtrTransfer10RectOffsetLb1EEvRK29SerializationCommandArgumentsR31RuntimeSerializationCommandInfo
6784:__ZL17Transfer_GUIStyleI17RemapPPtrTransferLb0EEvRK29SerializationCommandArgumentsR31RuntimeSerializationCommandInfo
6785:__ZL17Transfer_GUIStyleI17RemapPPtrTransferLb1EEvRK29SerializationCommandArgumentsR31RuntimeSerializationCommandInfo
6786:__ZL12InvokeMethodI17RemapPPtrTransferEvRK29SerializationCommandArgumentsR31RuntimeSerializationCommandInfo
6787:__Z30TransferField_LinearCollectionI17RemapPPtrTransferEvRK29SerializationCommandArgumentsR31RuntimeSerializationCommandInfo
6788:__Z26Transfer_UnityEngineObjectI17RemapPPtrTransferLb0EEvRK29SerializationCommandArgumentsR31RuntimeSerializationCommandInfo
6789:__Z26Transfer_UnityEngineObjectI17RemapPPtrTransferLb1EEvRK29SerializationCommandArgumentsR31RuntimeSerializationCommandInfo
6790:__ZL22Transfer_ManagedObjectI17RemapPPtrTransferLb0EEvRK29SerializationCommandArgumentsR31RuntimeSerializationCommandInfo
6791:__ZL22Transfer_ManagedObjectI17RemapPPtrTransferLb1EEvRK29SerializationCommandArgumentsR31RuntimeSerializationCommandInfo
6792:__ZN17RemapPPtrTransfer21TransferSTLStyleArrayI31ArrayOfManagedObjectsTransfererEEvRT_17TransferMetaFlags
6793:__Z19TransferField_ArrayI17RemapPPtrTransfer27Converter_UnityEngineObjectEvRK23StaticTransferFieldInfoR31RuntimeSerializationCommandInfoRT0_
6794:__ZN12NativeBufferI27Converter_UnityEngineObjectE15SetupForWritingER9ArrayInfo
6795:__Z22TransferField_NonArrayI17RemapPPtrTransfer27Converter_UnityEngineObjectEvRK23StaticTransferFieldInfoR31RuntimeSerializationCommandInfoRT0_
6796:__Z19TransferField_ArrayI17RemapPPtrTransfer27Converter_SimpleNativeClassI8GUIStyleEEvRK23StaticTransferFieldInfoR31RuntimeSerializationCommandInfoRT0_
6797:__ZN12NativeBufferI27Converter_SimpleNativeClassI8GUIStyleEE15SetupForWritingER9ArrayInfo
6798:__ZN8GUIStyle8TransferI17RemapPPtrTransferEEvRT_
6799:__Z22TransferField_NonArrayI17RemapPPtrTransfer27Converter_SimpleNativeClassI8GUIStyleEEvRK23StaticTransferFieldInfoR31RuntimeSerializationCommandInfoRT0_
6800:__Z19TransferField_ArrayI17RemapPPtrTransfer27Converter_SimpleNativeClassI10RectOffsetEEvRK23StaticTransferFieldInfoR31RuntimeSerializationCommandInfoRT0_
6801:__Z22TransferField_NonArrayI17RemapPPtrTransfer27Converter_SimpleNativeClassI10RectOffsetEEvRK23StaticTransferFieldInfoR31RuntimeSerializationCommandInfoRT0_
6802:__Z19TransferField_ArrayI17RemapPPtrTransfer27Converter_SimpleNativeClassI8GradientEEvRK23StaticTransferFieldInfoR31RuntimeSerializationCommandInfoRT0_
6803:__ZN12NativeBufferI27Converter_SimpleNativeClassI8GradientEE15SetupForWritingER9ArrayInfo
6804:__ZN27Converter_SimpleNativeClassI8GradientE17ScriptingToNativeER18ScriptingObjectPtrPS0_
6805:__Z22TransferField_NonArrayI17RemapPPtrTransfer27Converter_SimpleNativeClassI8GradientEEvRK23StaticTransferFieldInfoR31RuntimeSerializationCommandInfoRT0_
6806:__Z19TransferField_ArrayI17RemapPPtrTransfer27Converter_SimpleNativeClassI17AnimationCurveTplIfEEEvRK23StaticTransferFieldInfoR31RuntimeSerializationCommandInfoRT0_
6807:__ZN12NativeBufferI27Converter_SimpleNativeClassI17AnimationCurveTplIfEEE15SetupForWritingER9ArrayInfo
6808:__ZN27Converter_SimpleNativeClassI17AnimationCurveTplIfEE17ScriptingToNativeER18ScriptingObjectPtrPS1_
6809:__Z22TransferField_NonArrayI17RemapPPtrTransfer27Converter_SimpleNativeClassI17AnimationCurveTplIfEEEvRK23StaticTransferFieldInfoR31RuntimeSerializationCommandInfoRT0_
6810:__Z18Transfer_BlittableI24GenerateTypeTreeTransferLb0EiEvRK29SerializationCommandArgumentsR31RuntimeSerializationCommandInfo
6811:__Z18Transfer_BlittableI24GenerateTypeTreeTransferLb1EiEvRK29SerializationCommandArgumentsR31RuntimeSerializationCommandInfo
6812:__Z18Transfer_BlittableI24GenerateTypeTreeTransferLb0EhEvRK29SerializationCommandArgumentsR31RuntimeSerializationCommandInfo
6813:__Z18Transfer_BlittableI24GenerateTypeTreeTransferLb1EhEvRK29SerializationCommandArgumentsR31RuntimeSerializationCommandInfo
6814:__Z18Transfer_BlittableI24GenerateTypeTreeTransferLb0EfEvRK29SerializationCommandArgumentsR31RuntimeSerializationCommandInfo
6815:__Z18Transfer_BlittableI24GenerateTypeTreeTransferLb1EfEvRK29SerializationCommandArgumentsR31RuntimeSerializationCommandInfo
6816:__Z15Transfer_StringI24GenerateTypeTreeTransferLb0EEvRK29SerializationCommandArgumentsR31RuntimeSerializationCommandInfo
6817:__Z15Transfer_StringI24GenerateTypeTreeTransferLb1EEvRK29SerializationCommandArgumentsR31RuntimeSerializationCommandInfo
6818:__Z18Transfer_BlittableI24GenerateTypeTreeTransferLb0E8Vector3fEvRK29SerializationCommandArgumentsR31RuntimeSerializationCommandInfo
6819:__Z18Transfer_BlittableI24GenerateTypeTreeTransferLb1E8Vector3fEvRK29SerializationCommandArgumentsR31RuntimeSerializationCommandInfo
6820:__Z18Transfer_BlittableI24GenerateTypeTreeTransferLb0E8Vector2fEvRK29SerializationCommandArgumentsR31RuntimeSerializationCommandInfo
6821:__Z18Transfer_BlittableI24GenerateTypeTreeTransferLb1E8Vector2fEvRK29SerializationCommandArgumentsR31RuntimeSerializationCommandInfo
6822:__Z18Transfer_BlittableI24GenerateTypeTreeTransferLb0E11QuaternionfEvRK29SerializationCommandArgumentsR31RuntimeSerializationCommandInfo
6823:__Z18Transfer_BlittableI24GenerateTypeTreeTransferLb1E11QuaternionfEvRK29SerializationCommandArgumentsR31RuntimeSerializationCommandInfo
6824:__Z18Transfer_BlittableI24GenerateTypeTreeTransferLb0E10ColorRGBAfEvRK29SerializationCommandArgumentsR31RuntimeSerializationCommandInfo
6825:__Z18Transfer_BlittableI24GenerateTypeTreeTransferLb1E10ColorRGBAfEvRK29SerializationCommandArgumentsR31RuntimeSerializationCommandInfo
6826:__Z18Transfer_BlittableI24GenerateTypeTreeTransferLb0E4AABBEvRK29SerializationCommandArgumentsR31RuntimeSerializationCommandInfo
6827:__Z18Transfer_BlittableI24GenerateTypeTreeTransferLb1E4AABBEvRK29SerializationCommandArgumentsR31RuntimeSerializationCommandInfo
6828:__Z18Transfer_BlittableI24GenerateTypeTreeTransferLb0EsEvRK29SerializationCommandArgumentsR31RuntimeSerializationCommandInfo
6829:__Z18Transfer_BlittableI24GenerateTypeTreeTransferLb1EsEvRK29SerializationCommandArgumentsR31RuntimeSerializationCommandInfo
6830:__Z18Transfer_BlittableI24GenerateTypeTreeTransferLb0ExEvRK29SerializationCommandArgumentsR31RuntimeSerializationCommandInfo
6831:__Z18Transfer_BlittableI24GenerateTypeTreeTransferLb1ExEvRK29SerializationCommandArgumentsR31RuntimeSerializationCommandInfo
6832:__Z18Transfer_BlittableI24GenerateTypeTreeTransferLb0EtEvRK29SerializationCommandArgumentsR31RuntimeSerializationCommandInfo
6833:__Z18Transfer_BlittableI24GenerateTypeTreeTransferLb1EtEvRK29SerializationCommandArgumentsR31RuntimeSerializationCommandInfo
6834:__Z18Transfer_BlittableI24GenerateTypeTreeTransferLb0E8Vector4fEvRK29SerializationCommandArgumentsR31RuntimeSerializationCommandInfo
6835:__Z18Transfer_BlittableI24GenerateTypeTreeTransferLb1E8Vector4fEvRK29SerializationCommandArgumentsR31RuntimeSerializationCommandInfo
6836:__Z18Transfer_BlittableI24GenerateTypeTreeTransferLb0E5RectTIfEEvRK29SerializationCommandArgumentsR31RuntimeSerializationCommandInfo
6837:__Z18Transfer_BlittableI24GenerateTypeTreeTransferLb1E5RectTIfEEvRK29SerializationCommandArgumentsR31RuntimeSerializationCommandInfo
6838:__Z18Transfer_BlittableI24GenerateTypeTreeTransferLb0E10Matrix4x4fEvRK29SerializationCommandArgumentsR31RuntimeSerializationCommandInfo
6839:__Z18Transfer_BlittableI24GenerateTypeTreeTransferLb1E10Matrix4x4fEvRK29SerializationCommandArgumentsR31RuntimeSerializationCommandInfo
6840:__Z18Transfer_BlittableI24GenerateTypeTreeTransferLb0E11ColorRGBA32EvRK29SerializationCommandArgumentsR31RuntimeSerializationCommandInfo
6841:__Z18Transfer_BlittableI24GenerateTypeTreeTransferLb1E11ColorRGBA32EvRK29SerializationCommandArgumentsR31RuntimeSerializationCommandInfo
6842:__Z18Transfer_BlittableI24GenerateTypeTreeTransferLb0E8BitFieldEvRK29SerializationCommandArgumentsR31RuntimeSerializationCommandInfo
6843:__Z18Transfer_BlittableI24GenerateTypeTreeTransferLb1E8BitFieldEvRK29SerializationCommandArgumentsR31RuntimeSerializationCommandInfo
6844:__Z18Transfer_BlittableI24GenerateTypeTreeTransferLb0E12PropertyNameEvRK29SerializationCommandArgumentsR31RuntimeSerializationCommandInfo
6845:__Z18Transfer_BlittableI24GenerateTypeTreeTransferLb1E12PropertyNameEvRK29SerializationCommandArgumentsR31RuntimeSerializationCommandInfo
6846:__ZL26Transfer_SimpleNativeClassI24GenerateTypeTreeTransfer17AnimationCurveTplIfELb0EEvRK29SerializationCommandArgumentsR31RuntimeSerializationCommandInfo
6847:__ZL26Transfer_SimpleNativeClassI24GenerateTypeTreeTransfer17AnimationCurveTplIfELb1EEvRK29SerializationCommandArgumentsR31RuntimeSerializationCommandInfo
6848:__ZL26Transfer_SimpleNativeClassI24GenerateTypeTreeTransfer8GradientLb0EEvRK29SerializationCommandArgumentsR31RuntimeSerializationCommandInfo
6849:__ZL26Transfer_SimpleNativeClassI24GenerateTypeTreeTransfer8GradientLb1EEvRK29SerializationCommandArgumentsR31RuntimeSerializationCommandInfo
6850:__ZL26Transfer_SimpleNativeClassI24GenerateTypeTreeTransfer10RectOffsetLb0EEvRK29SerializationCommandArgumentsR31RuntimeSerializationCommandInfo
6851:__ZL26Transfer_SimpleNativeClassI24GenerateTypeTreeTransfer10RectOffsetLb1EEvRK29SerializationCommandArgumentsR31RuntimeSerializationCommandInfo
6852:__Z18Transfer_BlittableI24GenerateTypeTreeTransferLb0EaEvRK29SerializationCommandArgumentsR31RuntimeSerializationCommandInfo
6853:__Z18Transfer_BlittableI24GenerateTypeTreeTransferLb1EaEvRK29SerializationCommandArgumentsR31RuntimeSerializationCommandInfo
6854:__Z18Transfer_BlittableI24GenerateTypeTreeTransferLb0EjEvRK29SerializationCommandArgumentsR31RuntimeSerializationCommandInfo
6855:__Z18Transfer_BlittableI24GenerateTypeTreeTransferLb1EjEvRK29SerializationCommandArgumentsR31RuntimeSerializationCommandInfo
6856:__Z18Transfer_BlittableI24GenerateTypeTreeTransferLb0EyEvRK29SerializationCommandArgumentsR31RuntimeSerializationCommandInfo
6857:__Z18Transfer_BlittableI24GenerateTypeTreeTransferLb1EyEvRK29SerializationCommandArgumentsR31RuntimeSerializationCommandInfo
6858:__Z18Transfer_BlittableI24GenerateTypeTreeTransferLb0EdEvRK29SerializationCommandArgumentsR31RuntimeSerializationCommandInfo
6859:__Z18Transfer_BlittableI24GenerateTypeTreeTransferLb1EdEvRK29SerializationCommandArgumentsR31RuntimeSerializationCommandInfo
6860:__ZL17Transfer_GUIStyleI24GenerateTypeTreeTransferLb0EEvRK29SerializationCommandArgumentsR31RuntimeSerializationCommandInfo
6861:__ZL17Transfer_GUIStyleI24GenerateTypeTreeTransferLb1EEvRK29SerializationCommandArgumentsR31RuntimeSerializationCommandInfo
6862:__ZL12InvokeMethodI24GenerateTypeTreeTransferEvRK29SerializationCommandArgumentsR31RuntimeSerializationCommandInfo
6863:__Z30TransferField_LinearCollectionI24GenerateTypeTreeTransferEvRK29SerializationCommandArgumentsR31RuntimeSerializationCommandInfo
6864:__Z26Transfer_UnityEngineObjectI24GenerateTypeTreeTransferLb0EEvRK29SerializationCommandArgumentsR31RuntimeSerializationCommandInfo
6865:__Z26Transfer_UnityEngineObjectI24GenerateTypeTreeTransferLb1EEvRK29SerializationCommandArgumentsR31RuntimeSerializationCommandInfo
6866:__ZL22Transfer_ManagedObjectI24GenerateTypeTreeTransferLb0EEvRK29SerializationCommandArgumentsR31RuntimeSerializationCommandInfo
6867:__ZL22Transfer_ManagedObjectI24GenerateTypeTreeTransferLb1EEvRK29SerializationCommandArgumentsR31RuntimeSerializationCommandInfo
6868:__ZN15SerializeTraitsI31ArrayOfManagedObjectsTransfererE8TransferI24GenerateTypeTreeTransferEEvRS0_RT_
6869:__ZN24GenerateTypeTreeTransfer32TransferSTLStyleArrayWithElementI23ManagedObjectTransfererEEvRT_17TransferMetaFlags
6870:__ZN24GenerateTypeTreeTransfer8TransferI8MonoPPtrEEvRT_PKc17TransferMetaFlags
6871:__Z19TransferField_ArrayI24GenerateTypeTreeTransfer27Converter_SimpleNativeClassI8GUIStyleEEvRK23StaticTransferFieldInfoR31RuntimeSerializationCommandInfoRT0_
6872:__ZN24GenerateTypeTreeTransfer21TransferSTLStyleArrayINSt3__26vectorI8GUIStyle13stl_allocatorIS3_L18MemLabelIdentifier1ELi16EEEEEEvRT_17TransferMetaFlags
6873:__ZN8GUIStyle8TransferI24GenerateTypeTreeTransferEEvRT_
6874:__ZN13GUIStyleState8TransferI24GenerateTypeTreeTransferEEvRT_
6875:__ZN10RectOffset8TransferI24GenerateTypeTreeTransferEEvRT_
6876:__Z22TransferField_NonArrayI24GenerateTypeTreeTransfer27Converter_SimpleNativeClassI8GUIStyleEEvRK23StaticTransferFieldInfoR31RuntimeSerializationCommandInfoRT0_
6877:__Z29Transfer_Blittable_ArrayFieldI24GenerateTypeTreeTransferdEvRT_R9ArrayInfoRK23StaticTransferFieldInfo
6878:__Z29Transfer_Blittable_ArrayFieldI24GenerateTypeTreeTransferyEvRT_R9ArrayInfoRK23StaticTransferFieldInfo
6879:__Z29Transfer_Blittable_ArrayFieldI24GenerateTypeTreeTransferjEvRT_R9ArrayInfoRK23StaticTransferFieldInfo
6880:__Z29Transfer_Blittable_ArrayFieldI24GenerateTypeTreeTransferaEvRT_R9ArrayInfoRK23StaticTransferFieldInfo
6881:__Z19TransferField_ArrayI24GenerateTypeTreeTransfer27Converter_SimpleNativeClassI10RectOffsetEEvRK23StaticTransferFieldInfoR31RuntimeSerializationCommandInfoRT0_
6882:__Z19TransferField_ArrayI24GenerateTypeTreeTransfer27Converter_SimpleNativeClassI8GradientEEvRK23StaticTransferFieldInfoR31RuntimeSerializationCommandInfoRT0_
6883:__ZN24GenerateTypeTreeTransfer8TransferINSt3__26vectorI17AnimationCurveTplIfE13stl_allocatorIS4_L18MemLabelIdentifier1ELi16EEEEEEvRT_PKc17TransferMetaFlags
6884:__Z29Transfer_Blittable_ArrayFieldI24GenerateTypeTreeTransfer12PropertyNameEvRT_R9ArrayInfoRK23StaticTransferFieldInfo
6885:__Z29Transfer_Blittable_ArrayFieldI24GenerateTypeTreeTransfer8BitFieldEvRT_R9ArrayInfoRK23StaticTransferFieldInfo
6886:__Z29Transfer_Blittable_ArrayFieldI24GenerateTypeTreeTransfer11ColorRGBA32EvRT_R9ArrayInfoRK23StaticTransferFieldInfo
6887:__Z29Transfer_Blittable_ArrayFieldI24GenerateTypeTreeTransfer10Matrix4x4fEvRT_R9ArrayInfoRK23StaticTransferFieldInfo
6888:__Z29Transfer_Blittable_ArrayFieldI24GenerateTypeTreeTransfer5RectTIfEEvRT_R9ArrayInfoRK23StaticTransferFieldInfo
6889:__Z29Transfer_Blittable_ArrayFieldI24GenerateTypeTreeTransfer8Vector4fEvRT_R9ArrayInfoRK23StaticTransferFieldInfo
6890:__Z29Transfer_Blittable_ArrayFieldI24GenerateTypeTreeTransfertEvRT_R9ArrayInfoRK23StaticTransferFieldInfo
6891:__Z29Transfer_Blittable_ArrayFieldI24GenerateTypeTreeTransferxEvRT_R9ArrayInfoRK23StaticTransferFieldInfo
6892:__Z29Transfer_Blittable_ArrayFieldI24GenerateTypeTreeTransfersEvRT_R9ArrayInfoRK23StaticTransferFieldInfo
6893:__Z29Transfer_Blittable_ArrayFieldI24GenerateTypeTreeTransfer4AABBEvRT_R9ArrayInfoRK23StaticTransferFieldInfo
6894:__Z29Transfer_Blittable_ArrayFieldI24GenerateTypeTreeTransfer10ColorRGBAfEvRT_R9ArrayInfoRK23StaticTransferFieldInfo
6895:__Z29Transfer_Blittable_ArrayFieldI24GenerateTypeTreeTransfer11QuaternionfEvRT_R9ArrayInfoRK23StaticTransferFieldInfo
6896:__Z29Transfer_Blittable_ArrayFieldI24GenerateTypeTreeTransfer8Vector2fEvRT_R9ArrayInfoRK23StaticTransferFieldInfo
6897:__Z29Transfer_Blittable_ArrayFieldI24GenerateTypeTreeTransfer8Vector3fEvRT_R9ArrayInfoRK23StaticTransferFieldInfo
6898:__Z19TransferField_ArrayI24GenerateTypeTreeTransfer16Converter_StringEvRK23StaticTransferFieldInfoR31RuntimeSerializationCommandInfoRT0_
6899:__Z22TransferField_NonArrayI24GenerateTypeTreeTransfer16Converter_StringEvRK23StaticTransferFieldInfoR31RuntimeSerializationCommandInfoRT0_
6900:__Z29Transfer_Blittable_ArrayFieldI24GenerateTypeTreeTransferfEvRT_R9ArrayInfoRK23StaticTransferFieldInfo
6901:__Z29Transfer_Blittable_ArrayFieldI24GenerateTypeTreeTransferhEvRT_R9ArrayInfoRK23StaticTransferFieldInfo
6902:__Z29Transfer_Blittable_ArrayFieldI24GenerateTypeTreeTransferiEvRT_R9ArrayInfoRK23StaticTransferFieldInfo
6903:__Z18Transfer_BlittableI19StreamedBinaryWriteILb0EELb0EiEvRK29SerializationCommandArgumentsR31RuntimeSerializationCommandInfo
6904:__Z18Transfer_BlittableI19StreamedBinaryWriteILb0EELb1EiEvRK29SerializationCommandArgumentsR31RuntimeSerializationCommandInfo
6905:__Z18Transfer_BlittableI19StreamedBinaryWriteILb0EELb0EhEvRK29SerializationCommandArgumentsR31RuntimeSerializationCommandInfo
6906:__Z18Transfer_BlittableI19StreamedBinaryWriteILb0EELb1EhEvRK29SerializationCommandArgumentsR31RuntimeSerializationCommandInfo
6907:__Z15Transfer_StringI19StreamedBinaryWriteILb0EELb0EEvRK29SerializationCommandArgumentsR31RuntimeSerializationCommandInfo
6908:__Z15Transfer_StringI19StreamedBinaryWriteILb0EELb1EEvRK29SerializationCommandArgumentsR31RuntimeSerializationCommandInfo
6909:__Z18Transfer_BlittableI19StreamedBinaryWriteILb0EELb0E8Vector3fEvRK29SerializationCommandArgumentsR31RuntimeSerializationCommandInfo
6910:__Z18Transfer_BlittableI19StreamedBinaryWriteILb0EELb1E8Vector3fEvRK29SerializationCommandArgumentsR31RuntimeSerializationCommandInfo
6911:__Z18Transfer_BlittableI19StreamedBinaryWriteILb0EELb0E8Vector2fEvRK29SerializationCommandArgumentsR31RuntimeSerializationCommandInfo
6912:__Z18Transfer_BlittableI19StreamedBinaryWriteILb0EELb1E8Vector2fEvRK29SerializationCommandArgumentsR31RuntimeSerializationCommandInfo
6913:__Z18Transfer_BlittableI19StreamedBinaryWriteILb0EELb0E11QuaternionfEvRK29SerializationCommandArgumentsR31RuntimeSerializationCommandInfo
6914:__Z18Transfer_BlittableI19StreamedBinaryWriteILb0EELb1E11QuaternionfEvRK29SerializationCommandArgumentsR31RuntimeSerializationCommandInfo
6915:__Z18Transfer_BlittableI19StreamedBinaryWriteILb0EELb0E10ColorRGBAfEvRK29SerializationCommandArgumentsR31RuntimeSerializationCommandInfo
6916:__Z18Transfer_BlittableI19StreamedBinaryWriteILb0EELb1E10ColorRGBAfEvRK29SerializationCommandArgumentsR31RuntimeSerializationCommandInfo
6917:__Z18Transfer_BlittableI19StreamedBinaryWriteILb0EELb0E4AABBEvRK29SerializationCommandArgumentsR31RuntimeSerializationCommandInfo
6918:__Z18Transfer_BlittableI19StreamedBinaryWriteILb0EELb1E4AABBEvRK29SerializationCommandArgumentsR31RuntimeSerializationCommandInfo
6919:__Z18Transfer_BlittableI19StreamedBinaryWriteILb0EELb0EsEvRK29SerializationCommandArgumentsR31RuntimeSerializationCommandInfo
6920:__Z18Transfer_BlittableI19StreamedBinaryWriteILb0EELb1EsEvRK29SerializationCommandArgumentsR31RuntimeSerializationCommandInfo
6921:__Z18Transfer_BlittableI19StreamedBinaryWriteILb0EELb0ExEvRK29SerializationCommandArgumentsR31RuntimeSerializationCommandInfo
6922:__Z18Transfer_BlittableI19StreamedBinaryWriteILb0EELb1ExEvRK29SerializationCommandArgumentsR31RuntimeSerializationCommandInfo
6923:__Z18Transfer_BlittableI19StreamedBinaryWriteILb0EELb0E10Matrix4x4fEvRK29SerializationCommandArgumentsR31RuntimeSerializationCommandInfo
6924:__Z18Transfer_BlittableI19StreamedBinaryWriteILb0EELb1E10Matrix4x4fEvRK29SerializationCommandArgumentsR31RuntimeSerializationCommandInfo
6925:__Z18Transfer_BlittableI19StreamedBinaryWriteILb0EELb0E12PropertyNameEvRK29SerializationCommandArgumentsR31RuntimeSerializationCommandInfo
6926:__Z18Transfer_BlittableI19StreamedBinaryWriteILb0EELb1E12PropertyNameEvRK29SerializationCommandArgumentsR31RuntimeSerializationCommandInfo
6927:__ZL26Transfer_SimpleNativeClassI19StreamedBinaryWriteILb0EE17AnimationCurveTplIfELb0EEvRK29SerializationCommandArgumentsR31RuntimeSerializationCommandInfo
6928:__ZL26Transfer_SimpleNativeClassI19StreamedBinaryWriteILb0EE17AnimationCurveTplIfELb1EEvRK29SerializationCommandArgumentsR31RuntimeSerializationCommandInfo
6929:__ZL26Transfer_SimpleNativeClassI19StreamedBinaryWriteILb0EE8GradientLb0EEvRK29SerializationCommandArgumentsR31RuntimeSerializationCommandInfo
6930:__ZL26Transfer_SimpleNativeClassI19StreamedBinaryWriteILb0EE8GradientLb1EEvRK29SerializationCommandArgumentsR31RuntimeSerializationCommandInfo
6931:__ZL26Transfer_SimpleNativeClassI19StreamedBinaryWriteILb0EE10RectOffsetLb0EEvRK29SerializationCommandArgumentsR31RuntimeSerializationCommandInfo
6932:__ZL26Transfer_SimpleNativeClassI19StreamedBinaryWriteILb0EE10RectOffsetLb1EEvRK29SerializationCommandArgumentsR31RuntimeSerializationCommandInfo
6933:__Z18Transfer_BlittableI19StreamedBinaryWriteILb0EELb1EaEvRK29SerializationCommandArgumentsR31RuntimeSerializationCommandInfo
6934:__Z18Transfer_BlittableI19StreamedBinaryWriteILb0EELb0EdEvRK29SerializationCommandArgumentsR31RuntimeSerializationCommandInfo
6935:__Z18Transfer_BlittableI19StreamedBinaryWriteILb0EELb1EdEvRK29SerializationCommandArgumentsR31RuntimeSerializationCommandInfo
6936:__ZL17Transfer_GUIStyleI19StreamedBinaryWriteILb0EELb0EEvRK29SerializationCommandArgumentsR31RuntimeSerializationCommandInfo
6937:__ZL17Transfer_GUIStyleI19StreamedBinaryWriteILb0EELb1EEvRK29SerializationCommandArgumentsR31RuntimeSerializationCommandInfo
6938:__ZL12InvokeMethodI19StreamedBinaryWriteILb0EEEvRK29SerializationCommandArgumentsR31RuntimeSerializationCommandInfo
6939:__Z30TransferField_LinearCollectionI19StreamedBinaryWriteILb0EEEvRK29SerializationCommandArgumentsR31RuntimeSerializationCommandInfo
6940:__Z26Transfer_UnityEngineObjectI19StreamedBinaryWriteILb0EELb0EEvRK29SerializationCommandArgumentsR31RuntimeSerializationCommandInfo
6941:__Z26Transfer_UnityEngineObjectI19StreamedBinaryWriteILb0EELb1EEvRK29SerializationCommandArgumentsR31RuntimeSerializationCommandInfo
6942:__ZL22Transfer_ManagedObjectI19StreamedBinaryWriteILb0EELb0EEvRK29SerializationCommandArgumentsR31RuntimeSerializationCommandInfo
6943:__ZL22Transfer_ManagedObjectI19StreamedBinaryWriteILb0EELb1EEvRK29SerializationCommandArgumentsR31RuntimeSerializationCommandInfo
6944:__ZN19StreamedBinaryWriteILb0EE21TransferSTLStyleArrayI31ArrayOfManagedObjectsTransfererEEvRT_17TransferMetaFlags
6945:__Z19TransferField_ArrayI19StreamedBinaryWriteILb0EE27Converter_UnityEngineObjectEvRK23StaticTransferFieldInfoR31RuntimeSerializationCommandInfoRT0_
6946:__Z19TransferField_ArrayI19StreamedBinaryWriteILb0EE27Converter_SimpleNativeClassI8GUIStyleEEvRK23StaticTransferFieldInfoR31RuntimeSerializationCommandInfoRT0_
6947:__ZN8GUIStyle8TransferI19StreamedBinaryWriteILb0EEEEvRT_
6948:__Z22TransferField_NonArrayI19StreamedBinaryWriteILb0EE27Converter_SimpleNativeClassI8GUIStyleEEvRK23StaticTransferFieldInfoR31RuntimeSerializationCommandInfoRT0_
6949:__Z29Transfer_Blittable_ArrayFieldI19StreamedBinaryWriteILb0EEdEvRT_R9ArrayInfoRK23StaticTransferFieldInfo
6950:__Z29Transfer_Blittable_ArrayFieldI19StreamedBinaryWriteILb0EEyEvRT_R9ArrayInfoRK23StaticTransferFieldInfo
6951:__Z29Transfer_Blittable_ArrayFieldI19StreamedBinaryWriteILb0EEjEvRT_R9ArrayInfoRK23StaticTransferFieldInfo
6952:__Z29Transfer_Blittable_ArrayFieldI19StreamedBinaryWriteILb0EEaEvRT_R9ArrayInfoRK23StaticTransferFieldInfo
6953:__Z19TransferField_ArrayI19StreamedBinaryWriteILb0EE27Converter_SimpleNativeClassI10RectOffsetEEvRK23StaticTransferFieldInfoR31RuntimeSerializationCommandInfoRT0_
6954:__Z19TransferField_ArrayI19StreamedBinaryWriteILb0EE27Converter_SimpleNativeClassI8GradientEEvRK23StaticTransferFieldInfoR31RuntimeSerializationCommandInfoRT0_
6955:__Z22TransferField_NonArrayI19StreamedBinaryWriteILb0EE27Converter_SimpleNativeClassI8GradientEEvRK23StaticTransferFieldInfoR31RuntimeSerializationCommandInfoRT0_
6956:__Z19TransferField_ArrayI19StreamedBinaryWriteILb0EE27Converter_SimpleNativeClassI17AnimationCurveTplIfEEEvRK23StaticTransferFieldInfoR31RuntimeSerializationCommandInfoRT0_
6957:__Z29Transfer_Blittable_ArrayFieldI19StreamedBinaryWriteILb0EE12PropertyNameEvRT_R9ArrayInfoRK23StaticTransferFieldInfo
6958:__Z29Transfer_Blittable_ArrayFieldI19StreamedBinaryWriteILb0EEtEvRT_R9ArrayInfoRK23StaticTransferFieldInfo
6959:__Z29Transfer_Blittable_ArrayFieldI19StreamedBinaryWriteILb0EE8Vector2fEvRT_R9ArrayInfoRK23StaticTransferFieldInfo
6960:__Z29Transfer_Blittable_ArrayFieldI19StreamedBinaryWriteILb0EE8Vector3fEvRT_R9ArrayInfoRK23StaticTransferFieldInfo
6961:__Z19TransferField_ArrayI19StreamedBinaryWriteILb0EE16Converter_StringEvRK23StaticTransferFieldInfoR31RuntimeSerializationCommandInfoRT0_
6962:__ZN12NativeBufferI16Converter_StringE15SetupForWritingER9ArrayInfo
6963:__ZN16Converter_String17ScriptingToNativeE18ScriptingStringPtrPN4core12basic_stringIcNS1_20StringStorageDefaultIcEEEE
6964:__Z13TransferFieldI19StreamedBinaryWriteILb0EELb0E16Converter_StringEvRK23StaticTransferFieldInfoR31RuntimeSerializationCommandInfoRT1_
6965:__Z29Transfer_Blittable_ArrayFieldI19StreamedBinaryWriteILb0EEhEvRT_R9ArrayInfoRK23StaticTransferFieldInfo
6966:__Z18Transfer_BlittableI18StreamedBinaryReadILb1EELb0EiEvRK29SerializationCommandArgumentsR31RuntimeSerializationCommandInfo
6967:__Z18Transfer_BlittableI18StreamedBinaryReadILb1EELb1EiEvRK29SerializationCommandArgumentsR31RuntimeSerializationCommandInfo
6968:__Z18Transfer_BlittableI18StreamedBinaryReadILb1EELb0EhEvRK29SerializationCommandArgumentsR31RuntimeSerializationCommandInfo
6969:__Z18Transfer_BlittableI18StreamedBinaryReadILb1EELb1EhEvRK29SerializationCommandArgumentsR31RuntimeSerializationCommandInfo
6970:__Z15Transfer_StringI18StreamedBinaryReadILb1EELb0EEvRK29SerializationCommandArgumentsR31RuntimeSerializationCommandInfo
6971:__Z15Transfer_StringI18StreamedBinaryReadILb1EELb1EEvRK29SerializationCommandArgumentsR31RuntimeSerializationCommandInfo
6972:__Z18Transfer_BlittableI18StreamedBinaryReadILb1EELb0E8Vector3fEvRK29SerializationCommandArgumentsR31RuntimeSerializationCommandInfo
6973:__Z18Transfer_BlittableI18StreamedBinaryReadILb1EELb1E8Vector3fEvRK29SerializationCommandArgumentsR31RuntimeSerializationCommandInfo
6974:__Z18Transfer_BlittableI18StreamedBinaryReadILb1EELb0E8Vector2fEvRK29SerializationCommandArgumentsR31RuntimeSerializationCommandInfo
6975:__Z18Transfer_BlittableI18StreamedBinaryReadILb1EELb1E8Vector2fEvRK29SerializationCommandArgumentsR31RuntimeSerializationCommandInfo
6976:__Z18Transfer_BlittableI18StreamedBinaryReadILb1EELb0E11QuaternionfEvRK29SerializationCommandArgumentsR31RuntimeSerializationCommandInfo
6977:__Z18Transfer_BlittableI18StreamedBinaryReadILb1EELb1E11QuaternionfEvRK29SerializationCommandArgumentsR31RuntimeSerializationCommandInfo
6978:__Z18Transfer_BlittableI18StreamedBinaryReadILb1EELb0E4AABBEvRK29SerializationCommandArgumentsR31RuntimeSerializationCommandInfo
6979:__Z18Transfer_BlittableI18StreamedBinaryReadILb1EELb1E4AABBEvRK29SerializationCommandArgumentsR31RuntimeSerializationCommandInfo
6980:__Z18Transfer_BlittableI18StreamedBinaryReadILb1EELb0EsEvRK29SerializationCommandArgumentsR31RuntimeSerializationCommandInfo
6981:__Z18Transfer_BlittableI18StreamedBinaryReadILb1EELb1EsEvRK29SerializationCommandArgumentsR31RuntimeSerializationCommandInfo
6982:__Z18Transfer_BlittableI18StreamedBinaryReadILb1EELb0ExEvRK29SerializationCommandArgumentsR31RuntimeSerializationCommandInfo
6983:__Z18Transfer_BlittableI18StreamedBinaryReadILb1EELb1ExEvRK29SerializationCommandArgumentsR31RuntimeSerializationCommandInfo
6984:__Z18Transfer_BlittableI18StreamedBinaryReadILb1EELb1E8Vector4fEvRK29SerializationCommandArgumentsR31RuntimeSerializationCommandInfo
6985:__Z18Transfer_BlittableI18StreamedBinaryReadILb1EELb1E5RectTIfEEvRK29SerializationCommandArgumentsR31RuntimeSerializationCommandInfo
6986:__Z18Transfer_BlittableI18StreamedBinaryReadILb1EELb0E10Matrix4x4fEvRK29SerializationCommandArgumentsR31RuntimeSerializationCommandInfo
6987:__Z18Transfer_BlittableI18StreamedBinaryReadILb1EELb1E10Matrix4x4fEvRK29SerializationCommandArgumentsR31RuntimeSerializationCommandInfo
6988:__Z18Transfer_BlittableI18StreamedBinaryReadILb1EELb0E11ColorRGBA32EvRK29SerializationCommandArgumentsR31RuntimeSerializationCommandInfo
6989:__Z18Transfer_BlittableI18StreamedBinaryReadILb1EELb1E11ColorRGBA32EvRK29SerializationCommandArgumentsR31RuntimeSerializationCommandInfo
6990:__Z18Transfer_BlittableI18StreamedBinaryReadILb1EELb0E12PropertyNameEvRK29SerializationCommandArgumentsR31RuntimeSerializationCommandInfo
6991:__Z18Transfer_BlittableI18StreamedBinaryReadILb1EELb1E12PropertyNameEvRK29SerializationCommandArgumentsR31RuntimeSerializationCommandInfo
6992:__ZL26Transfer_SimpleNativeClassI18StreamedBinaryReadILb1EE17AnimationCurveTplIfELb0EEvRK29SerializationCommandArgumentsR31RuntimeSerializationCommandInfo
6993:__ZL26Transfer_SimpleNativeClassI18StreamedBinaryReadILb1EE17AnimationCurveTplIfELb1EEvRK29SerializationCommandArgumentsR31RuntimeSerializationCommandInfo
6994:__ZL26Transfer_SimpleNativeClassI18StreamedBinaryReadILb1EE8GradientLb0EEvRK29SerializationCommandArgumentsR31RuntimeSerializationCommandInfo
6995:__ZL26Transfer_SimpleNativeClassI18StreamedBinaryReadILb1EE8GradientLb1EEvRK29SerializationCommandArgumentsR31RuntimeSerializationCommandInfo
6996:__ZL26Transfer_SimpleNativeClassI18StreamedBinaryReadILb1EE10RectOffsetLb0EEvRK29SerializationCommandArgumentsR31RuntimeSerializationCommandInfo
6997:__ZL26Transfer_SimpleNativeClassI18StreamedBinaryReadILb1EE10RectOffsetLb1EEvRK29SerializationCommandArgumentsR31RuntimeSerializationCommandInfo
6998:__Z18Transfer_BlittableI18StreamedBinaryReadILb1EELb1EaEvRK29SerializationCommandArgumentsR31RuntimeSerializationCommandInfo
6999:__Z18Transfer_BlittableI18StreamedBinaryReadILb1EELb0EdEvRK29SerializationCommandArgumentsR31RuntimeSerializationCommandInfo
7000:__Z18Transfer_BlittableI18StreamedBinaryReadILb1EELb1EdEvRK29SerializationCommandArgumentsR31RuntimeSerializationCommandInfo
7001:__ZL17Transfer_GUIStyleI18StreamedBinaryReadILb1EELb0EEvRK29SerializationCommandArgumentsR31RuntimeSerializationCommandInfo
7002:__ZL17Transfer_GUIStyleI18StreamedBinaryReadILb1EELb1EEvRK29SerializationCommandArgumentsR31RuntimeSerializationCommandInfo
7003:__Z26Transfer_UnityEngineObjectI18StreamedBinaryReadILb1EELb0EEvRK29SerializationCommandArgumentsR31RuntimeSerializationCommandInfo
7004:__Z26Transfer_UnityEngineObjectI18StreamedBinaryReadILb1EELb1EEvRK29SerializationCommandArgumentsR31RuntimeSerializationCommandInfo
7005:__ZL22Transfer_ManagedObjectI18StreamedBinaryReadILb1EELb1EEvRK29SerializationCommandArgumentsR31RuntimeSerializationCommandInfo
7006:__ZN18StreamedBinaryReadILb1EE21TransferSTLStyleArrayI31ArrayOfManagedObjectsTransfererEEvRT_17TransferMetaFlags
7007:__Z19TransferField_ArrayI18StreamedBinaryReadILb1EE27Converter_UnityEngineObjectEvRK23StaticTransferFieldInfoR31RuntimeSerializationCommandInfoRT0_
7008:__ZN4PPtrI6ObjectE8TransferI18StreamedBinaryReadILb1EEEEvRT_
7009:__Z19TransferField_ArrayI18StreamedBinaryReadILb1EE27Converter_SimpleNativeClassI8GUIStyleEEvRK23StaticTransferFieldInfoR31RuntimeSerializationCommandInfoRT0_
7010:__ZN8GUIStyle8TransferI18StreamedBinaryReadILb1EEEEvRT_
7011:__ZN18StreamedBinaryReadILb1EE21TransferSTLStyleArrayIN4core12basic_stringIcNS2_20StringStorageDefaultIcEEEEEEvRT_17TransferMetaFlags
7012:__ZN10ColorRGBAf8TransferI18StreamedBinaryReadILb1EEEEvRT_
7013:__Z22TransferField_NonArrayI18StreamedBinaryReadILb1EE27Converter_SimpleNativeClassI8GUIStyleEEvRK23StaticTransferFieldInfoR31RuntimeSerializationCommandInfoRT0_
7014:__Z29Transfer_Blittable_ArrayFieldI18StreamedBinaryReadILb1EEdEvRT_R9ArrayInfoRK23StaticTransferFieldInfo
7015:__ZN18StreamedBinaryReadILb1EE21TransferSTLStyleArrayI13dynamic_arrayIdLj8EEEEvRT_17TransferMetaFlags
7016:__Z29Transfer_Blittable_ArrayFieldI18StreamedBinaryReadILb1EEyEvRT_R9ArrayInfoRK23StaticTransferFieldInfo
7017:__ZN18StreamedBinaryReadILb1EE21TransferSTLStyleArrayI13dynamic_arrayIyLj8EEEEvRT_17TransferMetaFlags
7018:__Z29Transfer_Blittable_ArrayFieldI18StreamedBinaryReadILb1EEjEvRT_R9ArrayInfoRK23StaticTransferFieldInfo
7019:__ZN18StreamedBinaryReadILb1EE21TransferSTLStyleArrayI13dynamic_arrayIjLj4EEEEvRT_17TransferMetaFlags
7020:__Z29Transfer_Blittable_ArrayFieldI18StreamedBinaryReadILb1EEaEvRT_R9ArrayInfoRK23StaticTransferFieldInfo
7021:__ZN18StreamedBinaryReadILb1EE21TransferSTLStyleArrayI13dynamic_arrayIaLj1EEEEvRT_17TransferMetaFlags
7022:__Z19TransferField_ArrayI18StreamedBinaryReadILb1EE27Converter_SimpleNativeClassI10RectOffsetEEvRK23StaticTransferFieldInfoR31RuntimeSerializationCommandInfoRT0_
7023:__Z19TransferField_ArrayI18StreamedBinaryReadILb1EE27Converter_SimpleNativeClassI8GradientEEvRK23StaticTransferFieldInfoR31RuntimeSerializationCommandInfoRT0_
7024:__ZN8Gradient8TransferI18StreamedBinaryReadILb1EEEEvRT_
7025:__Z22TransferField_NonArrayI18StreamedBinaryReadILb1EE27Converter_SimpleNativeClassI8GradientEEvRK23StaticTransferFieldInfoR31RuntimeSerializationCommandInfoRT0_
